                              1 ;--------------------------------------------------------
                              2 ; File Created by SDCC : FreeWare ANSI-C Compiler
                              3 ; Version 2.3.1 Mon Apr 17 19:22:46 2017
                              4 
                              5 ;--------------------------------------------------------
                              6 	.module lcc80010
                              7 	
                              8 ;--------------------------------------------------------
                              9 ; Public variables in this module
                             10 ;--------------------------------------------------------
                             11 	.globl _Intro2
                             12 	.globl _Intro
                             13 	.globl _textNext
                             14 	.globl _messageIntroPart2
                             15 	.globl _messageIntroPart1
                             16 	.globl _textIcon
                             17 	.globl _By
                             18 	.globl _PressStart
                             19 	.globl _TitleScreenMap
                             20 	.globl _TitleScreenTiles
                             21 ;--------------------------------------------------------
                             22 ; special function registers
                             23 ;--------------------------------------------------------
                             24 ;--------------------------------------------------------
                             25 ; special function bits 
                             26 ;--------------------------------------------------------
                             27 ;--------------------------------------------------------
                             28 ; internal ram data
                             29 ;--------------------------------------------------------
                             30 	.area _DATA
   0000                      31 _textIcon::
   0000                      32 	.ds 16
                             33 ;--------------------------------------------------------
                             34 ; overlayable items in internal ram 
                             35 ;--------------------------------------------------------
                             36 	.area _OVERLAY
                             37 ;--------------------------------------------------------
                             38 ; indirectly addressable internal ram data
                             39 ;--------------------------------------------------------
                             40 	.area _ISEG
                             41 ;--------------------------------------------------------
                             42 ; bit data
                             43 ;--------------------------------------------------------
                             44 	.area _BSEG
                             45 ;--------------------------------------------------------
                             46 ; external ram data
                             47 ;--------------------------------------------------------
                             48 	.area _XSEG
                             49 ;--------------------------------------------------------
                             50 ; global & static initialisations
                             51 ;--------------------------------------------------------
                             52 	.area _GSINIT
                             53 	.area _GSFINAL
                             54 	.area _GSINIT
                             55 ;	BANK2.c 26
                             56 ;	BANK2.c 234
                             57 ;	genArrayInit
                             58 ; _saveRegsForCall: sendSetSize: 0 deInUse: 0 bcInUse: 0 deSending: 0
   0000 21 00 00             59 	ld	hl,#_textIcon
   0003 CD 00 00             60 	call	__initrleblock
   0006 FA 00                61 	.db	-6,0x00
   0008 0A                   62 	.db	10
   0009 7E 00 7E 00 3C 00    63 	.db	0x7E, 0x00, 0x7E, 0x00, 0x3C, 0x00, 0x18, 0x00
        18 00
   0011 00 00                64 	.db	0x00, 0x00
   0013 00                   65 	.db	0
                             66 ;--------------------------------------------------------
                             67 ; Home
                             68 ;--------------------------------------------------------
                             69 	.area _HOME
                             70 	.area _CODE_2
                             71 ;--------------------------------------------------------
                             72 ; code
                             73 ;--------------------------------------------------------
                             74 	.area _CODE_2
                             75 ;	IncludeCustom/MessageIntro.c 4
                             76 ;	genLabel
                             77 ;	genFunction
                             78 ;	---------------------------------
                             79 ; Function messageIntroPart1
                             80 ; ---------------------------------
   0000                      81 ___messageIntroPart1_start:
   0000                      82 _messageIntroPart1:
                             83 	
                             84 ;	IncludeCustom/MessageIntro.c 6
                             85 ;	genIpush
                             86 ; _saveRegsForCall: sendSetSize: 0 deInUse: 0 bcInUse: 0 deSending: 0
   0000 21 F2 16             87 	ld	hl,#__str_0
   0003 E5                   88 	push	hl
                             89 ;	genCall
   0004 CD 00 00             90 	call	_printf
   0007 E8 02                91 	lda	sp,2(sp)
                             92 ;	IncludeCustom/MessageIntro.c 7
                             93 ;	genIpush
                             94 ; _saveRegsForCall: sendSetSize: 0 deInUse: 0 bcInUse: 0 deSending: 0
   0009 21 FB 16             95 	ld	hl,#__str_1
   000C E5                   96 	push	hl
                             97 ;	genCall
   000D CD 00 00             98 	call	_printf
   0010 E8 02                99 	lda	sp,2(sp)
                            100 ;	IncludeCustom/MessageIntro.c 8
                            101 ;	genIpush
                            102 ; _saveRegsForCall: sendSetSize: 0 deInUse: 0 bcInUse: 0 deSending: 0
   0012 21 F4 01            103 	ld	hl,#0x01F4
   0015 E5                  104 	push	hl
                            105 ;	genCall
   0016 CD 00 00            106 	call	_delay
   0019 E8 02               107 	lda	sp,2(sp)
                            108 ;	IncludeCustom/MessageIntro.c 9
                            109 ;	genIpush
                            110 ; _saveRegsForCall: sendSetSize: 0 deInUse: 0 bcInUse: 0 deSending: 0
   001B 21 FD 16            111 	ld	hl,#__str_2
   001E E5                  112 	push	hl
                            113 ;	genCall
   001F CD 00 00            114 	call	_printf
   0022 E8 02               115 	lda	sp,2(sp)
                            116 ;	IncludeCustom/MessageIntro.c 10
                            117 ;	genIpush
                            118 ; _saveRegsForCall: sendSetSize: 0 deInUse: 0 bcInUse: 0 deSending: 0
   0024 21 F4 01            119 	ld	hl,#0x01F4
   0027 E5                  120 	push	hl
                            121 ;	genCall
   0028 CD 00 00            122 	call	_delay
   002B E8 02               123 	lda	sp,2(sp)
                            124 ;	IncludeCustom/MessageIntro.c 11
                            125 ;	genIpush
                            126 ; _saveRegsForCall: sendSetSize: 0 deInUse: 0 bcInUse: 0 deSending: 0
   002D 21 FF 16            127 	ld	hl,#__str_3
   0030 E5                  128 	push	hl
                            129 ;	genCall
   0031 CD 00 00            130 	call	_printf
   0034 E8 02               131 	lda	sp,2(sp)
                            132 ;	IncludeCustom/MessageIntro.c 12
                            133 ;	genIpush
                            134 ; _saveRegsForCall: sendSetSize: 0 deInUse: 0 bcInUse: 0 deSending: 0
   0036 21 BC 02            135 	ld	hl,#0x02BC
   0039 E5                  136 	push	hl
                            137 ;	genCall
   003A CD 00 00            138 	call	_delay
   003D E8 02               139 	lda	sp,2(sp)
                            140 ;	IncludeCustom/MessageIntro.c 13
                            141 ;	genIpush
                            142 ; _saveRegsForCall: sendSetSize: 0 deInUse: 0 bcInUse: 0 deSending: 0
   003F 21 01 17            143 	ld	hl,#__str_4
   0042 E5                  144 	push	hl
                            145 ;	genCall
   0043 CD 00 00            146 	call	_printf
   0046 E8 02               147 	lda	sp,2(sp)
                            148 ;	IncludeCustom/MessageIntro.c 14
                            149 ;	genIpush
                            150 ; _saveRegsForCall: sendSetSize: 0 deInUse: 0 bcInUse: 0 deSending: 0
   0048 21 64 00            151 	ld	hl,#0x0064
   004B E5                  152 	push	hl
                            153 ;	genCall
   004C CD 00 00            154 	call	_delay
   004F E8 02               155 	lda	sp,2(sp)
                            156 ;	IncludeCustom/MessageIntro.c 15
                            157 ;	genIpush
                            158 ; _saveRegsForCall: sendSetSize: 0 deInUse: 0 bcInUse: 0 deSending: 0
   0051 21 08 17            159 	ld	hl,#__str_5
   0054 E5                  160 	push	hl
                            161 ;	genCall
   0055 CD 00 00            162 	call	_printf
   0058 E8 02               163 	lda	sp,2(sp)
                            164 ;	IncludeCustom/MessageIntro.c 16
                            165 ;	genIpush
                            166 ; _saveRegsForCall: sendSetSize: 0 deInUse: 0 bcInUse: 0 deSending: 0
   005A 21 64 00            167 	ld	hl,#0x0064
   005D E5                  168 	push	hl
                            169 ;	genCall
   005E CD 00 00            170 	call	_delay
   0061 E8 02               171 	lda	sp,2(sp)
                            172 ;	IncludeCustom/MessageIntro.c 17
                            173 ;	genIpush
                            174 ; _saveRegsForCall: sendSetSize: 0 deInUse: 0 bcInUse: 0 deSending: 0
   0063 21 0A 17            175 	ld	hl,#__str_6
   0066 E5                  176 	push	hl
                            177 ;	genCall
   0067 CD 00 00            178 	call	_printf
   006A E8 02               179 	lda	sp,2(sp)
                            180 ;	IncludeCustom/MessageIntro.c 18
                            181 ;	genIpush
                            182 ; _saveRegsForCall: sendSetSize: 0 deInUse: 0 bcInUse: 0 deSending: 0
   006C 21 64 00            183 	ld	hl,#0x0064
   006F E5                  184 	push	hl
                            185 ;	genCall
   0070 CD 00 00            186 	call	_delay
   0073 E8 02               187 	lda	sp,2(sp)
                            188 ;	IncludeCustom/MessageIntro.c 19
                            189 ;	genIpush
                            190 ; _saveRegsForCall: sendSetSize: 0 deInUse: 0 bcInUse: 0 deSending: 0
   0075 21 0C 17            191 	ld	hl,#__str_7
   0078 E5                  192 	push	hl
                            193 ;	genCall
   0079 CD 00 00            194 	call	_printf
   007C E8 02               195 	lda	sp,2(sp)
                            196 ;	IncludeCustom/MessageIntro.c 20
                            197 ;	genIpush
                            198 ; _saveRegsForCall: sendSetSize: 0 deInUse: 0 bcInUse: 0 deSending: 0
   007E 21 64 00            199 	ld	hl,#0x0064
   0081 E5                  200 	push	hl
                            201 ;	genCall
   0082 CD 00 00            202 	call	_delay
   0085 E8 02               203 	lda	sp,2(sp)
                            204 ;	IncludeCustom/MessageIntro.c 21
                            205 ;	genIpush
                            206 ; _saveRegsForCall: sendSetSize: 0 deInUse: 0 bcInUse: 0 deSending: 0
   0087 21 0E 17            207 	ld	hl,#__str_8
   008A E5                  208 	push	hl
                            209 ;	genCall
   008B CD 00 00            210 	call	_printf
   008E E8 02               211 	lda	sp,2(sp)
                            212 ;	IncludeCustom/MessageIntro.c 22
                            213 ;	genIpush
                            214 ; _saveRegsForCall: sendSetSize: 0 deInUse: 0 bcInUse: 0 deSending: 0
   0090 21 64 00            215 	ld	hl,#0x0064
   0093 E5                  216 	push	hl
                            217 ;	genCall
   0094 CD 00 00            218 	call	_delay
   0097 E8 02               219 	lda	sp,2(sp)
                            220 ;	IncludeCustom/MessageIntro.c 23
                            221 ;	genIpush
                            222 ; _saveRegsForCall: sendSetSize: 0 deInUse: 0 bcInUse: 0 deSending: 0
   0099 21 10 17            223 	ld	hl,#__str_9
   009C E5                  224 	push	hl
                            225 ;	genCall
   009D CD 00 00            226 	call	_printf
   00A0 E8 02               227 	lda	sp,2(sp)
                            228 ;	IncludeCustom/MessageIntro.c 24
                            229 ;	genIpush
                            230 ; _saveRegsForCall: sendSetSize: 0 deInUse: 0 bcInUse: 0 deSending: 0
   00A2 21 64 00            231 	ld	hl,#0x0064
   00A5 E5                  232 	push	hl
                            233 ;	genCall
   00A6 CD 00 00            234 	call	_delay
   00A9 E8 02               235 	lda	sp,2(sp)
                            236 ;	IncludeCustom/MessageIntro.c 25
                            237 ;	genIpush
                            238 ; _saveRegsForCall: sendSetSize: 0 deInUse: 0 bcInUse: 0 deSending: 0
   00AB 21 12 17            239 	ld	hl,#__str_10
   00AE E5                  240 	push	hl
                            241 ;	genCall
   00AF CD 00 00            242 	call	_printf
   00B2 E8 02               243 	lda	sp,2(sp)
                            244 ;	IncludeCustom/MessageIntro.c 26
                            245 ;	genIpush
                            246 ; _saveRegsForCall: sendSetSize: 0 deInUse: 0 bcInUse: 0 deSending: 0
   00B4 21 64 00            247 	ld	hl,#0x0064
   00B7 E5                  248 	push	hl
                            249 ;	genCall
   00B8 CD 00 00            250 	call	_delay
   00BB E8 02               251 	lda	sp,2(sp)
                            252 ;	IncludeCustom/MessageIntro.c 27
                            253 ;	genIpush
                            254 ; _saveRegsForCall: sendSetSize: 0 deInUse: 0 bcInUse: 0 deSending: 0
   00BD 21 14 17            255 	ld	hl,#__str_11
   00C0 E5                  256 	push	hl
                            257 ;	genCall
   00C1 CD 00 00            258 	call	_printf
   00C4 E8 02               259 	lda	sp,2(sp)
                            260 ;	IncludeCustom/MessageIntro.c 28
                            261 ;	genIpush
                            262 ; _saveRegsForCall: sendSetSize: 0 deInUse: 0 bcInUse: 0 deSending: 0
   00C6 21 64 00            263 	ld	hl,#0x0064
   00C9 E5                  264 	push	hl
                            265 ;	genCall
   00CA CD 00 00            266 	call	_delay
   00CD E8 02               267 	lda	sp,2(sp)
                            268 ;	IncludeCustom/MessageIntro.c 29
                            269 ;	genIpush
                            270 ; _saveRegsForCall: sendSetSize: 0 deInUse: 0 bcInUse: 0 deSending: 0
   00CF 21 16 17            271 	ld	hl,#__str_12
   00D2 E5                  272 	push	hl
                            273 ;	genCall
   00D3 CD 00 00            274 	call	_printf
   00D6 E8 02               275 	lda	sp,2(sp)
                            276 ;	IncludeCustom/MessageIntro.c 30
                            277 ;	genIpush
                            278 ; _saveRegsForCall: sendSetSize: 0 deInUse: 0 bcInUse: 0 deSending: 0
   00D8 21 BC 02            279 	ld	hl,#0x02BC
   00DB E5                  280 	push	hl
                            281 ;	genCall
   00DC CD 00 00            282 	call	_delay
   00DF E8 02               283 	lda	sp,2(sp)
                            284 ;	IncludeCustom/MessageIntro.c 31
                            285 ;	genIpush
                            286 ; _saveRegsForCall: sendSetSize: 0 deInUse: 0 bcInUse: 0 deSending: 0
   00E1 21 18 17            287 	ld	hl,#__str_13
   00E4 E5                  288 	push	hl
                            289 ;	genCall
   00E5 CD 00 00            290 	call	_printf
   00E8 E8 02               291 	lda	sp,2(sp)
                            292 ;	IncludeCustom/MessageIntro.c 32
                            293 ;	genIpush
                            294 ; _saveRegsForCall: sendSetSize: 0 deInUse: 0 bcInUse: 0 deSending: 0
   00EA 21 64 00            295 	ld	hl,#0x0064
   00ED E5                  296 	push	hl
                            297 ;	genCall
   00EE CD 00 00            298 	call	_delay
   00F1 E8 02               299 	lda	sp,2(sp)
                            300 ;	IncludeCustom/MessageIntro.c 33
                            301 ;	genIpush
                            302 ; _saveRegsForCall: sendSetSize: 0 deInUse: 0 bcInUse: 0 deSending: 0
   00F3 21 1A 17            303 	ld	hl,#__str_14
   00F6 E5                  304 	push	hl
                            305 ;	genCall
   00F7 CD 00 00            306 	call	_printf
   00FA E8 02               307 	lda	sp,2(sp)
                            308 ;	IncludeCustom/MessageIntro.c 34
                            309 ;	genIpush
                            310 ; _saveRegsForCall: sendSetSize: 0 deInUse: 0 bcInUse: 0 deSending: 0
   00FC 21 64 00            311 	ld	hl,#0x0064
   00FF E5                  312 	push	hl
                            313 ;	genCall
   0100 CD 00 00            314 	call	_delay
   0103 E8 02               315 	lda	sp,2(sp)
                            316 ;	IncludeCustom/MessageIntro.c 35
                            317 ;	genIpush
                            318 ; _saveRegsForCall: sendSetSize: 0 deInUse: 0 bcInUse: 0 deSending: 0
   0105 21 1C 17            319 	ld	hl,#__str_15
   0108 E5                  320 	push	hl
                            321 ;	genCall
   0109 CD 00 00            322 	call	_printf
   010C E8 02               323 	lda	sp,2(sp)
                            324 ;	IncludeCustom/MessageIntro.c 36
                            325 ;	genIpush
                            326 ; _saveRegsForCall: sendSetSize: 0 deInUse: 0 bcInUse: 0 deSending: 0
   010E 21 64 00            327 	ld	hl,#0x0064
   0111 E5                  328 	push	hl
                            329 ;	genCall
   0112 CD 00 00            330 	call	_delay
   0115 E8 02               331 	lda	sp,2(sp)
                            332 ;	IncludeCustom/MessageIntro.c 37
                            333 ;	genIpush
                            334 ; _saveRegsForCall: sendSetSize: 0 deInUse: 0 bcInUse: 0 deSending: 0
   0117 21 1E 17            335 	ld	hl,#__str_16
   011A E5                  336 	push	hl
                            337 ;	genCall
   011B CD 00 00            338 	call	_printf
   011E E8 02               339 	lda	sp,2(sp)
                            340 ;	IncludeCustom/MessageIntro.c 38
                            341 ;	genIpush
                            342 ; _saveRegsForCall: sendSetSize: 0 deInUse: 0 bcInUse: 0 deSending: 0
   0120 21 64 00            343 	ld	hl,#0x0064
   0123 E5                  344 	push	hl
                            345 ;	genCall
   0124 CD 00 00            346 	call	_delay
   0127 E8 02               347 	lda	sp,2(sp)
                            348 ;	IncludeCustom/MessageIntro.c 39
                            349 ;	genIpush
                            350 ; _saveRegsForCall: sendSetSize: 0 deInUse: 0 bcInUse: 0 deSending: 0
   0129 21 20 17            351 	ld	hl,#__str_17
   012C E5                  352 	push	hl
                            353 ;	genCall
   012D CD 00 00            354 	call	_printf
   0130 E8 02               355 	lda	sp,2(sp)
                            356 ;	IncludeCustom/MessageIntro.c 40
                            357 ;	genIpush
                            358 ; _saveRegsForCall: sendSetSize: 0 deInUse: 0 bcInUse: 0 deSending: 0
   0132 21 64 00            359 	ld	hl,#0x0064
   0135 E5                  360 	push	hl
                            361 ;	genCall
   0136 CD 00 00            362 	call	_delay
   0139 E8 02               363 	lda	sp,2(sp)
                            364 ;	IncludeCustom/MessageIntro.c 41
                            365 ;	genIpush
                            366 ; _saveRegsForCall: sendSetSize: 0 deInUse: 0 bcInUse: 0 deSending: 0
   013B 21 22 17            367 	ld	hl,#__str_18
   013E E5                  368 	push	hl
                            369 ;	genCall
   013F CD 00 00            370 	call	_printf
   0142 E8 02               371 	lda	sp,2(sp)
                            372 ;	IncludeCustom/MessageIntro.c 42
                            373 ;	genIpush
                            374 ; _saveRegsForCall: sendSetSize: 0 deInUse: 0 bcInUse: 0 deSending: 0
   0144 21 64 00            375 	ld	hl,#0x0064
   0147 E5                  376 	push	hl
                            377 ;	genCall
   0148 CD 00 00            378 	call	_delay
   014B E8 02               379 	lda	sp,2(sp)
                            380 ;	IncludeCustom/MessageIntro.c 43
                            381 ;	genIpush
                            382 ; _saveRegsForCall: sendSetSize: 0 deInUse: 0 bcInUse: 0 deSending: 0
   014D 21 24 17            383 	ld	hl,#__str_19
   0150 E5                  384 	push	hl
                            385 ;	genCall
   0151 CD 00 00            386 	call	_printf
   0154 E8 02               387 	lda	sp,2(sp)
                            388 ;	IncludeCustom/MessageIntro.c 44
                            389 ;	genIpush
                            390 ; _saveRegsForCall: sendSetSize: 0 deInUse: 0 bcInUse: 0 deSending: 0
   0156 21 64 00            391 	ld	hl,#0x0064
   0159 E5                  392 	push	hl
                            393 ;	genCall
   015A CD 00 00            394 	call	_delay
   015D E8 02               395 	lda	sp,2(sp)
                            396 ;	IncludeCustom/MessageIntro.c 45
                            397 ;	genIpush
                            398 ; _saveRegsForCall: sendSetSize: 0 deInUse: 0 bcInUse: 0 deSending: 0
   015F 21 26 17            399 	ld	hl,#__str_20
   0162 E5                  400 	push	hl
                            401 ;	genCall
   0163 CD 00 00            402 	call	_printf
   0166 E8 02               403 	lda	sp,2(sp)
                            404 ;	IncludeCustom/MessageIntro.c 46
                            405 ;	genIpush
                            406 ; _saveRegsForCall: sendSetSize: 0 deInUse: 0 bcInUse: 0 deSending: 0
   0168 21 64 00            407 	ld	hl,#0x0064
   016B E5                  408 	push	hl
                            409 ;	genCall
   016C CD 00 00            410 	call	_delay
   016F E8 02               411 	lda	sp,2(sp)
                            412 ;	IncludeCustom/MessageIntro.c 47
                            413 ;	genIpush
                            414 ; _saveRegsForCall: sendSetSize: 0 deInUse: 0 bcInUse: 0 deSending: 0
   0171 21 28 17            415 	ld	hl,#__str_21
   0174 E5                  416 	push	hl
                            417 ;	genCall
   0175 CD 00 00            418 	call	_printf
   0178 E8 02               419 	lda	sp,2(sp)
                            420 ;	IncludeCustom/MessageIntro.c 48
                            421 ;	genIpush
                            422 ; _saveRegsForCall: sendSetSize: 0 deInUse: 0 bcInUse: 0 deSending: 0
   017A 21 64 00            423 	ld	hl,#0x0064
   017D E5                  424 	push	hl
                            425 ;	genCall
   017E CD 00 00            426 	call	_delay
   0181 E8 02               427 	lda	sp,2(sp)
                            428 ;	IncludeCustom/MessageIntro.c 49
                            429 ;	genIpush
                            430 ; _saveRegsForCall: sendSetSize: 0 deInUse: 0 bcInUse: 0 deSending: 0
   0183 21 2A 17            431 	ld	hl,#__str_22
   0186 E5                  432 	push	hl
                            433 ;	genCall
   0187 CD 00 00            434 	call	_printf
   018A E8 02               435 	lda	sp,2(sp)
                            436 ;	IncludeCustom/MessageIntro.c 50
                            437 ;	genIpush
                            438 ; _saveRegsForCall: sendSetSize: 0 deInUse: 0 bcInUse: 0 deSending: 0
   018C 21 64 00            439 	ld	hl,#0x0064
   018F E5                  440 	push	hl
                            441 ;	genCall
   0190 CD 00 00            442 	call	_delay
   0193 E8 02               443 	lda	sp,2(sp)
                            444 ;	IncludeCustom/MessageIntro.c 51
                            445 ;	genIpush
                            446 ; _saveRegsForCall: sendSetSize: 0 deInUse: 0 bcInUse: 0 deSending: 0
   0195 21 2E 17            447 	ld	hl,#__str_23
   0198 E5                  448 	push	hl
                            449 ;	genCall
   0199 CD 00 00            450 	call	_printf
   019C E8 02               451 	lda	sp,2(sp)
                            452 ;	IncludeCustom/MessageIntro.c 52
                            453 ;	genIpush
                            454 ; _saveRegsForCall: sendSetSize: 0 deInUse: 0 bcInUse: 0 deSending: 0
   019E 21 64 00            455 	ld	hl,#0x0064
   01A1 E5                  456 	push	hl
                            457 ;	genCall
   01A2 CD 00 00            458 	call	_delay
   01A5 E8 02               459 	lda	sp,2(sp)
                            460 ;	IncludeCustom/MessageIntro.c 53
                            461 ;	genIpush
                            462 ; _saveRegsForCall: sendSetSize: 0 deInUse: 0 bcInUse: 0 deSending: 0
   01A7 21 30 17            463 	ld	hl,#__str_24
   01AA E5                  464 	push	hl
                            465 ;	genCall
   01AB CD 00 00            466 	call	_printf
   01AE E8 02               467 	lda	sp,2(sp)
                            468 ;	IncludeCustom/MessageIntro.c 54
                            469 ;	genIpush
                            470 ; _saveRegsForCall: sendSetSize: 0 deInUse: 0 bcInUse: 0 deSending: 0
   01B0 21 64 00            471 	ld	hl,#0x0064
   01B3 E5                  472 	push	hl
                            473 ;	genCall
   01B4 CD 00 00            474 	call	_delay
   01B7 E8 02               475 	lda	sp,2(sp)
                            476 ;	IncludeCustom/MessageIntro.c 55
                            477 ;	genIpush
                            478 ; _saveRegsForCall: sendSetSize: 0 deInUse: 0 bcInUse: 0 deSending: 0
   01B9 21 32 17            479 	ld	hl,#__str_25
   01BC E5                  480 	push	hl
                            481 ;	genCall
   01BD CD 00 00            482 	call	_printf
   01C0 E8 02               483 	lda	sp,2(sp)
                            484 ;	IncludeCustom/MessageIntro.c 56
                            485 ;	genIpush
                            486 ; _saveRegsForCall: sendSetSize: 0 deInUse: 0 bcInUse: 0 deSending: 0
   01C2 21 64 00            487 	ld	hl,#0x0064
   01C5 E5                  488 	push	hl
                            489 ;	genCall
   01C6 CD 00 00            490 	call	_delay
   01C9 E8 02               491 	lda	sp,2(sp)
                            492 ;	IncludeCustom/MessageIntro.c 57
                            493 ;	genIpush
                            494 ; _saveRegsForCall: sendSetSize: 0 deInUse: 0 bcInUse: 0 deSending: 0
   01CB 21 34 17            495 	ld	hl,#__str_26
   01CE E5                  496 	push	hl
                            497 ;	genCall
   01CF CD 00 00            498 	call	_printf
   01D2 E8 02               499 	lda	sp,2(sp)
                            500 ;	IncludeCustom/MessageIntro.c 58
                            501 ;	genIpush
                            502 ; _saveRegsForCall: sendSetSize: 0 deInUse: 0 bcInUse: 0 deSending: 0
   01D4 21 64 00            503 	ld	hl,#0x0064
   01D7 E5                  504 	push	hl
                            505 ;	genCall
   01D8 CD 00 00            506 	call	_delay
   01DB E8 02               507 	lda	sp,2(sp)
                            508 ;	IncludeCustom/MessageIntro.c 59
                            509 ;	genIpush
                            510 ; _saveRegsForCall: sendSetSize: 0 deInUse: 0 bcInUse: 0 deSending: 0
   01DD 21 36 17            511 	ld	hl,#__str_27
   01E0 E5                  512 	push	hl
                            513 ;	genCall
   01E1 CD 00 00            514 	call	_printf
   01E4 E8 02               515 	lda	sp,2(sp)
                            516 ;	IncludeCustom/MessageIntro.c 60
                            517 ;	genIpush
                            518 ; _saveRegsForCall: sendSetSize: 0 deInUse: 0 bcInUse: 0 deSending: 0
   01E6 21 64 00            519 	ld	hl,#0x0064
   01E9 E5                  520 	push	hl
                            521 ;	genCall
   01EA CD 00 00            522 	call	_delay
   01ED E8 02               523 	lda	sp,2(sp)
                            524 ;	IncludeCustom/MessageIntro.c 61
                            525 ;	genIpush
                            526 ; _saveRegsForCall: sendSetSize: 0 deInUse: 0 bcInUse: 0 deSending: 0
   01EF 21 38 17            527 	ld	hl,#__str_28
   01F2 E5                  528 	push	hl
                            529 ;	genCall
   01F3 CD 00 00            530 	call	_printf
   01F6 E8 02               531 	lda	sp,2(sp)
                            532 ;	IncludeCustom/MessageIntro.c 62
                            533 ;	genIpush
                            534 ; _saveRegsForCall: sendSetSize: 0 deInUse: 0 bcInUse: 0 deSending: 0
   01F8 21 64 00            535 	ld	hl,#0x0064
   01FB E5                  536 	push	hl
                            537 ;	genCall
   01FC CD 00 00            538 	call	_delay
   01FF E8 02               539 	lda	sp,2(sp)
                            540 ;	IncludeCustom/MessageIntro.c 63
                            541 ;	genIpush
                            542 ; _saveRegsForCall: sendSetSize: 0 deInUse: 0 bcInUse: 0 deSending: 0
   0201 21 3A 17            543 	ld	hl,#__str_29
   0204 E5                  544 	push	hl
                            545 ;	genCall
   0205 CD 00 00            546 	call	_printf
   0208 E8 02               547 	lda	sp,2(sp)
                            548 ;	IncludeCustom/MessageIntro.c 64
                            549 ;	genIpush
                            550 ; _saveRegsForCall: sendSetSize: 0 deInUse: 0 bcInUse: 0 deSending: 0
   020A 21 64 00            551 	ld	hl,#0x0064
   020D E5                  552 	push	hl
                            553 ;	genCall
   020E CD 00 00            554 	call	_delay
   0211 E8 02               555 	lda	sp,2(sp)
                            556 ;	IncludeCustom/MessageIntro.c 65
                            557 ;	genIpush
                            558 ; _saveRegsForCall: sendSetSize: 0 deInUse: 0 bcInUse: 0 deSending: 0
   0213 21 3C 17            559 	ld	hl,#__str_30
   0216 E5                  560 	push	hl
                            561 ;	genCall
   0217 CD 00 00            562 	call	_printf
   021A E8 02               563 	lda	sp,2(sp)
                            564 ;	IncludeCustom/MessageIntro.c 66
                            565 ;	genIpush
                            566 ; _saveRegsForCall: sendSetSize: 0 deInUse: 0 bcInUse: 0 deSending: 0
   021C 21 64 00            567 	ld	hl,#0x0064
   021F E5                  568 	push	hl
                            569 ;	genCall
   0220 CD 00 00            570 	call	_delay
   0223 E8 02               571 	lda	sp,2(sp)
                            572 ;	IncludeCustom/MessageIntro.c 67
                            573 ;	genIpush
                            574 ; _saveRegsForCall: sendSetSize: 0 deInUse: 0 bcInUse: 0 deSending: 0
   0225 21 3E 17            575 	ld	hl,#__str_31
   0228 E5                  576 	push	hl
                            577 ;	genCall
   0229 CD 00 00            578 	call	_printf
   022C E8 02               579 	lda	sp,2(sp)
                            580 ;	IncludeCustom/MessageIntro.c 68
                            581 ;	genIpush
                            582 ; _saveRegsForCall: sendSetSize: 0 deInUse: 0 bcInUse: 0 deSending: 0
   022E 21 64 00            583 	ld	hl,#0x0064
   0231 E5                  584 	push	hl
                            585 ;	genCall
   0232 CD 00 00            586 	call	_delay
   0235 E8 02               587 	lda	sp,2(sp)
                            588 ;	IncludeCustom/MessageIntro.c 69
                            589 ;	genIpush
                            590 ; _saveRegsForCall: sendSetSize: 0 deInUse: 0 bcInUse: 0 deSending: 0
   0237 21 40 17            591 	ld	hl,#__str_32
   023A E5                  592 	push	hl
                            593 ;	genCall
   023B CD 00 00            594 	call	_printf
   023E E8 02               595 	lda	sp,2(sp)
                            596 ;	IncludeCustom/MessageIntro.c 70
                            597 ;	genIpush
                            598 ; _saveRegsForCall: sendSetSize: 0 deInUse: 0 bcInUse: 0 deSending: 0
   0240 21 64 00            599 	ld	hl,#0x0064
   0243 E5                  600 	push	hl
                            601 ;	genCall
   0244 CD 00 00            602 	call	_delay
   0247 E8 02               603 	lda	sp,2(sp)
                            604 ;	IncludeCustom/MessageIntro.c 71
                            605 ;	genIpush
                            606 ; _saveRegsForCall: sendSetSize: 0 deInUse: 0 bcInUse: 0 deSending: 0
   0249 21 42 17            607 	ld	hl,#__str_33
   024C E5                  608 	push	hl
                            609 ;	genCall
   024D CD 00 00            610 	call	_printf
   0250 E8 02               611 	lda	sp,2(sp)
                            612 ;	IncludeCustom/MessageIntro.c 72
                            613 ;	genIpush
                            614 ; _saveRegsForCall: sendSetSize: 0 deInUse: 0 bcInUse: 0 deSending: 0
   0252 21 64 00            615 	ld	hl,#0x0064
   0255 E5                  616 	push	hl
                            617 ;	genCall
   0256 CD 00 00            618 	call	_delay
   0259 E8 02               619 	lda	sp,2(sp)
                            620 ;	IncludeCustom/MessageIntro.c 73
                            621 ;	genIpush
                            622 ; _saveRegsForCall: sendSetSize: 0 deInUse: 0 bcInUse: 0 deSending: 0
   025B 21 44 17            623 	ld	hl,#__str_34
   025E E5                  624 	push	hl
                            625 ;	genCall
   025F CD 00 00            626 	call	_printf
   0262 E8 02               627 	lda	sp,2(sp)
                            628 ;	IncludeCustom/MessageIntro.c 74
                            629 ;	genIpush
                            630 ; _saveRegsForCall: sendSetSize: 0 deInUse: 0 bcInUse: 0 deSending: 0
   0264 21 64 00            631 	ld	hl,#0x0064
   0267 E5                  632 	push	hl
                            633 ;	genCall
   0268 CD 00 00            634 	call	_delay
   026B E8 02               635 	lda	sp,2(sp)
                            636 ;	IncludeCustom/MessageIntro.c 75
                            637 ;	genIpush
                            638 ; _saveRegsForCall: sendSetSize: 0 deInUse: 0 bcInUse: 0 deSending: 0
   026D 21 46 17            639 	ld	hl,#__str_35
   0270 E5                  640 	push	hl
                            641 ;	genCall
   0271 CD 00 00            642 	call	_printf
   0274 E8 02               643 	lda	sp,2(sp)
                            644 ;	IncludeCustom/MessageIntro.c 76
                            645 ;	genIpush
                            646 ; _saveRegsForCall: sendSetSize: 0 deInUse: 0 bcInUse: 0 deSending: 0
   0276 21 64 00            647 	ld	hl,#0x0064
   0279 E5                  648 	push	hl
                            649 ;	genCall
   027A CD 00 00            650 	call	_delay
   027D E8 02               651 	lda	sp,2(sp)
                            652 ;	IncludeCustom/MessageIntro.c 77
                            653 ;	genIpush
                            654 ; _saveRegsForCall: sendSetSize: 0 deInUse: 0 bcInUse: 0 deSending: 0
   027F 21 48 17            655 	ld	hl,#__str_36
   0282 E5                  656 	push	hl
                            657 ;	genCall
   0283 CD 00 00            658 	call	_printf
   0286 E8 02               659 	lda	sp,2(sp)
                            660 ;	IncludeCustom/MessageIntro.c 78
                            661 ;	genIpush
                            662 ; _saveRegsForCall: sendSetSize: 0 deInUse: 0 bcInUse: 0 deSending: 0
   0288 21 64 00            663 	ld	hl,#0x0064
   028B E5                  664 	push	hl
                            665 ;	genCall
   028C CD 00 00            666 	call	_delay
   028F E8 02               667 	lda	sp,2(sp)
                            668 ;	IncludeCustom/MessageIntro.c 79
                            669 ;	genIpush
                            670 ; _saveRegsForCall: sendSetSize: 0 deInUse: 0 bcInUse: 0 deSending: 0
   0291 21 4A 17            671 	ld	hl,#__str_37
   0294 E5                  672 	push	hl
                            673 ;	genCall
   0295 CD 00 00            674 	call	_printf
   0298 E8 02               675 	lda	sp,2(sp)
                            676 ;	IncludeCustom/MessageIntro.c 80
                            677 ;	genIpush
                            678 ; _saveRegsForCall: sendSetSize: 0 deInUse: 0 bcInUse: 0 deSending: 0
   029A 21 64 00            679 	ld	hl,#0x0064
   029D E5                  680 	push	hl
                            681 ;	genCall
   029E CD 00 00            682 	call	_delay
   02A1 E8 02               683 	lda	sp,2(sp)
                            684 ;	IncludeCustom/MessageIntro.c 81
                            685 ;	genIpush
                            686 ; _saveRegsForCall: sendSetSize: 0 deInUse: 0 bcInUse: 0 deSending: 0
   02A3 21 4C 17            687 	ld	hl,#__str_38
   02A6 E5                  688 	push	hl
                            689 ;	genCall
   02A7 CD 00 00            690 	call	_printf
   02AA E8 02               691 	lda	sp,2(sp)
                            692 ;	IncludeCustom/MessageIntro.c 82
                            693 ;	genIpush
                            694 ; _saveRegsForCall: sendSetSize: 0 deInUse: 0 bcInUse: 0 deSending: 0
   02AC 21 64 00            695 	ld	hl,#0x0064
   02AF E5                  696 	push	hl
                            697 ;	genCall
   02B0 CD 00 00            698 	call	_delay
   02B3 E8 02               699 	lda	sp,2(sp)
                            700 ;	IncludeCustom/MessageIntro.c 83
                            701 ;	genIpush
                            702 ; _saveRegsForCall: sendSetSize: 0 deInUse: 0 bcInUse: 0 deSending: 0
   02B5 21 4E 17            703 	ld	hl,#__str_39
   02B8 E5                  704 	push	hl
                            705 ;	genCall
   02B9 CD 00 00            706 	call	_printf
   02BC E8 02               707 	lda	sp,2(sp)
                            708 ;	IncludeCustom/MessageIntro.c 84
                            709 ;	genIpush
                            710 ; _saveRegsForCall: sendSetSize: 0 deInUse: 0 bcInUse: 0 deSending: 0
   02BE 21 64 00            711 	ld	hl,#0x0064
   02C1 E5                  712 	push	hl
                            713 ;	genCall
   02C2 CD 00 00            714 	call	_delay
   02C5 E8 02               715 	lda	sp,2(sp)
                            716 ;	IncludeCustom/MessageIntro.c 85
                            717 ;	genIpush
                            718 ; _saveRegsForCall: sendSetSize: 0 deInUse: 0 bcInUse: 0 deSending: 0
   02C7 21 50 17            719 	ld	hl,#__str_40
   02CA E5                  720 	push	hl
                            721 ;	genCall
   02CB CD 00 00            722 	call	_printf
   02CE E8 02               723 	lda	sp,2(sp)
                            724 ;	IncludeCustom/MessageIntro.c 86
                            725 ;	genIpush
                            726 ; _saveRegsForCall: sendSetSize: 0 deInUse: 0 bcInUse: 0 deSending: 0
   02D0 21 64 00            727 	ld	hl,#0x0064
   02D3 E5                  728 	push	hl
                            729 ;	genCall
   02D4 CD 00 00            730 	call	_delay
   02D7 E8 02               731 	lda	sp,2(sp)
                            732 ;	IncludeCustom/MessageIntro.c 87
                            733 ;	genIpush
                            734 ; _saveRegsForCall: sendSetSize: 0 deInUse: 0 bcInUse: 0 deSending: 0
   02D9 21 52 17            735 	ld	hl,#__str_41
   02DC E5                  736 	push	hl
                            737 ;	genCall
   02DD CD 00 00            738 	call	_printf
   02E0 E8 02               739 	lda	sp,2(sp)
                            740 ;	IncludeCustom/MessageIntro.c 88
                            741 ;	genIpush
                            742 ; _saveRegsForCall: sendSetSize: 0 deInUse: 0 bcInUse: 0 deSending: 0
   02E2 21 64 00            743 	ld	hl,#0x0064
   02E5 E5                  744 	push	hl
                            745 ;	genCall
   02E6 CD 00 00            746 	call	_delay
   02E9 E8 02               747 	lda	sp,2(sp)
                            748 ;	IncludeCustom/MessageIntro.c 89
                            749 ;	genIpush
                            750 ; _saveRegsForCall: sendSetSize: 0 deInUse: 0 bcInUse: 0 deSending: 0
   02EB 21 56 17            751 	ld	hl,#__str_42
   02EE E5                  752 	push	hl
                            753 ;	genCall
   02EF CD 00 00            754 	call	_printf
   02F2 E8 02               755 	lda	sp,2(sp)
                            756 ;	IncludeCustom/MessageIntro.c 90
                            757 ;	genIpush
                            758 ; _saveRegsForCall: sendSetSize: 0 deInUse: 0 bcInUse: 0 deSending: 0
   02F4 21 64 00            759 	ld	hl,#0x0064
   02F7 E5                  760 	push	hl
                            761 ;	genCall
   02F8 CD 00 00            762 	call	_delay
   02FB E8 02               763 	lda	sp,2(sp)
                            764 ;	IncludeCustom/MessageIntro.c 91
                            765 ;	genIpush
                            766 ; _saveRegsForCall: sendSetSize: 0 deInUse: 0 bcInUse: 0 deSending: 0
   02FD 21 58 17            767 	ld	hl,#__str_43
   0300 E5                  768 	push	hl
                            769 ;	genCall
   0301 CD 00 00            770 	call	_printf
   0304 E8 02               771 	lda	sp,2(sp)
                            772 ;	IncludeCustom/MessageIntro.c 92
                            773 ;	genIpush
                            774 ; _saveRegsForCall: sendSetSize: 0 deInUse: 0 bcInUse: 0 deSending: 0
   0306 21 64 00            775 	ld	hl,#0x0064
   0309 E5                  776 	push	hl
                            777 ;	genCall
   030A CD 00 00            778 	call	_delay
   030D E8 02               779 	lda	sp,2(sp)
                            780 ;	IncludeCustom/MessageIntro.c 93
                            781 ;	genIpush
                            782 ; _saveRegsForCall: sendSetSize: 0 deInUse: 0 bcInUse: 0 deSending: 0
   030F 21 5A 17            783 	ld	hl,#__str_44
   0312 E5                  784 	push	hl
                            785 ;	genCall
   0313 CD 00 00            786 	call	_printf
   0316 E8 02               787 	lda	sp,2(sp)
                            788 ;	IncludeCustom/MessageIntro.c 94
                            789 ;	genIpush
                            790 ; _saveRegsForCall: sendSetSize: 0 deInUse: 0 bcInUse: 0 deSending: 0
   0318 21 64 00            791 	ld	hl,#0x0064
   031B E5                  792 	push	hl
                            793 ;	genCall
   031C CD 00 00            794 	call	_delay
   031F E8 02               795 	lda	sp,2(sp)
                            796 ;	IncludeCustom/MessageIntro.c 95
                            797 ;	genIpush
                            798 ; _saveRegsForCall: sendSetSize: 0 deInUse: 0 bcInUse: 0 deSending: 0
   0321 21 5C 17            799 	ld	hl,#__str_45
   0324 E5                  800 	push	hl
                            801 ;	genCall
   0325 CD 00 00            802 	call	_printf
   0328 E8 02               803 	lda	sp,2(sp)
                            804 ;	IncludeCustom/MessageIntro.c 96
                            805 ;	genIpush
                            806 ; _saveRegsForCall: sendSetSize: 0 deInUse: 0 bcInUse: 0 deSending: 0
   032A 21 64 00            807 	ld	hl,#0x0064
   032D E5                  808 	push	hl
                            809 ;	genCall
   032E CD 00 00            810 	call	_delay
   0331 E8 02               811 	lda	sp,2(sp)
                            812 ;	IncludeCustom/MessageIntro.c 97
                            813 ;	genIpush
                            814 ; _saveRegsForCall: sendSetSize: 0 deInUse: 0 bcInUse: 0 deSending: 0
   0333 21 5E 17            815 	ld	hl,#__str_46
   0336 E5                  816 	push	hl
                            817 ;	genCall
   0337 CD 00 00            818 	call	_printf
   033A E8 02               819 	lda	sp,2(sp)
                            820 ;	IncludeCustom/MessageIntro.c 98
                            821 ;	genIpush
                            822 ; _saveRegsForCall: sendSetSize: 0 deInUse: 0 bcInUse: 0 deSending: 0
   033C 21 64 00            823 	ld	hl,#0x0064
   033F E5                  824 	push	hl
                            825 ;	genCall
   0340 CD 00 00            826 	call	_delay
   0343 E8 02               827 	lda	sp,2(sp)
                            828 ;	IncludeCustom/MessageIntro.c 99
                            829 ;	genIpush
                            830 ; _saveRegsForCall: sendSetSize: 0 deInUse: 0 bcInUse: 0 deSending: 0
   0345 21 60 17            831 	ld	hl,#__str_47
   0348 E5                  832 	push	hl
                            833 ;	genCall
   0349 CD 00 00            834 	call	_printf
   034C E8 02               835 	lda	sp,2(sp)
                            836 ;	IncludeCustom/MessageIntro.c 100
                            837 ;	genIpush
                            838 ; _saveRegsForCall: sendSetSize: 0 deInUse: 0 bcInUse: 0 deSending: 0
   034E 21 64 00            839 	ld	hl,#0x0064
   0351 E5                  840 	push	hl
                            841 ;	genCall
   0352 CD 00 00            842 	call	_delay
   0355 E8 02               843 	lda	sp,2(sp)
                            844 ;	IncludeCustom/MessageIntro.c 101
                            845 ;	genIpush
                            846 ; _saveRegsForCall: sendSetSize: 0 deInUse: 0 bcInUse: 0 deSending: 0
   0357 21 62 17            847 	ld	hl,#__str_48
   035A E5                  848 	push	hl
                            849 ;	genCall
   035B CD 00 00            850 	call	_printf
   035E E8 02               851 	lda	sp,2(sp)
                            852 ;	IncludeCustom/MessageIntro.c 102
                            853 ;	genIpush
                            854 ; _saveRegsForCall: sendSetSize: 0 deInUse: 0 bcInUse: 0 deSending: 0
   0360 21 64 00            855 	ld	hl,#0x0064
   0363 E5                  856 	push	hl
                            857 ;	genCall
   0364 CD 00 00            858 	call	_delay
   0367 E8 02               859 	lda	sp,2(sp)
                            860 ;	IncludeCustom/MessageIntro.c 103
                            861 ;	genIpush
                            862 ; _saveRegsForCall: sendSetSize: 0 deInUse: 0 bcInUse: 0 deSending: 0
   0369 21 64 17            863 	ld	hl,#__str_49
   036C E5                  864 	push	hl
                            865 ;	genCall
   036D CD 00 00            866 	call	_printf
   0370 E8 02               867 	lda	sp,2(sp)
                            868 ;	IncludeCustom/MessageIntro.c 104
                            869 ;	genIpush
                            870 ; _saveRegsForCall: sendSetSize: 0 deInUse: 0 bcInUse: 0 deSending: 0
   0372 21 64 00            871 	ld	hl,#0x0064
   0375 E5                  872 	push	hl
                            873 ;	genCall
   0376 CD 00 00            874 	call	_delay
   0379 E8 02               875 	lda	sp,2(sp)
                            876 ;	IncludeCustom/MessageIntro.c 105
                            877 ;	genIpush
                            878 ; _saveRegsForCall: sendSetSize: 0 deInUse: 0 bcInUse: 0 deSending: 0
   037B 21 66 17            879 	ld	hl,#__str_50
   037E E5                  880 	push	hl
                            881 ;	genCall
   037F CD 00 00            882 	call	_printf
   0382 E8 02               883 	lda	sp,2(sp)
                            884 ;	IncludeCustom/MessageIntro.c 106
                            885 ;	genIpush
                            886 ; _saveRegsForCall: sendSetSize: 0 deInUse: 0 bcInUse: 0 deSending: 0
   0384 21 64 00            887 	ld	hl,#0x0064
   0387 E5                  888 	push	hl
                            889 ;	genCall
   0388 CD 00 00            890 	call	_delay
   038B E8 02               891 	lda	sp,2(sp)
                            892 ;	IncludeCustom/MessageIntro.c 107
                            893 ;	genIpush
                            894 ; _saveRegsForCall: sendSetSize: 0 deInUse: 0 bcInUse: 0 deSending: 0
   038D 21 68 17            895 	ld	hl,#__str_51
   0390 E5                  896 	push	hl
                            897 ;	genCall
   0391 CD 00 00            898 	call	_printf
   0394 E8 02               899 	lda	sp,2(sp)
                            900 ;	IncludeCustom/MessageIntro.c 108
                            901 ;	genIpush
                            902 ; _saveRegsForCall: sendSetSize: 0 deInUse: 0 bcInUse: 0 deSending: 0
   0396 21 64 00            903 	ld	hl,#0x0064
   0399 E5                  904 	push	hl
                            905 ;	genCall
   039A CD 00 00            906 	call	_delay
   039D E8 02               907 	lda	sp,2(sp)
                            908 ;	IncludeCustom/MessageIntro.c 109
                            909 ;	genIpush
                            910 ; _saveRegsForCall: sendSetSize: 0 deInUse: 0 bcInUse: 0 deSending: 0
   039F 21 6A 17            911 	ld	hl,#__str_52
   03A2 E5                  912 	push	hl
                            913 ;	genCall
   03A3 CD 00 00            914 	call	_printf
   03A6 E8 02               915 	lda	sp,2(sp)
                            916 ;	IncludeCustom/MessageIntro.c 110
                            917 ;	genIpush
                            918 ; _saveRegsForCall: sendSetSize: 0 deInUse: 0 bcInUse: 0 deSending: 0
   03A8 21 64 00            919 	ld	hl,#0x0064
   03AB E5                  920 	push	hl
                            921 ;	genCall
   03AC CD 00 00            922 	call	_delay
   03AF E8 02               923 	lda	sp,2(sp)
                            924 ;	IncludeCustom/MessageIntro.c 111
                            925 ;	genIpush
                            926 ; _saveRegsForCall: sendSetSize: 0 deInUse: 0 bcInUse: 0 deSending: 0
   03B1 21 6C 17            927 	ld	hl,#__str_53
   03B4 E5                  928 	push	hl
                            929 ;	genCall
   03B5 CD 00 00            930 	call	_printf
   03B8 E8 02               931 	lda	sp,2(sp)
                            932 ;	IncludeCustom/MessageIntro.c 112
                            933 ;	genIpush
                            934 ; _saveRegsForCall: sendSetSize: 0 deInUse: 0 bcInUse: 0 deSending: 0
   03BA 21 64 00            935 	ld	hl,#0x0064
   03BD E5                  936 	push	hl
                            937 ;	genCall
   03BE CD 00 00            938 	call	_delay
   03C1 E8 02               939 	lda	sp,2(sp)
                            940 ;	IncludeCustom/MessageIntro.c 113
                            941 ;	genIpush
                            942 ; _saveRegsForCall: sendSetSize: 0 deInUse: 0 bcInUse: 0 deSending: 0
   03C3 21 6E 17            943 	ld	hl,#__str_54
   03C6 E5                  944 	push	hl
                            945 ;	genCall
   03C7 CD 00 00            946 	call	_printf
   03CA E8 02               947 	lda	sp,2(sp)
                            948 ;	IncludeCustom/MessageIntro.c 114
                            949 ;	genIpush
                            950 ; _saveRegsForCall: sendSetSize: 0 deInUse: 0 bcInUse: 0 deSending: 0
   03CC 21 64 00            951 	ld	hl,#0x0064
   03CF E5                  952 	push	hl
                            953 ;	genCall
   03D0 CD 00 00            954 	call	_delay
   03D3 E8 02               955 	lda	sp,2(sp)
                            956 ;	IncludeCustom/MessageIntro.c 115
                            957 ;	genIpush
                            958 ; _saveRegsForCall: sendSetSize: 0 deInUse: 0 bcInUse: 0 deSending: 0
   03D5 21 72 17            959 	ld	hl,#__str_55
   03D8 E5                  960 	push	hl
                            961 ;	genCall
   03D9 CD 00 00            962 	call	_printf
   03DC E8 02               963 	lda	sp,2(sp)
                            964 ;	IncludeCustom/MessageIntro.c 116
                            965 ;	genIpush
                            966 ; _saveRegsForCall: sendSetSize: 0 deInUse: 0 bcInUse: 0 deSending: 0
   03DE 21 64 00            967 	ld	hl,#0x0064
   03E1 E5                  968 	push	hl
                            969 ;	genCall
   03E2 CD 00 00            970 	call	_delay
   03E5 E8 02               971 	lda	sp,2(sp)
                            972 ;	IncludeCustom/MessageIntro.c 117
                            973 ;	genIpush
                            974 ; _saveRegsForCall: sendSetSize: 0 deInUse: 0 bcInUse: 0 deSending: 0
   03E7 21 74 17            975 	ld	hl,#__str_56
   03EA E5                  976 	push	hl
                            977 ;	genCall
   03EB CD 00 00            978 	call	_printf
   03EE E8 02               979 	lda	sp,2(sp)
                            980 ;	IncludeCustom/MessageIntro.c 118
                            981 ;	genIpush
                            982 ; _saveRegsForCall: sendSetSize: 0 deInUse: 0 bcInUse: 0 deSending: 0
   03F0 21 64 00            983 	ld	hl,#0x0064
   03F3 E5                  984 	push	hl
                            985 ;	genCall
   03F4 CD 00 00            986 	call	_delay
   03F7 E8 02               987 	lda	sp,2(sp)
                            988 ;	IncludeCustom/MessageIntro.c 119
                            989 ;	genIpush
                            990 ; _saveRegsForCall: sendSetSize: 0 deInUse: 0 bcInUse: 0 deSending: 0
   03F9 21 76 17            991 	ld	hl,#__str_57
   03FC E5                  992 	push	hl
                            993 ;	genCall
   03FD CD 00 00            994 	call	_printf
   0400 E8 02               995 	lda	sp,2(sp)
                            996 ;	IncludeCustom/MessageIntro.c 120
                            997 ;	genIpush
                            998 ; _saveRegsForCall: sendSetSize: 0 deInUse: 0 bcInUse: 0 deSending: 0
   0402 21 64 00            999 	ld	hl,#0x0064
   0405 E5                 1000 	push	hl
                           1001 ;	genCall
   0406 CD 00 00           1002 	call	_delay
   0409 E8 02              1003 	lda	sp,2(sp)
                           1004 ;	IncludeCustom/MessageIntro.c 121
                           1005 ;	genIpush
                           1006 ; _saveRegsForCall: sendSetSize: 0 deInUse: 0 bcInUse: 0 deSending: 0
   040B 21 78 17           1007 	ld	hl,#__str_58
   040E E5                 1008 	push	hl
                           1009 ;	genCall
   040F CD 00 00           1010 	call	_printf
   0412 E8 02              1011 	lda	sp,2(sp)
                           1012 ;	IncludeCustom/MessageIntro.c 122
                           1013 ;	genIpush
                           1014 ; _saveRegsForCall: sendSetSize: 0 deInUse: 0 bcInUse: 0 deSending: 0
   0414 21 64 00           1015 	ld	hl,#0x0064
   0417 E5                 1016 	push	hl
                           1017 ;	genCall
   0418 CD 00 00           1018 	call	_delay
   041B E8 02              1019 	lda	sp,2(sp)
                           1020 ;	IncludeCustom/MessageIntro.c 123
                           1021 ;	genIpush
                           1022 ; _saveRegsForCall: sendSetSize: 0 deInUse: 0 bcInUse: 0 deSending: 0
   041D 21 7A 17           1023 	ld	hl,#__str_59
   0420 E5                 1024 	push	hl
                           1025 ;	genCall
   0421 CD 00 00           1026 	call	_printf
   0424 E8 02              1027 	lda	sp,2(sp)
                           1028 ;	IncludeCustom/MessageIntro.c 124
                           1029 ;	genIpush
                           1030 ; _saveRegsForCall: sendSetSize: 0 deInUse: 0 bcInUse: 0 deSending: 0
   0426 21 64 00           1031 	ld	hl,#0x0064
   0429 E5                 1032 	push	hl
                           1033 ;	genCall
   042A CD 00 00           1034 	call	_delay
   042D E8 02              1035 	lda	sp,2(sp)
                           1036 ;	IncludeCustom/MessageIntro.c 125
                           1037 ;	genIpush
                           1038 ; _saveRegsForCall: sendSetSize: 0 deInUse: 0 bcInUse: 0 deSending: 0
   042F 21 7C 17           1039 	ld	hl,#__str_60
   0432 E5                 1040 	push	hl
                           1041 ;	genCall
   0433 CD 00 00           1042 	call	_printf
   0436 E8 02              1043 	lda	sp,2(sp)
                           1044 ;	IncludeCustom/MessageIntro.c 126
                           1045 ;	genIpush
                           1046 ; _saveRegsForCall: sendSetSize: 0 deInUse: 0 bcInUse: 0 deSending: 0
   0438 21 64 00           1047 	ld	hl,#0x0064
   043B E5                 1048 	push	hl
                           1049 ;	genCall
   043C CD 00 00           1050 	call	_delay
   043F E8 02              1051 	lda	sp,2(sp)
                           1052 ;	IncludeCustom/MessageIntro.c 127
                           1053 ;	genIpush
                           1054 ; _saveRegsForCall: sendSetSize: 0 deInUse: 0 bcInUse: 0 deSending: 0
   0441 21 7E 17           1055 	ld	hl,#__str_61
   0444 E5                 1056 	push	hl
                           1057 ;	genCall
   0445 CD 00 00           1058 	call	_printf
   0448 E8 02              1059 	lda	sp,2(sp)
                           1060 ;	IncludeCustom/MessageIntro.c 128
                           1061 ;	genIpush
                           1062 ; _saveRegsForCall: sendSetSize: 0 deInUse: 0 bcInUse: 0 deSending: 0
   044A 21 64 00           1063 	ld	hl,#0x0064
   044D E5                 1064 	push	hl
                           1065 ;	genCall
   044E CD 00 00           1066 	call	_delay
   0451 E8 02              1067 	lda	sp,2(sp)
                           1068 ;	IncludeCustom/MessageIntro.c 129
                           1069 ;	genIpush
                           1070 ; _saveRegsForCall: sendSetSize: 0 deInUse: 0 bcInUse: 0 deSending: 0
   0453 21 80 17           1071 	ld	hl,#__str_62
   0456 E5                 1072 	push	hl
                           1073 ;	genCall
   0457 CD 00 00           1074 	call	_printf
   045A E8 02              1075 	lda	sp,2(sp)
                           1076 ;	IncludeCustom/MessageIntro.c 130
                           1077 ;	genIpush
                           1078 ; _saveRegsForCall: sendSetSize: 0 deInUse: 0 bcInUse: 0 deSending: 0
   045C 21 64 00           1079 	ld	hl,#0x0064
   045F E5                 1080 	push	hl
                           1081 ;	genCall
   0460 CD 00 00           1082 	call	_delay
   0463 E8 02              1083 	lda	sp,2(sp)
                           1084 ;	IncludeCustom/MessageIntro.c 131
                           1085 ;	genIpush
                           1086 ; _saveRegsForCall: sendSetSize: 0 deInUse: 0 bcInUse: 0 deSending: 0
   0465 21 82 17           1087 	ld	hl,#__str_63
   0468 E5                 1088 	push	hl
                           1089 ;	genCall
   0469 CD 00 00           1090 	call	_printf
   046C E8 02              1091 	lda	sp,2(sp)
                           1092 ;	IncludeCustom/MessageIntro.c 132
                           1093 ;	genIpush
                           1094 ; _saveRegsForCall: sendSetSize: 0 deInUse: 0 bcInUse: 0 deSending: 0
   046E 21 64 00           1095 	ld	hl,#0x0064
   0471 E5                 1096 	push	hl
                           1097 ;	genCall
   0472 CD 00 00           1098 	call	_delay
   0475 E8 02              1099 	lda	sp,2(sp)
                           1100 ;	IncludeCustom/MessageIntro.c 133
                           1101 ;	genIpush
                           1102 ; _saveRegsForCall: sendSetSize: 0 deInUse: 0 bcInUse: 0 deSending: 0
   0477 21 84 17           1103 	ld	hl,#__str_64
   047A E5                 1104 	push	hl
                           1105 ;	genCall
   047B CD 00 00           1106 	call	_printf
   047E E8 02              1107 	lda	sp,2(sp)
                           1108 ;	IncludeCustom/MessageIntro.c 134
                           1109 ;	genIpush
                           1110 ; _saveRegsForCall: sendSetSize: 0 deInUse: 0 bcInUse: 0 deSending: 0
   0480 21 64 00           1111 	ld	hl,#0x0064
   0483 E5                 1112 	push	hl
                           1113 ;	genCall
   0484 CD 00 00           1114 	call	_delay
   0487 E8 02              1115 	lda	sp,2(sp)
                           1116 ;	IncludeCustom/MessageIntro.c 135
                           1117 ;	genIpush
                           1118 ; _saveRegsForCall: sendSetSize: 0 deInUse: 0 bcInUse: 0 deSending: 0
   0489 21 86 17           1119 	ld	hl,#__str_65
   048C E5                 1120 	push	hl
                           1121 ;	genCall
   048D CD 00 00           1122 	call	_printf
   0490 E8 02              1123 	lda	sp,2(sp)
                           1124 ;	IncludeCustom/MessageIntro.c 136
                           1125 ;	genIpush
                           1126 ; _saveRegsForCall: sendSetSize: 0 deInUse: 0 bcInUse: 0 deSending: 0
   0492 21 64 00           1127 	ld	hl,#0x0064
   0495 E5                 1128 	push	hl
                           1129 ;	genCall
   0496 CD 00 00           1130 	call	_delay
   0499 E8 02              1131 	lda	sp,2(sp)
                           1132 ;	IncludeCustom/MessageIntro.c 137
                           1133 ;	genIpush
                           1134 ; _saveRegsForCall: sendSetSize: 0 deInUse: 0 bcInUse: 0 deSending: 0
   049B 21 88 17           1135 	ld	hl,#__str_66
   049E E5                 1136 	push	hl
                           1137 ;	genCall
   049F CD 00 00           1138 	call	_printf
   04A2 E8 02              1139 	lda	sp,2(sp)
                           1140 ;	IncludeCustom/MessageIntro.c 138
                           1141 ;	genIpush
                           1142 ; _saveRegsForCall: sendSetSize: 0 deInUse: 0 bcInUse: 0 deSending: 0
   04A4 21 64 00           1143 	ld	hl,#0x0064
   04A7 E5                 1144 	push	hl
                           1145 ;	genCall
   04A8 CD 00 00           1146 	call	_delay
   04AB E8 02              1147 	lda	sp,2(sp)
                           1148 ;	IncludeCustom/MessageIntro.c 139
                           1149 ;	genIpush
                           1150 ; _saveRegsForCall: sendSetSize: 0 deInUse: 0 bcInUse: 0 deSending: 0
   04AD 21 8A 17           1151 	ld	hl,#__str_67
   04B0 E5                 1152 	push	hl
                           1153 ;	genCall
   04B1 CD 00 00           1154 	call	_printf
   04B4 E8 02              1155 	lda	sp,2(sp)
                           1156 ;	IncludeCustom/MessageIntro.c 140
                           1157 ;	genIpush
                           1158 ; _saveRegsForCall: sendSetSize: 0 deInUse: 0 bcInUse: 0 deSending: 0
   04B6 21 64 00           1159 	ld	hl,#0x0064
   04B9 E5                 1160 	push	hl
                           1161 ;	genCall
   04BA CD 00 00           1162 	call	_delay
   04BD E8 02              1163 	lda	sp,2(sp)
                           1164 ;	IncludeCustom/MessageIntro.c 141
                           1165 ;	genIpush
                           1166 ; _saveRegsForCall: sendSetSize: 0 deInUse: 0 bcInUse: 0 deSending: 0
   04BF 21 8C 17           1167 	ld	hl,#__str_68
   04C2 E5                 1168 	push	hl
                           1169 ;	genCall
   04C3 CD 00 00           1170 	call	_printf
   04C6 E8 02              1171 	lda	sp,2(sp)
                           1172 ;	IncludeCustom/MessageIntro.c 142
                           1173 ;	genIpush
                           1174 ; _saveRegsForCall: sendSetSize: 0 deInUse: 0 bcInUse: 0 deSending: 0
   04C8 21 64 00           1175 	ld	hl,#0x0064
   04CB E5                 1176 	push	hl
                           1177 ;	genCall
   04CC CD 00 00           1178 	call	_delay
   04CF E8 02              1179 	lda	sp,2(sp)
                           1180 ;	IncludeCustom/MessageIntro.c 143
                           1181 ;	genIpush
                           1182 ; _saveRegsForCall: sendSetSize: 0 deInUse: 0 bcInUse: 0 deSending: 0
   04D1 21 8E 17           1183 	ld	hl,#__str_69
   04D4 E5                 1184 	push	hl
                           1185 ;	genCall
   04D5 CD 00 00           1186 	call	_printf
   04D8 E8 02              1187 	lda	sp,2(sp)
                           1188 ;	IncludeCustom/MessageIntro.c 144
                           1189 ;	genIpush
                           1190 ; _saveRegsForCall: sendSetSize: 0 deInUse: 0 bcInUse: 0 deSending: 0
   04DA 21 64 00           1191 	ld	hl,#0x0064
   04DD E5                 1192 	push	hl
                           1193 ;	genCall
   04DE CD 00 00           1194 	call	_delay
   04E1 E8 02              1195 	lda	sp,2(sp)
                           1196 ;	IncludeCustom/MessageIntro.c 145
                           1197 ;	genIpush
                           1198 ; _saveRegsForCall: sendSetSize: 0 deInUse: 0 bcInUse: 0 deSending: 0
   04E3 21 90 17           1199 	ld	hl,#__str_70
   04E6 E5                 1200 	push	hl
                           1201 ;	genCall
   04E7 CD 00 00           1202 	call	_printf
   04EA E8 02              1203 	lda	sp,2(sp)
                           1204 ;	IncludeCustom/MessageIntro.c 146
                           1205 ;	genIpush
                           1206 ; _saveRegsForCall: sendSetSize: 0 deInUse: 0 bcInUse: 0 deSending: 0
   04EC 21 64 00           1207 	ld	hl,#0x0064
   04EF E5                 1208 	push	hl
                           1209 ;	genCall
   04F0 CD 00 00           1210 	call	_delay
   04F3 E8 02              1211 	lda	sp,2(sp)
                           1212 ;	IncludeCustom/MessageIntro.c 147
                           1213 ;	genIpush
                           1214 ; _saveRegsForCall: sendSetSize: 0 deInUse: 0 bcInUse: 0 deSending: 0
   04F5 21 94 17           1215 	ld	hl,#__str_71
   04F8 E5                 1216 	push	hl
                           1217 ;	genCall
   04F9 CD 00 00           1218 	call	_printf
   04FC E8 02              1219 	lda	sp,2(sp)
                           1220 ;	IncludeCustom/MessageIntro.c 148
                           1221 ;	genIpush
                           1222 ; _saveRegsForCall: sendSetSize: 0 deInUse: 0 bcInUse: 0 deSending: 0
   04FE 21 64 00           1223 	ld	hl,#0x0064
   0501 E5                 1224 	push	hl
                           1225 ;	genCall
   0502 CD 00 00           1226 	call	_delay
   0505 E8 02              1227 	lda	sp,2(sp)
                           1228 ;	IncludeCustom/MessageIntro.c 149
                           1229 ;	genIpush
                           1230 ; _saveRegsForCall: sendSetSize: 0 deInUse: 0 bcInUse: 0 deSending: 0
   0507 21 96 17           1231 	ld	hl,#__str_72
   050A E5                 1232 	push	hl
                           1233 ;	genCall
   050B CD 00 00           1234 	call	_printf
   050E E8 02              1235 	lda	sp,2(sp)
                           1236 ;	IncludeCustom/MessageIntro.c 150
                           1237 ;	genIpush
                           1238 ; _saveRegsForCall: sendSetSize: 0 deInUse: 0 bcInUse: 0 deSending: 0
   0510 21 64 00           1239 	ld	hl,#0x0064
   0513 E5                 1240 	push	hl
                           1241 ;	genCall
   0514 CD 00 00           1242 	call	_delay
   0517 E8 02              1243 	lda	sp,2(sp)
                           1244 ;	IncludeCustom/MessageIntro.c 151
                           1245 ;	genIpush
                           1246 ; _saveRegsForCall: sendSetSize: 0 deInUse: 0 bcInUse: 0 deSending: 0
   0519 21 98 17           1247 	ld	hl,#__str_73
   051C E5                 1248 	push	hl
                           1249 ;	genCall
   051D CD 00 00           1250 	call	_printf
   0520 E8 02              1251 	lda	sp,2(sp)
                           1252 ;	IncludeCustom/MessageIntro.c 152
                           1253 ;	genIpush
                           1254 ; _saveRegsForCall: sendSetSize: 0 deInUse: 0 bcInUse: 0 deSending: 0
   0522 21 64 00           1255 	ld	hl,#0x0064
   0525 E5                 1256 	push	hl
                           1257 ;	genCall
   0526 CD 00 00           1258 	call	_delay
   0529 E8 02              1259 	lda	sp,2(sp)
                           1260 ;	IncludeCustom/MessageIntro.c 153
                           1261 ;	genIpush
                           1262 ; _saveRegsForCall: sendSetSize: 0 deInUse: 0 bcInUse: 0 deSending: 0
   052B 21 9A 17           1263 	ld	hl,#__str_74
   052E E5                 1264 	push	hl
                           1265 ;	genCall
   052F CD 00 00           1266 	call	_printf
   0532 E8 02              1267 	lda	sp,2(sp)
                           1268 ;	IncludeCustom/MessageIntro.c 154
                           1269 ;	genIpush
                           1270 ; _saveRegsForCall: sendSetSize: 0 deInUse: 0 bcInUse: 0 deSending: 0
   0534 21 64 00           1271 	ld	hl,#0x0064
   0537 E5                 1272 	push	hl
                           1273 ;	genCall
   0538 CD 00 00           1274 	call	_delay
   053B E8 02              1275 	lda	sp,2(sp)
                           1276 ;	IncludeCustom/MessageIntro.c 155
                           1277 ;	genIpush
                           1278 ; _saveRegsForCall: sendSetSize: 0 deInUse: 0 bcInUse: 0 deSending: 0
   053D 21 9C 17           1279 	ld	hl,#__str_75
   0540 E5                 1280 	push	hl
                           1281 ;	genCall
   0541 CD 00 00           1282 	call	_printf
   0544 E8 02              1283 	lda	sp,2(sp)
                           1284 ;	IncludeCustom/MessageIntro.c 156
                           1285 ;	genIpush
                           1286 ; _saveRegsForCall: sendSetSize: 0 deInUse: 0 bcInUse: 0 deSending: 0
   0546 21 64 00           1287 	ld	hl,#0x0064
   0549 E5                 1288 	push	hl
                           1289 ;	genCall
   054A CD 00 00           1290 	call	_delay
   054D E8 02              1291 	lda	sp,2(sp)
                           1292 ;	IncludeCustom/MessageIntro.c 157
                           1293 ;	genIpush
                           1294 ; _saveRegsForCall: sendSetSize: 0 deInUse: 0 bcInUse: 0 deSending: 0
   054F 21 9E 17           1295 	ld	hl,#__str_76
   0552 E5                 1296 	push	hl
                           1297 ;	genCall
   0553 CD 00 00           1298 	call	_printf
   0556 E8 02              1299 	lda	sp,2(sp)
                           1300 ;	IncludeCustom/MessageIntro.c 158
                           1301 ;	genIpush
                           1302 ; _saveRegsForCall: sendSetSize: 0 deInUse: 0 bcInUse: 0 deSending: 0
   0558 21 64 00           1303 	ld	hl,#0x0064
   055B E5                 1304 	push	hl
                           1305 ;	genCall
   055C CD 00 00           1306 	call	_delay
   055F E8 02              1307 	lda	sp,2(sp)
                           1308 ;	IncludeCustom/MessageIntro.c 159
                           1309 ;	genIpush
                           1310 ; _saveRegsForCall: sendSetSize: 0 deInUse: 0 bcInUse: 0 deSending: 0
   0561 21 A0 17           1311 	ld	hl,#__str_77
   0564 E5                 1312 	push	hl
                           1313 ;	genCall
   0565 CD 00 00           1314 	call	_printf
   0568 E8 02              1315 	lda	sp,2(sp)
                           1316 ;	IncludeCustom/MessageIntro.c 160
                           1317 ;	genIpush
                           1318 ; _saveRegsForCall: sendSetSize: 0 deInUse: 0 bcInUse: 0 deSending: 0
   056A 21 64 00           1319 	ld	hl,#0x0064
   056D E5                 1320 	push	hl
                           1321 ;	genCall
   056E CD 00 00           1322 	call	_delay
   0571 E8 02              1323 	lda	sp,2(sp)
                           1324 ;	IncludeCustom/MessageIntro.c 161
                           1325 ;	genIpush
                           1326 ; _saveRegsForCall: sendSetSize: 0 deInUse: 0 bcInUse: 0 deSending: 0
   0573 21 A2 17           1327 	ld	hl,#__str_78
   0576 E5                 1328 	push	hl
                           1329 ;	genCall
   0577 CD 00 00           1330 	call	_printf
   057A E8 02              1331 	lda	sp,2(sp)
                           1332 ;	IncludeCustom/MessageIntro.c 162
                           1333 ;	genIpush
                           1334 ; _saveRegsForCall: sendSetSize: 0 deInUse: 0 bcInUse: 0 deSending: 0
   057C 21 64 00           1335 	ld	hl,#0x0064
   057F E5                 1336 	push	hl
                           1337 ;	genCall
   0580 CD 00 00           1338 	call	_delay
   0583 E8 02              1339 	lda	sp,2(sp)
                           1340 ;	IncludeCustom/MessageIntro.c 163
                           1341 ;	genIpush
                           1342 ; _saveRegsForCall: sendSetSize: 0 deInUse: 0 bcInUse: 0 deSending: 0
   0585 21 A4 17           1343 	ld	hl,#__str_79
   0588 E5                 1344 	push	hl
                           1345 ;	genCall
   0589 CD 00 00           1346 	call	_printf
   058C E8 02              1347 	lda	sp,2(sp)
                           1348 ;	IncludeCustom/MessageIntro.c 164
                           1349 ;	genIpush
                           1350 ; _saveRegsForCall: sendSetSize: 0 deInUse: 0 bcInUse: 0 deSending: 0
   058E 21 64 00           1351 	ld	hl,#0x0064
   0591 E5                 1352 	push	hl
                           1353 ;	genCall
   0592 CD 00 00           1354 	call	_delay
   0595 E8 02              1355 	lda	sp,2(sp)
                           1356 ;	IncludeCustom/MessageIntro.c 165
                           1357 ;	genIpush
                           1358 ; _saveRegsForCall: sendSetSize: 0 deInUse: 0 bcInUse: 0 deSending: 0
   0597 21 A6 17           1359 	ld	hl,#__str_80
   059A E5                 1360 	push	hl
                           1361 ;	genCall
   059B CD 00 00           1362 	call	_printf
   059E E8 02              1363 	lda	sp,2(sp)
                           1364 ;	IncludeCustom/MessageIntro.c 166
                           1365 ;	genIpush
                           1366 ; _saveRegsForCall: sendSetSize: 0 deInUse: 0 bcInUse: 0 deSending: 0
   05A0 21 64 00           1367 	ld	hl,#0x0064
   05A3 E5                 1368 	push	hl
                           1369 ;	genCall
   05A4 CD 00 00           1370 	call	_delay
   05A7 E8 02              1371 	lda	sp,2(sp)
                           1372 ;	IncludeCustom/MessageIntro.c 167
                           1373 ;	genIpush
                           1374 ; _saveRegsForCall: sendSetSize: 0 deInUse: 0 bcInUse: 0 deSending: 0
   05A9 21 A8 17           1375 	ld	hl,#__str_81
   05AC E5                 1376 	push	hl
                           1377 ;	genCall
   05AD CD 00 00           1378 	call	_printf
   05B0 E8 02              1379 	lda	sp,2(sp)
                           1380 ;	IncludeCustom/MessageIntro.c 168
                           1381 ;	genIpush
                           1382 ; _saveRegsForCall: sendSetSize: 0 deInUse: 0 bcInUse: 0 deSending: 0
   05B2 21 64 00           1383 	ld	hl,#0x0064
   05B5 E5                 1384 	push	hl
                           1385 ;	genCall
   05B6 CD 00 00           1386 	call	_delay
   05B9 E8 02              1387 	lda	sp,2(sp)
                           1388 ;	IncludeCustom/MessageIntro.c 169
                           1389 ;	genIpush
                           1390 ; _saveRegsForCall: sendSetSize: 0 deInUse: 0 bcInUse: 0 deSending: 0
   05BB 21 AA 17           1391 	ld	hl,#__str_82
   05BE E5                 1392 	push	hl
                           1393 ;	genCall
   05BF CD 00 00           1394 	call	_printf
   05C2 E8 02              1395 	lda	sp,2(sp)
                           1396 ;	IncludeCustom/MessageIntro.c 170
                           1397 ;	genIpush
                           1398 ; _saveRegsForCall: sendSetSize: 0 deInUse: 0 bcInUse: 0 deSending: 0
   05C4 21 64 00           1399 	ld	hl,#0x0064
   05C7 E5                 1400 	push	hl
                           1401 ;	genCall
   05C8 CD 00 00           1402 	call	_delay
   05CB E8 02              1403 	lda	sp,2(sp)
                           1404 ;	IncludeCustom/MessageIntro.c 171
                           1405 ;	genIpush
                           1406 ; _saveRegsForCall: sendSetSize: 0 deInUse: 0 bcInUse: 0 deSending: 0
   05CD 21 AC 17           1407 	ld	hl,#__str_83
   05D0 E5                 1408 	push	hl
                           1409 ;	genCall
   05D1 CD 00 00           1410 	call	_printf
   05D4 E8 02              1411 	lda	sp,2(sp)
                           1412 ;	IncludeCustom/MessageIntro.c 172
                           1413 ;	genIpush
                           1414 ; _saveRegsForCall: sendSetSize: 0 deInUse: 0 bcInUse: 0 deSending: 0
   05D6 21 64 00           1415 	ld	hl,#0x0064
   05D9 E5                 1416 	push	hl
                           1417 ;	genCall
   05DA CD 00 00           1418 	call	_delay
   05DD E8 02              1419 	lda	sp,2(sp)
                           1420 ;	IncludeCustom/MessageIntro.c 173
                           1421 ;	genIpush
                           1422 ; _saveRegsForCall: sendSetSize: 0 deInUse: 0 bcInUse: 0 deSending: 0
   05DF 21 AE 17           1423 	ld	hl,#__str_84
   05E2 E5                 1424 	push	hl
                           1425 ;	genCall
   05E3 CD 00 00           1426 	call	_printf
   05E6 E8 02              1427 	lda	sp,2(sp)
                           1428 ;	IncludeCustom/MessageIntro.c 174
                           1429 ;	genIpush
                           1430 ; _saveRegsForCall: sendSetSize: 0 deInUse: 0 bcInUse: 0 deSending: 0
   05E8 21 64 00           1431 	ld	hl,#0x0064
   05EB E5                 1432 	push	hl
                           1433 ;	genCall
   05EC CD 00 00           1434 	call	_delay
   05EF E8 02              1435 	lda	sp,2(sp)
                           1436 ;	IncludeCustom/MessageIntro.c 175
                           1437 ;	genIpush
                           1438 ; _saveRegsForCall: sendSetSize: 0 deInUse: 0 bcInUse: 0 deSending: 0
   05F1 21 B0 17           1439 	ld	hl,#__str_85
   05F4 E5                 1440 	push	hl
                           1441 ;	genCall
   05F5 CD 00 00           1442 	call	_printf
   05F8 E8 02              1443 	lda	sp,2(sp)
                           1444 ;	IncludeCustom/MessageIntro.c 176
                           1445 ;	genIpush
                           1446 ; _saveRegsForCall: sendSetSize: 0 deInUse: 0 bcInUse: 0 deSending: 0
   05FA 21 64 00           1447 	ld	hl,#0x0064
   05FD E5                 1448 	push	hl
                           1449 ;	genCall
   05FE CD 00 00           1450 	call	_delay
   0601 E8 02              1451 	lda	sp,2(sp)
                           1452 ;	IncludeCustom/MessageIntro.c 177
                           1453 ;	genIpush
                           1454 ; _saveRegsForCall: sendSetSize: 0 deInUse: 0 bcInUse: 0 deSending: 0
   0603 21 B2 17           1455 	ld	hl,#__str_86
   0606 E5                 1456 	push	hl
                           1457 ;	genCall
   0607 CD 00 00           1458 	call	_printf
   060A E8 02              1459 	lda	sp,2(sp)
                           1460 ;	IncludeCustom/MessageIntro.c 178
                           1461 ;	genIpush
                           1462 ; _saveRegsForCall: sendSetSize: 0 deInUse: 0 bcInUse: 0 deSending: 0
   060C 21 64 00           1463 	ld	hl,#0x0064
   060F E5                 1464 	push	hl
                           1465 ;	genCall
   0610 CD 00 00           1466 	call	_delay
   0613 E8 02              1467 	lda	sp,2(sp)
                           1468 ;	IncludeCustom/MessageIntro.c 179
                           1469 ;	genIpush
                           1470 ; _saveRegsForCall: sendSetSize: 0 deInUse: 0 bcInUse: 0 deSending: 0
   0615 21 B4 17           1471 	ld	hl,#__str_87
   0618 E5                 1472 	push	hl
                           1473 ;	genCall
   0619 CD 00 00           1474 	call	_printf
   061C E8 02              1475 	lda	sp,2(sp)
                           1476 ;	IncludeCustom/MessageIntro.c 180
                           1477 ;	genIpush
                           1478 ; _saveRegsForCall: sendSetSize: 0 deInUse: 0 bcInUse: 0 deSending: 0
   061E 21 64 00           1479 	ld	hl,#0x0064
   0621 E5                 1480 	push	hl
                           1481 ;	genCall
   0622 CD 00 00           1482 	call	_delay
   0625 E8 02              1483 	lda	sp,2(sp)
                           1484 ;	IncludeCustom/MessageIntro.c 181
                           1485 ;	genIpush
                           1486 ; _saveRegsForCall: sendSetSize: 0 deInUse: 0 bcInUse: 0 deSending: 0
   0627 21 B6 17           1487 	ld	hl,#__str_88
   062A E5                 1488 	push	hl
                           1489 ;	genCall
   062B CD 00 00           1490 	call	_printf
   062E E8 02              1491 	lda	sp,2(sp)
                           1492 ;	IncludeCustom/MessageIntro.c 182
                           1493 ;	genIpush
                           1494 ; _saveRegsForCall: sendSetSize: 0 deInUse: 0 bcInUse: 0 deSending: 0
   0630 21 64 00           1495 	ld	hl,#0x0064
   0633 E5                 1496 	push	hl
                           1497 ;	genCall
   0634 CD 00 00           1498 	call	_delay
   0637 E8 02              1499 	lda	sp,2(sp)
                           1500 ;	genLabel
   0639                    1501 00101$:
                           1502 ;	genEndFunction
                           1503 	
   0639 C9                 1504 	ret
   063A                    1505 ___messageIntroPart1_end:
   063A                    1506 _TitleScreenTiles:
   063A 00                 1507 	.db #0x00
   063B 00                 1508 	.db #0x00
   063C 00                 1509 	.db #0x00
   063D 00                 1510 	.db #0x00
   063E 00                 1511 	.db #0x00
   063F 00                 1512 	.db #0x00
   0640 00                 1513 	.db #0x00
   0641 00                 1514 	.db #0x00
   0642 00                 1515 	.db #0x00
   0643 00                 1516 	.db #0x00
   0644 00                 1517 	.db #0x00
   0645 00                 1518 	.db #0x00
   0646 00                 1519 	.db #0x00
   0647 00                 1520 	.db #0x00
   0648 00                 1521 	.db #0x00
   0649 00                 1522 	.db #0x00
   064A 00                 1523 	.db #0x00
   064B 00                 1524 	.db #0x00
   064C 00                 1525 	.db #0x00
   064D 00                 1526 	.db #0x00
   064E 00                 1527 	.db #0x00
   064F 00                 1528 	.db #0x00
   0650 00                 1529 	.db #0x00
   0651 00                 1530 	.db #0x00
   0652 00                 1531 	.db #0x00
   0653 00                 1532 	.db #0x00
   0654 00                 1533 	.db #0x00
   0655 00                 1534 	.db #0x00
   0656 00                 1535 	.db #0x00
   0657 00                 1536 	.db #0x00
   0658 00                 1537 	.db #0x00
   0659 00                 1538 	.db #0x00
   065A 00                 1539 	.db #0x00
   065B 00                 1540 	.db #0x00
   065C 00                 1541 	.db #0x00
   065D 00                 1542 	.db #0x00
   065E 00                 1543 	.db #0x00
   065F 00                 1544 	.db #0x00
   0660 00                 1545 	.db #0x00
   0661 00                 1546 	.db #0x00
   0662 00                 1547 	.db #0x00
   0663 00                 1548 	.db #0x00
   0664 00                 1549 	.db #0x00
   0665 00                 1550 	.db #0x00
   0666 00                 1551 	.db #0x00
   0667 00                 1552 	.db #0x00
   0668 00                 1553 	.db #0x00
   0669 00                 1554 	.db #0x00
   066A 00                 1555 	.db #0x00
   066B 00                 1556 	.db #0x00
   066C 00                 1557 	.db #0x00
   066D 00                 1558 	.db #0x00
   066E 00                 1559 	.db #0x00
   066F 00                 1560 	.db #0x00
   0670 00                 1561 	.db #0x00
   0671 00                 1562 	.db #0x00
   0672 00                 1563 	.db #0x00
   0673 00                 1564 	.db #0x00
   0674 00                 1565 	.db #0x00
   0675 00                 1566 	.db #0x00
   0676 03                 1567 	.db #0x03
   0677 03                 1568 	.db #0x03
   0678 03                 1569 	.db #0x03
   0679 03                 1570 	.db #0x03
   067A 00                 1571 	.db #0x00
   067B 00                 1572 	.db #0x00
   067C 00                 1573 	.db #0x00
   067D 00                 1574 	.db #0x00
   067E 00                 1575 	.db #0x00
   067F 00                 1576 	.db #0x00
   0680 00                 1577 	.db #0x00
   0681 00                 1578 	.db #0x00
   0682 00                 1579 	.db #0x00
   0683 00                 1580 	.db #0x00
   0684 00                 1581 	.db #0x00
   0685 00                 1582 	.db #0x00
   0686 00                 1583 	.db #0x00
   0687 00                 1584 	.db #0x00
   0688 00                 1585 	.db #0x00
   0689 00                 1586 	.db #0x00
   068A 00                 1587 	.db #0x00
   068B 00                 1588 	.db #0x00
   068C 00                 1589 	.db #0x00
   068D 00                 1590 	.db #0x00
   068E 00                 1591 	.db #0x00
   068F 00                 1592 	.db #0x00
   0690 00                 1593 	.db #0x00
   0691 00                 1594 	.db #0x00
   0692 00                 1595 	.db #0x00
   0693 00                 1596 	.db #0x00
   0694 00                 1597 	.db #0x00
   0695 00                 1598 	.db #0x00
   0696 00                 1599 	.db #0x00
   0697 00                 1600 	.db #0x00
   0698 00                 1601 	.db #0x00
   0699 00                 1602 	.db #0x00
   069A 07                 1603 	.db #0x07
   069B 07                 1604 	.db #0x07
   069C 0F                 1605 	.db #0x0F
   069D 0F                 1606 	.db #0x0F
   069E 1F                 1607 	.db #0x1F
   069F 1F                 1608 	.db #0x1F
   06A0 1F                 1609 	.db #0x1F
   06A1 1F                 1610 	.db #0x1F
   06A2 1F                 1611 	.db #0x1F
   06A3 1F                 1612 	.db #0x1F
   06A4 3F                 1613 	.db #0x3F
   06A5 3F                 1614 	.db #0x3F
   06A6 3F                 1615 	.db #0x3F
   06A7 3F                 1616 	.db #0x3F
   06A8 3F                 1617 	.db #0x3F
   06A9 3F                 1618 	.db #0x3F
   06AA 7F                 1619 	.db #0x7F
   06AB 7F                 1620 	.db #0x7F
   06AC 78                 1621 	.db #0x78
   06AD 78                 1622 	.db #0x78
   06AE 70                 1623 	.db #0x70
   06AF 70                 1624 	.db #0x70
   06B0 00                 1625 	.db #0x00
   06B1 00                 1626 	.db #0x00
   06B2 00                 1627 	.db #0x00
   06B3 00                 1628 	.db #0x00
   06B4 00                 1629 	.db #0x00
   06B5 00                 1630 	.db #0x00
   06B6 00                 1631 	.db #0x00
   06B7 00                 1632 	.db #0x00
   06B8 00                 1633 	.db #0x00
   06B9 00                 1634 	.db #0x00
   06BA 00                 1635 	.db #0x00
   06BB 00                 1636 	.db #0x00
   06BC 00                 1637 	.db #0x00
   06BD 00                 1638 	.db #0x00
   06BE 00                 1639 	.db #0x00
   06BF 00                 1640 	.db #0x00
   06C0 00                 1641 	.db #0x00
   06C1 00                 1642 	.db #0x00
   06C2 00                 1643 	.db #0x00
   06C3 00                 1644 	.db #0x00
   06C4 00                 1645 	.db #0x00
   06C5 00                 1646 	.db #0x00
   06C6 00                 1647 	.db #0x00
   06C7 00                 1648 	.db #0x00
   06C8 00                 1649 	.db #0x00
   06C9 00                 1650 	.db #0x00
   06CA 00                 1651 	.db #0x00
   06CB 00                 1652 	.db #0x00
   06CC 00                 1653 	.db #0x00
   06CD 00                 1654 	.db #0x00
   06CE 01                 1655 	.db #0x01
   06CF 01                 1656 	.db #0x01
   06D0 0F                 1657 	.db #0x0F
   06D1 0F                 1658 	.db #0x0F
   06D2 7F                 1659 	.db #0x7F
   06D3 7F                 1660 	.db #0x7F
   06D4 FF                 1661 	.db #0xFF
   06D5 FF                 1662 	.db #0xFF
   06D6 FF                 1663 	.db #0xFF
   06D7 FF                 1664 	.db #0xFF
   06D8 FF                 1665 	.db #0xFF
   06D9 FF                 1666 	.db #0xFF
   06DA 00                 1667 	.db #0x00
   06DB 00                 1668 	.db #0x00
   06DC 00                 1669 	.db #0x00
   06DD 00                 1670 	.db #0x00
   06DE 00                 1671 	.db #0x00
   06DF 00                 1672 	.db #0x00
   06E0 00                 1673 	.db #0x00
   06E1 00                 1674 	.db #0x00
   06E2 00                 1675 	.db #0x00
   06E3 00                 1676 	.db #0x00
   06E4 00                 1677 	.db #0x00
   06E5 00                 1678 	.db #0x00
   06E6 00                 1679 	.db #0x00
   06E7 00                 1680 	.db #0x00
   06E8 00                 1681 	.db #0x00
   06E9 00                 1682 	.db #0x00
   06EA 00                 1683 	.db #0x00
   06EB 00                 1684 	.db #0x00
   06EC 00                 1685 	.db #0x00
   06ED 00                 1686 	.db #0x00
   06EE F0                 1687 	.db #0xF0
   06EF F0                 1688 	.db #0xF0
   06F0 FF                 1689 	.db #0xFF
   06F1 FF                 1690 	.db #0xFF
   06F2 FF                 1691 	.db #0xFF
   06F3 FF                 1692 	.db #0xFF
   06F4 FF                 1693 	.db #0xFF
   06F5 FF                 1694 	.db #0xFF
   06F6 FF                 1695 	.db #0xFF
   06F7 FF                 1696 	.db #0xFF
   06F8 FF                 1697 	.db #0xFF
   06F9 FF                 1698 	.db #0xFF
   06FA FF                 1699 	.db #0xFF
   06FB FF                 1700 	.db #0xFF
   06FC FF                 1701 	.db #0xFF
   06FD FF                 1702 	.db #0xFF
   06FE FF                 1703 	.db #0xFF
   06FF FF                 1704 	.db #0xFF
   0700 FF                 1705 	.db #0xFF
   0701 FF                 1706 	.db #0xFF
   0702 FF                 1707 	.db #0xFF
   0703 FF                 1708 	.db #0xFF
   0704 FF                 1709 	.db #0xFF
   0705 FF                 1710 	.db #0xFF
   0706 FF                 1711 	.db #0xFF
   0707 FF                 1712 	.db #0xFF
   0708 E7                 1713 	.db #0xE7
   0709 E7                 1714 	.db #0xE7
   070A 87                 1715 	.db #0x87
   070B 87                 1716 	.db #0x87
   070C 0F                 1717 	.db #0x0F
   070D 0F                 1718 	.db #0x0F
   070E 0F                 1719 	.db #0x0F
   070F 0F                 1720 	.db #0x0F
   0710 1F                 1721 	.db #0x1F
   0711 1F                 1722 	.db #0x1F
   0712 1F                 1723 	.db #0x1F
   0713 1F                 1724 	.db #0x1F
   0714 1F                 1725 	.db #0x1F
   0715 1F                 1726 	.db #0x1F
   0716 3F                 1727 	.db #0x3F
   0717 3F                 1728 	.db #0x3F
   0718 3F                 1729 	.db #0x3F
   0719 3F                 1730 	.db #0x3F
   071A FF                 1731 	.db #0xFF
   071B FF                 1732 	.db #0xFF
   071C FF                 1733 	.db #0xFF
   071D FF                 1734 	.db #0xFF
   071E FF                 1735 	.db #0xFF
   071F FF                 1736 	.db #0xFF
   0720 FF                 1737 	.db #0xFF
   0721 FF                 1738 	.db #0xFF
   0722 FF                 1739 	.db #0xFF
   0723 FF                 1740 	.db #0xFF
   0724 FF                 1741 	.db #0xFF
   0725 FF                 1742 	.db #0xFF
   0726 FF                 1743 	.db #0xFF
   0727 FF                 1744 	.db #0xFF
   0728 FF                 1745 	.db #0xFF
   0729 FF                 1746 	.db #0xFF
   072A FF                 1747 	.db #0xFF
   072B FF                 1748 	.db #0xFF
   072C FF                 1749 	.db #0xFF
   072D FF                 1750 	.db #0xFF
   072E FF                 1751 	.db #0xFF
   072F FF                 1752 	.db #0xFF
   0730 FF                 1753 	.db #0xFF
   0731 FF                 1754 	.db #0xFF
   0732 FF                 1755 	.db #0xFF
   0733 FF                 1756 	.db #0xFF
   0734 F8                 1757 	.db #0xF8
   0735 F8                 1758 	.db #0xF8
   0736 E3                 1759 	.db #0xE3
   0737 E3                 1760 	.db #0xE3
   0738 DF                 1761 	.db #0xDF
   0739 DF                 1762 	.db #0xDF
   073A 00                 1763 	.db #0x00
   073B 00                 1764 	.db #0x00
   073C 00                 1765 	.db #0x00
   073D 00                 1766 	.db #0x00
   073E 00                 1767 	.db #0x00
   073F 00                 1768 	.db #0x00
   0740 00                 1769 	.db #0x00
   0741 00                 1770 	.db #0x00
   0742 00                 1771 	.db #0x00
   0743 00                 1772 	.db #0x00
   0744 00                 1773 	.db #0x00
   0745 00                 1774 	.db #0x00
   0746 00                 1775 	.db #0x00
   0747 00                 1776 	.db #0x00
   0748 00                 1777 	.db #0x00
   0749 00                 1778 	.db #0x00
   074A 00                 1779 	.db #0x00
   074B 00                 1780 	.db #0x00
   074C 00                 1781 	.db #0x00
   074D 00                 1782 	.db #0x00
   074E 00                 1783 	.db #0x00
   074F 00                 1784 	.db #0x00
   0750 C0                 1785 	.db #0xC0
   0751 C0                 1786 	.db #0xC0
   0752 F8                 1787 	.db #0xF8
   0753 F8                 1788 	.db #0xF8
   0754 FE                 1789 	.db #0xFE
   0755 FE                 1790 	.db #0xFE
   0756 FF                 1791 	.db #0xFF
   0757 FF                 1792 	.db #0xFF
   0758 FF                 1793 	.db #0xFF
   0759 FF                 1794 	.db #0xFF
   075A 00                 1795 	.db #0x00
   075B 00                 1796 	.db #0x00
   075C 00                 1797 	.db #0x00
   075D 00                 1798 	.db #0x00
   075E 00                 1799 	.db #0x00
   075F 00                 1800 	.db #0x00
   0760 00                 1801 	.db #0x00
   0761 00                 1802 	.db #0x00
   0762 00                 1803 	.db #0x00
   0763 00                 1804 	.db #0x00
   0764 00                 1805 	.db #0x00
   0765 00                 1806 	.db #0x00
   0766 00                 1807 	.db #0x00
   0767 00                 1808 	.db #0x00
   0768 00                 1809 	.db #0x00
   0769 00                 1810 	.db #0x00
   076A 00                 1811 	.db #0x00
   076B 00                 1812 	.db #0x00
   076C 00                 1813 	.db #0x00
   076D 00                 1814 	.db #0x00
   076E 00                 1815 	.db #0x00
   076F 00                 1816 	.db #0x00
   0770 00                 1817 	.db #0x00
   0771 00                 1818 	.db #0x00
   0772 00                 1819 	.db #0x00
   0773 00                 1820 	.db #0x00
   0774 00                 1821 	.db #0x00
   0775 00                 1822 	.db #0x00
   0776 80                 1823 	.db #0x80
   0777 80                 1824 	.db #0x80
   0778 E0                 1825 	.db #0xE0
   0779 E0                 1826 	.db #0xE0
   077A FF                 1827 	.db #0xFF
   077B FF                 1828 	.db #0xFF
   077C FF                 1829 	.db #0xFF
   077D FF                 1830 	.db #0xFF
   077E FF                 1831 	.db #0xFF
   077F FF                 1832 	.db #0xFF
   0780 FF                 1833 	.db #0xFF
   0781 FF                 1834 	.db #0xFF
   0782 FF                 1835 	.db #0xFF
   0783 FF                 1836 	.db #0xFF
   0784 FF                 1837 	.db #0xFF
   0785 FF                 1838 	.db #0xFF
   0786 FF                 1839 	.db #0xFF
   0787 FF                 1840 	.db #0xFF
   0788 FF                 1841 	.db #0xFF
   0789 FF                 1842 	.db #0xFF
   078A FF                 1843 	.db #0xFF
   078B FF                 1844 	.db #0xFF
   078C FF                 1845 	.db #0xFF
   078D FF                 1846 	.db #0xFF
   078E FF                 1847 	.db #0xFF
   078F FF                 1848 	.db #0xFF
   0790 FF                 1849 	.db #0xFF
   0791 FF                 1850 	.db #0xFF
   0792 1F                 1851 	.db #0x1F
   0793 1F                 1852 	.db #0x1F
   0794 7F                 1853 	.db #0x7F
   0795 7F                 1854 	.db #0x7F
   0796 FF                 1855 	.db #0xFF
   0797 FF                 1856 	.db #0xFF
   0798 FF                 1857 	.db #0xFF
   0799 FF                 1858 	.db #0xFF
   079A F0                 1859 	.db #0xF0
   079B F0                 1860 	.db #0xF0
   079C FC                 1861 	.db #0xFC
   079D FC                 1862 	.db #0xFC
   079E FF                 1863 	.db #0xFF
   079F FF                 1864 	.db #0xFF
   07A0 FF                 1865 	.db #0xFF
   07A1 FF                 1866 	.db #0xFF
   07A2 FF                 1867 	.db #0xFF
   07A3 FF                 1868 	.db #0xFF
   07A4 FF                 1869 	.db #0xFF
   07A5 FF                 1870 	.db #0xFF
   07A6 FF                 1871 	.db #0xFF
   07A7 FF                 1872 	.db #0xFF
   07A8 FF                 1873 	.db #0xFF
   07A9 FF                 1874 	.db #0xFF
   07AA FF                 1875 	.db #0xFF
   07AB FF                 1876 	.db #0xFF
   07AC FF                 1877 	.db #0xFF
   07AD FF                 1878 	.db #0xFF
   07AE FF                 1879 	.db #0xFF
   07AF FF                 1880 	.db #0xFF
   07B0 FF                 1881 	.db #0xFF
   07B1 FF                 1882 	.db #0xFF
   07B2 FF                 1883 	.db #0xFF
   07B3 FF                 1884 	.db #0xFF
   07B4 FF                 1885 	.db #0xFF
   07B5 FF                 1886 	.db #0xFF
   07B6 FC                 1887 	.db #0xFC
   07B7 FC                 1888 	.db #0xFC
   07B8 F0                 1889 	.db #0xF0
   07B9 F0                 1890 	.db #0xF0
   07BA 00                 1891 	.db #0x00
   07BB 00                 1892 	.db #0x00
   07BC 00                 1893 	.db #0x00
   07BD 00                 1894 	.db #0x00
   07BE 00                 1895 	.db #0x00
   07BF 00                 1896 	.db #0x00
   07C0 00                 1897 	.db #0x00
   07C1 00                 1898 	.db #0x00
   07C2 00                 1899 	.db #0x00
   07C3 00                 1900 	.db #0x00
   07C4 00                 1901 	.db #0x00
   07C5 00                 1902 	.db #0x00
   07C6 00                 1903 	.db #0x00
   07C7 00                 1904 	.db #0x00
   07C8 00                 1905 	.db #0x00
   07C9 00                 1906 	.db #0x00
   07CA 00                 1907 	.db #0x00
   07CB 00                 1908 	.db #0x00
   07CC 00                 1909 	.db #0x00
   07CD 00                 1910 	.db #0x00
   07CE 00                 1911 	.db #0x00
   07CF 00                 1912 	.db #0x00
   07D0 00                 1913 	.db #0x00
   07D1 00                 1914 	.db #0x00
   07D2 00                 1915 	.db #0x00
   07D3 00                 1916 	.db #0x00
   07D4 00                 1917 	.db #0x00
   07D5 00                 1918 	.db #0x00
   07D6 00                 1919 	.db #0x00
   07D7 00                 1920 	.db #0x00
   07D8 00                 1921 	.db #0x00
   07D9 00                 1922 	.db #0x00
   07DA 00                 1923 	.db #0x00
   07DB 00                 1924 	.db #0x00
   07DC 00                 1925 	.db #0x00
   07DD 00                 1926 	.db #0x00
   07DE 00                 1927 	.db #0x00
   07DF 00                 1928 	.db #0x00
   07E0 00                 1929 	.db #0x00
   07E1 00                 1930 	.db #0x00
   07E2 00                 1931 	.db #0x00
   07E3 00                 1932 	.db #0x00
   07E4 00                 1933 	.db #0x00
   07E5 00                 1934 	.db #0x00
   07E6 00                 1935 	.db #0x00
   07E7 00                 1936 	.db #0x00
   07E8 00                 1937 	.db #0x00
   07E9 00                 1938 	.db #0x00
   07EA 00                 1939 	.db #0x00
   07EB 00                 1940 	.db #0x00
   07EC 01                 1941 	.db #0x01
   07ED 01                 1942 	.db #0x01
   07EE 03                 1943 	.db #0x03
   07EF 03                 1944 	.db #0x03
   07F0 07                 1945 	.db #0x07
   07F1 07                 1946 	.db #0x07
   07F2 07                 1947 	.db #0x07
   07F3 07                 1948 	.db #0x07
   07F4 0F                 1949 	.db #0x0F
   07F5 0F                 1950 	.db #0x0F
   07F6 1F                 1951 	.db #0x1F
   07F7 1F                 1952 	.db #0x1F
   07F8 1F                 1953 	.db #0x1F
   07F9 1F                 1954 	.db #0x1F
   07FA 00                 1955 	.db #0x00
   07FB 00                 1956 	.db #0x00
   07FC 00                 1957 	.db #0x00
   07FD 00                 1958 	.db #0x00
   07FE 00                 1959 	.db #0x00
   07FF 00                 1960 	.db #0x00
   0800 E0                 1961 	.db #0xE0
   0801 E0                 1962 	.db #0xE0
   0802 FF                 1963 	.db #0xFF
   0803 FF                 1964 	.db #0xFF
   0804 FF                 1965 	.db #0xFF
   0805 FF                 1966 	.db #0xFF
   0806 FF                 1967 	.db #0xFF
   0807 FF                 1968 	.db #0xFF
   0808 FF                 1969 	.db #0xFF
   0809 FF                 1970 	.db #0xFF
   080A FF                 1971 	.db #0xFF
   080B FF                 1972 	.db #0xFF
   080C FF                 1973 	.db #0xFF
   080D FF                 1974 	.db #0xFF
   080E FF                 1975 	.db #0xFF
   080F FF                 1976 	.db #0xFF
   0810 FF                 1977 	.db #0xFF
   0811 FF                 1978 	.db #0xFF
   0812 FF                 1979 	.db #0xFF
   0813 FF                 1980 	.db #0xFF
   0814 FF                 1981 	.db #0xFF
   0815 FF                 1982 	.db #0xFF
   0816 07                 1983 	.db #0x07
   0817 07                 1984 	.db #0x07
   0818 0F                 1985 	.db #0x0F
   0819 0F                 1986 	.db #0x0F
   081A 3F                 1987 	.db #0x3F
   081B 3F                 1988 	.db #0x3F
   081C 3F                 1989 	.db #0x3F
   081D 3F                 1990 	.db #0x3F
   081E 7F                 1991 	.db #0x7F
   081F 7F                 1992 	.db #0x7F
   0820 FF                 1993 	.db #0xFF
   0821 FF                 1994 	.db #0xFF
   0822 FF                 1995 	.db #0xFF
   0823 FF                 1996 	.db #0xFF
   0824 FF                 1997 	.db #0xFF
   0825 FF                 1998 	.db #0xFF
   0826 FF                 1999 	.db #0xFF
   0827 FF                 2000 	.db #0xFF
   0828 FF                 2001 	.db #0xFF
   0829 FF                 2002 	.db #0xFF
   082A FF                 2003 	.db #0xFF
   082B FF                 2004 	.db #0xFF
   082C FF                 2005 	.db #0xFF
   082D FF                 2006 	.db #0xFF
   082E FF                 2007 	.db #0xFF
   082F FF                 2008 	.db #0xFF
   0830 FF                 2009 	.db #0xFF
   0831 FF                 2010 	.db #0xFF
   0832 FF                 2011 	.db #0xFF
   0833 FF                 2012 	.db #0xFF
   0834 FF                 2013 	.db #0xFF
   0835 FF                 2014 	.db #0xFF
   0836 FF                 2015 	.db #0xFF
   0837 FF                 2016 	.db #0xFF
   0838 FF                 2017 	.db #0xFF
   0839 FF                 2018 	.db #0xFF
   083A 00                 2019 	.db #0x00
   083B 00                 2020 	.db #0x00
   083C 00                 2021 	.db #0x00
   083D 00                 2022 	.db #0x00
   083E 00                 2023 	.db #0x00
   083F 00                 2024 	.db #0x00
   0840 00                 2025 	.db #0x00
   0841 00                 2026 	.db #0x00
   0842 00                 2027 	.db #0x00
   0843 00                 2028 	.db #0x00
   0844 03                 2029 	.db #0x03
   0845 03                 2030 	.db #0x03
   0846 0F                 2031 	.db #0x0F
   0847 0F                 2032 	.db #0x0F
   0848 3F                 2033 	.db #0x3F
   0849 3F                 2034 	.db #0x3F
   084A FF                 2035 	.db #0xFF
   084B FF                 2036 	.db #0xFF
   084C FF                 2037 	.db #0xFF
   084D FF                 2038 	.db #0xFF
   084E FF                 2039 	.db #0xFF
   084F FF                 2040 	.db #0xFF
   0850 FF                 2041 	.db #0xFF
   0851 FF                 2042 	.db #0xFF
   0852 FF                 2043 	.db #0xFF
   0853 FF                 2044 	.db #0xFF
   0854 FE                 2045 	.db #0xFE
   0855 FE                 2046 	.db #0xFE
   0856 E3                 2047 	.db #0xE3
   0857 E3                 2048 	.db #0xE3
   0858 80                 2049 	.db #0x80
   0859 80                 2050 	.db #0x80
   085A 00                 2051 	.db #0x00
   085B 00                 2052 	.db #0x00
   085C 00                 2053 	.db #0x00
   085D 00                 2054 	.db #0x00
   085E 00                 2055 	.db #0x00
   085F 00                 2056 	.db #0x00
   0860 00                 2057 	.db #0x00
   0861 00                 2058 	.db #0x00
   0862 3F                 2059 	.db #0x3F
   0863 3F                 2060 	.db #0x3F
   0864 FF                 2061 	.db #0xFF
   0865 FF                 2062 	.db #0xFF
   0866 FF                 2063 	.db #0xFF
   0867 FF                 2064 	.db #0xFF
   0868 FF                 2065 	.db #0xFF
   0869 FF                 2066 	.db #0xFF
   086A FF                 2067 	.db #0xFF
   086B FF                 2068 	.db #0xFF
   086C FF                 2069 	.db #0xFF
   086D FF                 2070 	.db #0xFF
   086E FF                 2071 	.db #0xFF
   086F FF                 2072 	.db #0xFF
   0870 FF                 2073 	.db #0xFF
   0871 FF                 2074 	.db #0xFF
   0872 FF                 2075 	.db #0xFF
   0873 FF                 2076 	.db #0xFF
   0874 FF                 2077 	.db #0xFF
   0875 FF                 2078 	.db #0xFF
   0876 7F                 2079 	.db #0x7F
   0877 7F                 2080 	.db #0x7F
   0878 BF                 2081 	.db #0xBF
   0879 BF                 2082 	.db #0xBF
   087A 00                 2083 	.db #0x00
   087B 00                 2084 	.db #0x00
   087C 03                 2085 	.db #0x03
   087D 03                 2086 	.db #0x03
   087E 80                 2087 	.db #0x80
   087F 80                 2088 	.db #0x80
   0880 FF                 2089 	.db #0xFF
   0881 FF                 2090 	.db #0xFF
   0882 FF                 2091 	.db #0xFF
   0883 FF                 2092 	.db #0xFF
   0884 FF                 2093 	.db #0xFF
   0885 FF                 2094 	.db #0xFF
   0886 FF                 2095 	.db #0xFF
   0887 FF                 2096 	.db #0xFF
   0888 F7                 2097 	.db #0xF7
   0889 F7                 2098 	.db #0xF7
   088A E0                 2099 	.db #0xE0
   088B E0                 2100 	.db #0xE0
   088C E0                 2101 	.db #0xE0
   088D E0                 2102 	.db #0xE0
   088E E8                 2103 	.db #0xE8
   088F E8                 2104 	.db #0xE8
   0890 E8                 2105 	.db #0xE8
   0891 E8                 2106 	.db #0xE8
   0892 E8                 2107 	.db #0xE8
   0893 E8                 2108 	.db #0xE8
   0894 E8                 2109 	.db #0xE8
   0895 E8                 2110 	.db #0xE8
   0896 EC                 2111 	.db #0xEC
   0897 EC                 2112 	.db #0xEC
   0898 EC                 2113 	.db #0xEC
   0899 EC                 2114 	.db #0xEC
   089A 3F                 2115 	.db #0x3F
   089B 3F                 2116 	.db #0x3F
   089C 3F                 2117 	.db #0x3F
   089D 3F                 2118 	.db #0x3F
   089E 7F                 2119 	.db #0x7F
   089F 7F                 2120 	.db #0x7F
   08A0 FF                 2121 	.db #0xFF
   08A1 FF                 2122 	.db #0xFF
   08A2 FF                 2123 	.db #0xFF
   08A3 FF                 2124 	.db #0xFF
   08A4 FF                 2125 	.db #0xFF
   08A5 FF                 2126 	.db #0xFF
   08A6 FF                 2127 	.db #0xFF
   08A7 FF                 2128 	.db #0xFF
   08A8 FF                 2129 	.db #0xFF
   08A9 FF                 2130 	.db #0xFF
   08AA 00                 2131 	.db #0x00
   08AB 00                 2132 	.db #0x00
   08AC 00                 2133 	.db #0x00
   08AD 00                 2134 	.db #0x00
   08AE 00                 2135 	.db #0x00
   08AF 00                 2136 	.db #0x00
   08B0 4C                 2137 	.db #0x4C
   08B1 4C                 2138 	.db #0x4C
   08B2 4C                 2139 	.db #0x4C
   08B3 4C                 2140 	.db #0x4C
   08B4 4C                 2141 	.db #0x4C
   08B5 4C                 2142 	.db #0x4C
   08B6 6D                 2143 	.db #0x6D
   08B7 6D                 2144 	.db #0x6D
   08B8 7F                 2145 	.db #0x7F
   08B9 7F                 2146 	.db #0x7F
   08BA 00                 2147 	.db #0x00
   08BB 00                 2148 	.db #0x00
   08BC 00                 2149 	.db #0x00
   08BD 00                 2150 	.db #0x00
   08BE 00                 2151 	.db #0x00
   08BF 00                 2152 	.db #0x00
   08C0 00                 2153 	.db #0x00
   08C1 00                 2154 	.db #0x00
   08C2 E0                 2155 	.db #0xE0
   08C3 E0                 2156 	.db #0xE0
   08C4 FC                 2157 	.db #0xFC
   08C5 FC                 2158 	.db #0xFC
   08C6 FE                 2159 	.db #0xFE
   08C7 FE                 2160 	.db #0xFE
   08C8 FF                 2161 	.db #0xFF
   08C9 FF                 2162 	.db #0xFF
   08CA FF                 2163 	.db #0xFF
   08CB FF                 2164 	.db #0xFF
   08CC FF                 2165 	.db #0xFF
   08CD FF                 2166 	.db #0xFF
   08CE FF                 2167 	.db #0xFF
   08CF FF                 2168 	.db #0xFF
   08D0 FF                 2169 	.db #0xFF
   08D1 FF                 2170 	.db #0xFF
   08D2 FF                 2171 	.db #0xFF
   08D3 FF                 2172 	.db #0xFF
   08D4 DF                 2173 	.db #0xDF
   08D5 DF                 2174 	.db #0xDF
   08D6 B1                 2175 	.db #0xB1
   08D7 B1                 2176 	.db #0xB1
   08D8 40                 2177 	.db #0x40
   08D9 40                 2178 	.db #0x40
   08DA 00                 2179 	.db #0x00
   08DB 00                 2180 	.db #0x00
   08DC 00                 2181 	.db #0x00
   08DD 00                 2182 	.db #0x00
   08DE 00                 2183 	.db #0x00
   08DF 00                 2184 	.db #0x00
   08E0 00                 2185 	.db #0x00
   08E1 00                 2186 	.db #0x00
   08E2 00                 2187 	.db #0x00
   08E3 00                 2188 	.db #0x00
   08E4 00                 2189 	.db #0x00
   08E5 00                 2190 	.db #0x00
   08E6 00                 2191 	.db #0x00
   08E7 00                 2192 	.db #0x00
   08E8 00                 2193 	.db #0x00
   08E9 00                 2194 	.db #0x00
   08EA 80                 2195 	.db #0x80
   08EB 80                 2196 	.db #0x80
   08EC E0                 2197 	.db #0xE0
   08ED E0                 2198 	.db #0xE0
   08EE F0                 2199 	.db #0xF0
   08EF F0                 2200 	.db #0xF0
   08F0 F8                 2201 	.db #0xF8
   08F1 F8                 2202 	.db #0xF8
   08F2 FC                 2203 	.db #0xFC
   08F3 FC                 2204 	.db #0xFC
   08F4 FC                 2205 	.db #0xFC
   08F5 FC                 2206 	.db #0xFC
   08F6 FE                 2207 	.db #0xFE
   08F7 FE                 2208 	.db #0xFE
   08F8 7E                 2209 	.db #0x7E
   08F9 7E                 2210 	.db #0x7E
   08FA 00                 2211 	.db #0x00
   08FB 00                 2212 	.db #0x00
   08FC 30                 2213 	.db #0x30
   08FD 30                 2214 	.db #0x30
   08FE 80                 2215 	.db #0x80
   08FF 80                 2216 	.db #0x80
   0900 FF                 2217 	.db #0xFF
   0901 FF                 2218 	.db #0xFF
   0902 FF                 2219 	.db #0xFF
   0903 FF                 2220 	.db #0xFF
   0904 FF                 2221 	.db #0xFF
   0905 FF                 2222 	.db #0xFF
   0906 FF                 2223 	.db #0xFF
   0907 FF                 2224 	.db #0xFF
   0908 FB                 2225 	.db #0xFB
   0909 FB                 2226 	.db #0xFB
   090A 01                 2227 	.db #0x01
   090B 01                 2228 	.db #0x01
   090C 01                 2229 	.db #0x01
   090D 01                 2230 	.db #0x01
   090E 05                 2231 	.db #0x05
   090F 05                 2232 	.db #0x05
   0910 85                 2233 	.db #0x85
   0911 85                 2234 	.db #0x85
   0912 85                 2235 	.db #0x85
   0913 85                 2236 	.db #0x85
   0914 85                 2237 	.db #0x85
   0915 85                 2238 	.db #0x85
   0916 8D                 2239 	.db #0x8D
   0917 8D                 2240 	.db #0x8D
   0918 8D                 2241 	.db #0x8D
   0919 8D                 2242 	.db #0x8D
   091A 3F                 2243 	.db #0x3F
   091B 3F                 2244 	.db #0x3F
   091C 3F                 2245 	.db #0x3F
   091D 3F                 2246 	.db #0x3F
   091E 7F                 2247 	.db #0x7F
   091F 7F                 2248 	.db #0x7F
   0920 FF                 2249 	.db #0xFF
   0921 FF                 2250 	.db #0xFF
   0922 FF                 2251 	.db #0xFF
   0923 FF                 2252 	.db #0xFF
   0924 FF                 2253 	.db #0xFF
   0925 FF                 2254 	.db #0xFF
   0926 FF                 2255 	.db #0xFF
   0927 FF                 2256 	.db #0xFF
   0928 FF                 2257 	.db #0xFF
   0929 FF                 2258 	.db #0xFF
   092A FF                 2259 	.db #0xFF
   092B FF                 2260 	.db #0xFF
   092C FF                 2261 	.db #0xFF
   092D FF                 2262 	.db #0xFF
   092E FF                 2263 	.db #0xFF
   092F FF                 2264 	.db #0xFF
   0930 FF                 2265 	.db #0xFF
   0931 FF                 2266 	.db #0xFF
   0932 FF                 2267 	.db #0xFF
   0933 FF                 2268 	.db #0xFF
   0934 FF                 2269 	.db #0xFF
   0935 FF                 2270 	.db #0xFF
   0936 FF                 2271 	.db #0xFF
   0937 FF                 2272 	.db #0xFF
   0938 FF                 2273 	.db #0xFF
   0939 FF                 2274 	.db #0xFF
   093A 00                 2275 	.db #0x00
   093B 00                 2276 	.db #0x00
   093C 00                 2277 	.db #0x00
   093D 00                 2278 	.db #0x00
   093E 00                 2279 	.db #0x00
   093F 00                 2280 	.db #0x00
   0940 00                 2281 	.db #0x00
   0941 00                 2282 	.db #0x00
   0942 00                 2283 	.db #0x00
   0943 00                 2284 	.db #0x00
   0944 00                 2285 	.db #0x00
   0945 00                 2286 	.db #0x00
   0946 00                 2287 	.db #0x00
   0947 00                 2288 	.db #0x00
   0948 00                 2289 	.db #0x00
   0949 00                 2290 	.db #0x00
   094A 00                 2291 	.db #0x00
   094B 00                 2292 	.db #0x00
   094C 00                 2293 	.db #0x00
   094D 00                 2294 	.db #0x00
   094E 00                 2295 	.db #0x00
   094F 00                 2296 	.db #0x00
   0950 00                 2297 	.db #0x00
   0951 00                 2298 	.db #0x00
   0952 00                 2299 	.db #0x00
   0953 00                 2300 	.db #0x00
   0954 00                 2301 	.db #0x00
   0955 00                 2302 	.db #0x00
   0956 00                 2303 	.db #0x00
   0957 00                 2304 	.db #0x00
   0958 00                 2305 	.db #0x00
   0959 00                 2306 	.db #0x00
   095A 00                 2307 	.db #0x00
   095B 00                 2308 	.db #0x00
   095C 00                 2309 	.db #0x00
   095D 00                 2310 	.db #0x00
   095E 00                 2311 	.db #0x00
   095F 00                 2312 	.db #0x00
   0960 00                 2313 	.db #0x00
   0961 00                 2314 	.db #0x00
   0962 00                 2315 	.db #0x00
   0963 00                 2316 	.db #0x00
   0964 00                 2317 	.db #0x00
   0965 00                 2318 	.db #0x00
   0966 00                 2319 	.db #0x00
   0967 00                 2320 	.db #0x00
   0968 00                 2321 	.db #0x00
   0969 00                 2322 	.db #0x00
   096A 00                 2323 	.db #0x00
   096B 00                 2324 	.db #0x00
   096C 00                 2325 	.db #0x00
   096D 00                 2326 	.db #0x00
   096E 00                 2327 	.db #0x00
   096F 00                 2328 	.db #0x00
   0970 00                 2329 	.db #0x00
   0971 00                 2330 	.db #0x00
   0972 00                 2331 	.db #0x00
   0973 00                 2332 	.db #0x00
   0974 00                 2333 	.db #0x00
   0975 00                 2334 	.db #0x00
   0976 00                 2335 	.db #0x00
   0977 00                 2336 	.db #0x00
   0978 00                 2337 	.db #0x00
   0979 00                 2338 	.db #0x00
   097A 00                 2339 	.db #0x00
   097B 00                 2340 	.db #0x00
   097C 80                 2341 	.db #0x80
   097D 80                 2342 	.db #0x80
   097E F0                 2343 	.db #0xF0
   097F F0                 2344 	.db #0xF0
   0980 FF                 2345 	.db #0xFF
   0981 FF                 2346 	.db #0xFF
   0982 FF                 2347 	.db #0xFF
   0983 FF                 2348 	.db #0xFF
   0984 FF                 2349 	.db #0xFF
   0985 FF                 2350 	.db #0xFF
   0986 FF                 2351 	.db #0xFF
   0987 FF                 2352 	.db #0xFF
   0988 FF                 2353 	.db #0xFF
   0989 FF                 2354 	.db #0xFF
   098A FF                 2355 	.db #0xFF
   098B FF                 2356 	.db #0xFF
   098C FF                 2357 	.db #0xFF
   098D FF                 2358 	.db #0xFF
   098E FF                 2359 	.db #0xFF
   098F FF                 2360 	.db #0xFF
   0990 FF                 2361 	.db #0xFF
   0991 FF                 2362 	.db #0xFF
   0992 FF                 2363 	.db #0xFF
   0993 FF                 2364 	.db #0xFF
   0994 FF                 2365 	.db #0xFF
   0995 FF                 2366 	.db #0xFF
   0996 FF                 2367 	.db #0xFF
   0997 FF                 2368 	.db #0xFF
   0998 FE                 2369 	.db #0xFE
   0999 FE                 2370 	.db #0xFE
   099A 01                 2371 	.db #0x01
   099B 01                 2372 	.db #0x01
   099C 07                 2373 	.db #0x07
   099D 07                 2374 	.db #0x07
   099E 3F                 2375 	.db #0x3F
   099F 3F                 2376 	.db #0x3F
   09A0 FF                 2377 	.db #0xFF
   09A1 FF                 2378 	.db #0xFF
   09A2 FF                 2379 	.db #0xFF
   09A3 FF                 2380 	.db #0xFF
   09A4 FF                 2381 	.db #0xFF
   09A5 FF                 2382 	.db #0xFF
   09A6 FF                 2383 	.db #0xFF
   09A7 FF                 2384 	.db #0xFF
   09A8 FF                 2385 	.db #0xFF
   09A9 FF                 2386 	.db #0xFF
   09AA FF                 2387 	.db #0xFF
   09AB FF                 2388 	.db #0xFF
   09AC FF                 2389 	.db #0xFF
   09AD FF                 2390 	.db #0xFF
   09AE FF                 2391 	.db #0xFF
   09AF FF                 2392 	.db #0xFF
   09B0 FF                 2393 	.db #0xFF
   09B1 FF                 2394 	.db #0xFF
   09B2 FF                 2395 	.db #0xFF
   09B3 FF                 2396 	.db #0xFF
   09B4 FF                 2397 	.db #0xFF
   09B5 FF                 2398 	.db #0xFF
   09B6 80                 2399 	.db #0x80
   09B7 80                 2400 	.db #0x80
   09B8 00                 2401 	.db #0x00
   09B9 00                 2402 	.db #0x00
   09BA 00                 2403 	.db #0x00
   09BB 00                 2404 	.db #0x00
   09BC 00                 2405 	.db #0x00
   09BD 00                 2406 	.db #0x00
   09BE 00                 2407 	.db #0x00
   09BF 00                 2408 	.db #0x00
   09C0 00                 2409 	.db #0x00
   09C1 00                 2410 	.db #0x00
   09C2 00                 2411 	.db #0x00
   09C3 00                 2412 	.db #0x00
   09C4 00                 2413 	.db #0x00
   09C5 00                 2414 	.db #0x00
   09C6 00                 2415 	.db #0x00
   09C7 00                 2416 	.db #0x00
   09C8 00                 2417 	.db #0x00
   09C9 00                 2418 	.db #0x00
   09CA 00                 2419 	.db #0x00
   09CB 00                 2420 	.db #0x00
   09CC 00                 2421 	.db #0x00
   09CD 00                 2422 	.db #0x00
   09CE 00                 2423 	.db #0x00
   09CF 00                 2424 	.db #0x00
   09D0 00                 2425 	.db #0x00
   09D1 00                 2426 	.db #0x00
   09D2 00                 2427 	.db #0x00
   09D3 00                 2428 	.db #0x00
   09D4 03                 2429 	.db #0x03
   09D5 03                 2430 	.db #0x03
   09D6 0F                 2431 	.db #0x0F
   09D7 0F                 2432 	.db #0x0F
   09D8 3F                 2433 	.db #0x3F
   09D9 3F                 2434 	.db #0x3F
   09DA 00                 2435 	.db #0x00
   09DB 00                 2436 	.db #0x00
   09DC 00                 2437 	.db #0x00
   09DD 00                 2438 	.db #0x00
   09DE 00                 2439 	.db #0x00
   09DF 00                 2440 	.db #0x00
   09E0 00                 2441 	.db #0x00
   09E1 00                 2442 	.db #0x00
   09E2 00                 2443 	.db #0x00
   09E3 00                 2444 	.db #0x00
   09E4 00                 2445 	.db #0x00
   09E5 00                 2446 	.db #0x00
   09E6 00                 2447 	.db #0x00
   09E7 00                 2448 	.db #0x00
   09E8 00                 2449 	.db #0x00
   09E9 00                 2450 	.db #0x00
   09EA 00                 2451 	.db #0x00
   09EB 00                 2452 	.db #0x00
   09EC 00                 2453 	.db #0x00
   09ED 00                 2454 	.db #0x00
   09EE 0F                 2455 	.db #0x0F
   09EF 0F                 2456 	.db #0x0F
   09F0 3F                 2457 	.db #0x3F
   09F1 3F                 2458 	.db #0x3F
   09F2 FF                 2459 	.db #0xFF
   09F3 FF                 2460 	.db #0xFF
   09F4 FF                 2461 	.db #0xFF
   09F5 FF                 2462 	.db #0xFF
   09F6 FF                 2463 	.db #0xFF
   09F7 FF                 2464 	.db #0xFF
   09F8 FF                 2465 	.db #0xFF
   09F9 FF                 2466 	.db #0xFF
   09FA FF                 2467 	.db #0xFF
   09FB FF                 2468 	.db #0xFF
   09FC FF                 2469 	.db #0xFF
   09FD FF                 2470 	.db #0xFF
   09FE FF                 2471 	.db #0xFF
   09FF FF                 2472 	.db #0xFF
   0A00 FF                 2473 	.db #0xFF
   0A01 FF                 2474 	.db #0xFF
   0A02 FF                 2475 	.db #0xFF
   0A03 FF                 2476 	.db #0xFF
   0A04 FF                 2477 	.db #0xFF
   0A05 FF                 2478 	.db #0xFF
   0A06 FF                 2479 	.db #0xFF
   0A07 FF                 2480 	.db #0xFF
   0A08 FF                 2481 	.db #0xFF
   0A09 FF                 2482 	.db #0xFF
   0A0A FF                 2483 	.db #0xFF
   0A0B FF                 2484 	.db #0xFF
   0A0C FF                 2485 	.db #0xFF
   0A0D FF                 2486 	.db #0xFF
   0A0E FF                 2487 	.db #0xFF
   0A0F FF                 2488 	.db #0xFF
   0A10 FF                 2489 	.db #0xFF
   0A11 FF                 2490 	.db #0xFF
   0A12 FF                 2491 	.db #0xFF
   0A13 FF                 2492 	.db #0xFF
   0A14 FF                 2493 	.db #0xFF
   0A15 FF                 2494 	.db #0xFF
   0A16 FF                 2495 	.db #0xFF
   0A17 FF                 2496 	.db #0xFF
   0A18 0F                 2497 	.db #0x0F
   0A19 0F                 2498 	.db #0x0F
   0A1A FF                 2499 	.db #0xFF
   0A1B FF                 2500 	.db #0xFF
   0A1C FF                 2501 	.db #0xFF
   0A1D FF                 2502 	.db #0xFF
   0A1E FF                 2503 	.db #0xFF
   0A1F FF                 2504 	.db #0xFF
   0A20 FF                 2505 	.db #0xFF
   0A21 FF                 2506 	.db #0xFF
   0A22 FF                 2507 	.db #0xFF
   0A23 FF                 2508 	.db #0xFF
   0A24 FF                 2509 	.db #0xFF
   0A25 FF                 2510 	.db #0xFF
   0A26 FF                 2511 	.db #0xFF
   0A27 FF                 2512 	.db #0xFF
   0A28 FF                 2513 	.db #0xFF
   0A29 FF                 2514 	.db #0xFF
   0A2A FF                 2515 	.db #0xFF
   0A2B FF                 2516 	.db #0xFF
   0A2C FF                 2517 	.db #0xFF
   0A2D FF                 2518 	.db #0xFF
   0A2E FF                 2519 	.db #0xFF
   0A2F FF                 2520 	.db #0xFF
   0A30 FF                 2521 	.db #0xFF
   0A31 FF                 2522 	.db #0xFF
   0A32 FF                 2523 	.db #0xFF
   0A33 FF                 2524 	.db #0xFF
   0A34 FF                 2525 	.db #0xFF
   0A35 FF                 2526 	.db #0xFF
   0A36 E7                 2527 	.db #0xE7
   0A37 E7                 2528 	.db #0xE7
   0A38 E1                 2529 	.db #0xE1
   0A39 E1                 2530 	.db #0xE1
   0A3A 00                 2531 	.db #0x00
   0A3B 00                 2532 	.db #0x00
   0A3C 00                 2533 	.db #0x00
   0A3D 00                 2534 	.db #0x00
   0A3E 00                 2535 	.db #0x00
   0A3F 00                 2536 	.db #0x00
   0A40 00                 2537 	.db #0x00
   0A41 00                 2538 	.db #0x00
   0A42 00                 2539 	.db #0x00
   0A43 00                 2540 	.db #0x00
   0A44 00                 2541 	.db #0x00
   0A45 00                 2542 	.db #0x00
   0A46 00                 2543 	.db #0x00
   0A47 00                 2544 	.db #0x00
   0A48 00                 2545 	.db #0x00
   0A49 00                 2546 	.db #0x00
   0A4A 00                 2547 	.db #0x00
   0A4B 00                 2548 	.db #0x00
   0A4C FC                 2549 	.db #0xFC
   0A4D FC                 2550 	.db #0xFC
   0A4E FF                 2551 	.db #0xFF
   0A4F FF                 2552 	.db #0xFF
   0A50 FF                 2553 	.db #0xFF
   0A51 FF                 2554 	.db #0xFF
   0A52 FF                 2555 	.db #0xFF
   0A53 FF                 2556 	.db #0xFF
   0A54 FF                 2557 	.db #0xFF
   0A55 FF                 2558 	.db #0xFF
   0A56 FF                 2559 	.db #0xFF
   0A57 FF                 2560 	.db #0xFF
   0A58 FF                 2561 	.db #0xFF
   0A59 FF                 2562 	.db #0xFF
   0A5A 00                 2563 	.db #0x00
   0A5B 00                 2564 	.db #0x00
   0A5C 00                 2565 	.db #0x00
   0A5D 00                 2566 	.db #0x00
   0A5E 00                 2567 	.db #0x00
   0A5F 00                 2568 	.db #0x00
   0A60 00                 2569 	.db #0x00
   0A61 00                 2570 	.db #0x00
   0A62 00                 2571 	.db #0x00
   0A63 00                 2572 	.db #0x00
   0A64 00                 2573 	.db #0x00
   0A65 00                 2574 	.db #0x00
   0A66 00                 2575 	.db #0x00
   0A67 00                 2576 	.db #0x00
   0A68 00                 2577 	.db #0x00
   0A69 00                 2578 	.db #0x00
   0A6A 00                 2579 	.db #0x00
   0A6B 00                 2580 	.db #0x00
   0A6C 00                 2581 	.db #0x00
   0A6D 00                 2582 	.db #0x00
   0A6E 00                 2583 	.db #0x00
   0A6F 00                 2584 	.db #0x00
   0A70 80                 2585 	.db #0x80
   0A71 80                 2586 	.db #0x80
   0A72 E0                 2587 	.db #0xE0
   0A73 E0                 2588 	.db #0xE0
   0A74 F0                 2589 	.db #0xF0
   0A75 F0                 2590 	.db #0xF0
   0A76 F8                 2591 	.db #0xF8
   0A77 F8                 2592 	.db #0xF8
   0A78 FC                 2593 	.db #0xFC
   0A79 FC                 2594 	.db #0xFC
   0A7A FF                 2595 	.db #0xFF
   0A7B FF                 2596 	.db #0xFF
   0A7C FF                 2597 	.db #0xFF
   0A7D FF                 2598 	.db #0xFF
   0A7E FF                 2599 	.db #0xFF
   0A7F FF                 2600 	.db #0xFF
   0A80 FF                 2601 	.db #0xFF
   0A81 FF                 2602 	.db #0xFF
   0A82 FF                 2603 	.db #0xFF
   0A83 FF                 2604 	.db #0xFF
   0A84 FF                 2605 	.db #0xFF
   0A85 FF                 2606 	.db #0xFF
   0A86 FF                 2607 	.db #0xFF
   0A87 FF                 2608 	.db #0xFF
   0A88 FF                 2609 	.db #0xFF
   0A89 FF                 2610 	.db #0xFF
   0A8A FF                 2611 	.db #0xFF
   0A8B FF                 2612 	.db #0xFF
   0A8C FF                 2613 	.db #0xFF
   0A8D FF                 2614 	.db #0xFF
   0A8E FF                 2615 	.db #0xFF
   0A8F FF                 2616 	.db #0xFF
   0A90 F9                 2617 	.db #0xF9
   0A91 F9                 2618 	.db #0xF9
   0A92 F8                 2619 	.db #0xF8
   0A93 F8                 2620 	.db #0xF8
   0A94 F8                 2621 	.db #0xF8
   0A95 F8                 2622 	.db #0xF8
   0A96 F8                 2623 	.db #0xF8
   0A97 F8                 2624 	.db #0xF8
   0A98 F8                 2625 	.db #0xF8
   0A99 F8                 2626 	.db #0xF8
   0A9A FC                 2627 	.db #0xFC
   0A9B FC                 2628 	.db #0xFC
   0A9C FE                 2629 	.db #0xFE
   0A9D FE                 2630 	.db #0xFE
   0A9E FE                 2631 	.db #0xFE
   0A9F FE                 2632 	.db #0xFE
   0AA0 FE                 2633 	.db #0xFE
   0AA1 FE                 2634 	.db #0xFE
   0AA2 FE                 2635 	.db #0xFE
   0AA3 FE                 2636 	.db #0xFE
   0AA4 FF                 2637 	.db #0xFF
   0AA5 FF                 2638 	.db #0xFF
   0AA6 FF                 2639 	.db #0xFF
   0AA7 FF                 2640 	.db #0xFF
   0AA8 FF                 2641 	.db #0xFF
   0AA9 FF                 2642 	.db #0xFF
   0AAA FF                 2643 	.db #0xFF
   0AAB FF                 2644 	.db #0xFF
   0AAC FF                 2645 	.db #0xFF
   0AAD FF                 2646 	.db #0xFF
   0AAE FF                 2647 	.db #0xFF
   0AAF FF                 2648 	.db #0xFF
   0AB0 FF                 2649 	.db #0xFF
   0AB1 FF                 2650 	.db #0xFF
   0AB2 3F                 2651 	.db #0x3F
   0AB3 3F                 2652 	.db #0x3F
   0AB4 0F                 2653 	.db #0x0F
   0AB5 0F                 2654 	.db #0x0F
   0AB6 00                 2655 	.db #0x00
   0AB7 00                 2656 	.db #0x00
   0AB8 00                 2657 	.db #0x00
   0AB9 00                 2658 	.db #0x00
   0ABA 00                 2659 	.db #0x00
   0ABB 00                 2660 	.db #0x00
   0ABC 00                 2661 	.db #0x00
   0ABD 00                 2662 	.db #0x00
   0ABE 00                 2663 	.db #0x00
   0ABF 00                 2664 	.db #0x00
   0AC0 00                 2665 	.db #0x00
   0AC1 00                 2666 	.db #0x00
   0AC2 00                 2667 	.db #0x00
   0AC3 00                 2668 	.db #0x00
   0AC4 00                 2669 	.db #0x00
   0AC5 00                 2670 	.db #0x00
   0AC6 00                 2671 	.db #0x00
   0AC7 00                 2672 	.db #0x00
   0AC8 00                 2673 	.db #0x00
   0AC9 00                 2674 	.db #0x00
   0ACA 00                 2675 	.db #0x00
   0ACB 00                 2676 	.db #0x00
   0ACC 00                 2677 	.db #0x00
   0ACD 00                 2678 	.db #0x00
   0ACE 00                 2679 	.db #0x00
   0ACF 00                 2680 	.db #0x00
   0AD0 00                 2681 	.db #0x00
   0AD1 00                 2682 	.db #0x00
   0AD2 00                 2683 	.db #0x00
   0AD3 00                 2684 	.db #0x00
   0AD4 00                 2685 	.db #0x00
   0AD5 00                 2686 	.db #0x00
   0AD6 00                 2687 	.db #0x00
   0AD7 00                 2688 	.db #0x00
   0AD8 00                 2689 	.db #0x00
   0AD9 00                 2690 	.db #0x00
   0ADA 00                 2691 	.db #0x00
   0ADB 00                 2692 	.db #0x00
   0ADC 00                 2693 	.db #0x00
   0ADD 00                 2694 	.db #0x00
   0ADE 00                 2695 	.db #0x00
   0ADF 00                 2696 	.db #0x00
   0AE0 00                 2697 	.db #0x00
   0AE1 00                 2698 	.db #0x00
   0AE2 00                 2699 	.db #0x00
   0AE3 00                 2700 	.db #0x00
   0AE4 00                 2701 	.db #0x00
   0AE5 00                 2702 	.db #0x00
   0AE6 00                 2703 	.db #0x00
   0AE7 00                 2704 	.db #0x00
   0AE8 00                 2705 	.db #0x00
   0AE9 00                 2706 	.db #0x00
   0AEA 00                 2707 	.db #0x00
   0AEB 00                 2708 	.db #0x00
   0AEC 00                 2709 	.db #0x00
   0AED 00                 2710 	.db #0x00
   0AEE 00                 2711 	.db #0x00
   0AEF 00                 2712 	.db #0x00
   0AF0 00                 2713 	.db #0x00
   0AF1 00                 2714 	.db #0x00
   0AF2 00                 2715 	.db #0x00
   0AF3 00                 2716 	.db #0x00
   0AF4 00                 2717 	.db #0x00
   0AF5 00                 2718 	.db #0x00
   0AF6 00                 2719 	.db #0x00
   0AF7 00                 2720 	.db #0x00
   0AF8 00                 2721 	.db #0x00
   0AF9 00                 2722 	.db #0x00
   0AFA 00                 2723 	.db #0x00
   0AFB 00                 2724 	.db #0x00
   0AFC 00                 2725 	.db #0x00
   0AFD 00                 2726 	.db #0x00
   0AFE 00                 2727 	.db #0x00
   0AFF 00                 2728 	.db #0x00
   0B00 00                 2729 	.db #0x00
   0B01 00                 2730 	.db #0x00
   0B02 00                 2731 	.db #0x00
   0B03 00                 2732 	.db #0x00
   0B04 00                 2733 	.db #0x00
   0B05 00                 2734 	.db #0x00
   0B06 00                 2735 	.db #0x00
   0B07 00                 2736 	.db #0x00
   0B08 00                 2737 	.db #0x00
   0B09 00                 2738 	.db #0x00
   0B0A 00                 2739 	.db #0x00
   0B0B 00                 2740 	.db #0x00
   0B0C 00                 2741 	.db #0x00
   0B0D 00                 2742 	.db #0x00
   0B0E 00                 2743 	.db #0x00
   0B0F 00                 2744 	.db #0x00
   0B10 00                 2745 	.db #0x00
   0B11 00                 2746 	.db #0x00
   0B12 00                 2747 	.db #0x00
   0B13 00                 2748 	.db #0x00
   0B14 00                 2749 	.db #0x00
   0B15 00                 2750 	.db #0x00
   0B16 00                 2751 	.db #0x00
   0B17 00                 2752 	.db #0x00
   0B18 00                 2753 	.db #0x00
   0B19 00                 2754 	.db #0x00
   0B1A 00                 2755 	.db #0x00
   0B1B 00                 2756 	.db #0x00
   0B1C 00                 2757 	.db #0x00
   0B1D 00                 2758 	.db #0x00
   0B1E 00                 2759 	.db #0x00
   0B1F 00                 2760 	.db #0x00
   0B20 00                 2761 	.db #0x00
   0B21 00                 2762 	.db #0x00
   0B22 00                 2763 	.db #0x00
   0B23 00                 2764 	.db #0x00
   0B24 00                 2765 	.db #0x00
   0B25 00                 2766 	.db #0x00
   0B26 00                 2767 	.db #0x00
   0B27 00                 2768 	.db #0x00
   0B28 00                 2769 	.db #0x00
   0B29 00                 2770 	.db #0x00
   0B2A 00                 2771 	.db #0x00
   0B2B 00                 2772 	.db #0x00
   0B2C 00                 2773 	.db #0x00
   0B2D 00                 2774 	.db #0x00
   0B2E 00                 2775 	.db #0x00
   0B2F 00                 2776 	.db #0x00
   0B30 00                 2777 	.db #0x00
   0B31 00                 2778 	.db #0x00
   0B32 00                 2779 	.db #0x00
   0B33 00                 2780 	.db #0x00
   0B34 00                 2781 	.db #0x00
   0B35 00                 2782 	.db #0x00
   0B36 00                 2783 	.db #0x00
   0B37 00                 2784 	.db #0x00
   0B38 00                 2785 	.db #0x00
   0B39 00                 2786 	.db #0x00
   0B3A 00                 2787 	.db #0x00
   0B3B 00                 2788 	.db #0x00
   0B3C 00                 2789 	.db #0x00
   0B3D 00                 2790 	.db #0x00
   0B3E 00                 2791 	.db #0x00
   0B3F 00                 2792 	.db #0x00
   0B40 00                 2793 	.db #0x00
   0B41 00                 2794 	.db #0x00
   0B42 00                 2795 	.db #0x00
   0B43 00                 2796 	.db #0x00
   0B44 00                 2797 	.db #0x00
   0B45 00                 2798 	.db #0x00
   0B46 00                 2799 	.db #0x00
   0B47 00                 2800 	.db #0x00
   0B48 00                 2801 	.db #0x00
   0B49 00                 2802 	.db #0x00
   0B4A 00                 2803 	.db #0x00
   0B4B 00                 2804 	.db #0x00
   0B4C 00                 2805 	.db #0x00
   0B4D 00                 2806 	.db #0x00
   0B4E 00                 2807 	.db #0x00
   0B4F 00                 2808 	.db #0x00
   0B50 00                 2809 	.db #0x00
   0B51 00                 2810 	.db #0x00
   0B52 00                 2811 	.db #0x00
   0B53 00                 2812 	.db #0x00
   0B54 00                 2813 	.db #0x00
   0B55 00                 2814 	.db #0x00
   0B56 00                 2815 	.db #0x00
   0B57 00                 2816 	.db #0x00
   0B58 00                 2817 	.db #0x00
   0B59 00                 2818 	.db #0x00
   0B5A 00                 2819 	.db #0x00
   0B5B 00                 2820 	.db #0x00
   0B5C 00                 2821 	.db #0x00
   0B5D 00                 2822 	.db #0x00
   0B5E 00                 2823 	.db #0x00
   0B5F 00                 2824 	.db #0x00
   0B60 00                 2825 	.db #0x00
   0B61 00                 2826 	.db #0x00
   0B62 00                 2827 	.db #0x00
   0B63 00                 2828 	.db #0x00
   0B64 00                 2829 	.db #0x00
   0B65 00                 2830 	.db #0x00
   0B66 00                 2831 	.db #0x00
   0B67 00                 2832 	.db #0x00
   0B68 00                 2833 	.db #0x00
   0B69 00                 2834 	.db #0x00
   0B6A 00                 2835 	.db #0x00
   0B6B 00                 2836 	.db #0x00
   0B6C 00                 2837 	.db #0x00
   0B6D 00                 2838 	.db #0x00
   0B6E 00                 2839 	.db #0x00
   0B6F 00                 2840 	.db #0x00
   0B70 00                 2841 	.db #0x00
   0B71 00                 2842 	.db #0x00
   0B72 00                 2843 	.db #0x00
   0B73 00                 2844 	.db #0x00
   0B74 00                 2845 	.db #0x00
   0B75 00                 2846 	.db #0x00
   0B76 00                 2847 	.db #0x00
   0B77 00                 2848 	.db #0x00
   0B78 00                 2849 	.db #0x00
   0B79 00                 2850 	.db #0x00
   0B7A 00                 2851 	.db #0x00
   0B7B 00                 2852 	.db #0x00
   0B7C 00                 2853 	.db #0x00
   0B7D 00                 2854 	.db #0x00
   0B7E 00                 2855 	.db #0x00
   0B7F 00                 2856 	.db #0x00
   0B80 00                 2857 	.db #0x00
   0B81 00                 2858 	.db #0x00
   0B82 00                 2859 	.db #0x00
   0B83 00                 2860 	.db #0x00
   0B84 00                 2861 	.db #0x00
   0B85 00                 2862 	.db #0x00
   0B86 00                 2863 	.db #0x00
   0B87 00                 2864 	.db #0x00
   0B88 00                 2865 	.db #0x00
   0B89 00                 2866 	.db #0x00
   0B8A 00                 2867 	.db #0x00
   0B8B 00                 2868 	.db #0x00
   0B8C 00                 2869 	.db #0x00
   0B8D 00                 2870 	.db #0x00
   0B8E 00                 2871 	.db #0x00
   0B8F 00                 2872 	.db #0x00
   0B90 00                 2873 	.db #0x00
   0B91 00                 2874 	.db #0x00
   0B92 00                 2875 	.db #0x00
   0B93 00                 2876 	.db #0x00
   0B94 00                 2877 	.db #0x00
   0B95 00                 2878 	.db #0x00
   0B96 00                 2879 	.db #0x00
   0B97 00                 2880 	.db #0x00
   0B98 00                 2881 	.db #0x00
   0B99 00                 2882 	.db #0x00
   0B9A 00                 2883 	.db #0x00
   0B9B 00                 2884 	.db #0x00
   0B9C 00                 2885 	.db #0x00
   0B9D 00                 2886 	.db #0x00
   0B9E 00                 2887 	.db #0x00
   0B9F 00                 2888 	.db #0x00
   0BA0 00                 2889 	.db #0x00
   0BA1 00                 2890 	.db #0x00
   0BA2 00                 2891 	.db #0x00
   0BA3 00                 2892 	.db #0x00
   0BA4 00                 2893 	.db #0x00
   0BA5 00                 2894 	.db #0x00
   0BA6 00                 2895 	.db #0x00
   0BA7 00                 2896 	.db #0x00
   0BA8 00                 2897 	.db #0x00
   0BA9 00                 2898 	.db #0x00
   0BAA 00                 2899 	.db #0x00
   0BAB 00                 2900 	.db #0x00
   0BAC 00                 2901 	.db #0x00
   0BAD 00                 2902 	.db #0x00
   0BAE 00                 2903 	.db #0x00
   0BAF 00                 2904 	.db #0x00
   0BB0 00                 2905 	.db #0x00
   0BB1 00                 2906 	.db #0x00
   0BB2 00                 2907 	.db #0x00
   0BB3 00                 2908 	.db #0x00
   0BB4 00                 2909 	.db #0x00
   0BB5 00                 2910 	.db #0x00
   0BB6 00                 2911 	.db #0x00
   0BB7 00                 2912 	.db #0x00
   0BB8 00                 2913 	.db #0x00
   0BB9 00                 2914 	.db #0x00
   0BBA 3F                 2915 	.db #0x3F
   0BBB 3F                 2916 	.db #0x3F
   0BBC 3E                 2917 	.db #0x3E
   0BBD 3E                 2918 	.db #0x3E
   0BBE 3C                 2919 	.db #0x3C
   0BBF 3C                 2920 	.db #0x3C
   0BC0 38                 2921 	.db #0x38
   0BC1 38                 2922 	.db #0x38
   0BC2 00                 2923 	.db #0x00
   0BC3 00                 2924 	.db #0x00
   0BC4 00                 2925 	.db #0x00
   0BC5 00                 2926 	.db #0x00
   0BC6 01                 2927 	.db #0x01
   0BC7 01                 2928 	.db #0x01
   0BC8 01                 2929 	.db #0x01
   0BC9 01                 2930 	.db #0x01
   0BCA 01                 2931 	.db #0x01
   0BCB 01                 2932 	.db #0x01
   0BCC 01                 2933 	.db #0x01
   0BCD 01                 2934 	.db #0x01
   0BCE 01                 2935 	.db #0x01
   0BCF 01                 2936 	.db #0x01
   0BD0 03                 2937 	.db #0x03
   0BD1 03                 2938 	.db #0x03
   0BD2 03                 2939 	.db #0x03
   0BD3 03                 2940 	.db #0x03
   0BD4 03                 2941 	.db #0x03
   0BD5 03                 2942 	.db #0x03
   0BD6 03                 2943 	.db #0x03
   0BD7 03                 2944 	.db #0x03
   0BD8 07                 2945 	.db #0x07
   0BD9 07                 2946 	.db #0x07
   0BDA FF                 2947 	.db #0xFF
   0BDB FF                 2948 	.db #0xFF
   0BDC FF                 2949 	.db #0xFF
   0BDD FF                 2950 	.db #0xFF
   0BDE F8                 2951 	.db #0xF8
   0BDF F8                 2952 	.db #0xF8
   0BE0 F0                 2953 	.db #0xF0
   0BE1 F0                 2954 	.db #0xF0
   0BE2 F0                 2955 	.db #0xF0
   0BE3 F0                 2956 	.db #0xF0
   0BE4 F0                 2957 	.db #0xF0
   0BE5 F0                 2958 	.db #0xF0
   0BE6 E0                 2959 	.db #0xE0
   0BE7 E0                 2960 	.db #0xE0
   0BE8 E0                 2961 	.db #0xE0
   0BE9 E0                 2962 	.db #0xE0
   0BEA E0                 2963 	.db #0xE0
   0BEB E0                 2964 	.db #0xE0
   0BEC E0                 2965 	.db #0xE0
   0BED E0                 2966 	.db #0xE0
   0BEE E0                 2967 	.db #0xE0
   0BEF E0                 2968 	.db #0xE0
   0BF0 C0                 2969 	.db #0xC0
   0BF1 C0                 2970 	.db #0xC0
   0BF2 C0                 2971 	.db #0xC0
   0BF3 C0                 2972 	.db #0xC0
   0BF4 C1                 2973 	.db #0xC1
   0BF5 C1                 2974 	.db #0xC1
   0BF6 C1                 2975 	.db #0xC1
   0BF7 C1                 2976 	.db #0xC1
   0BF8 81                 2977 	.db #0x81
   0BF9 81                 2978 	.db #0x81
   0BFA 07                 2979 	.db #0x07
   0BFB 07                 2980 	.db #0x07
   0BFC 07                 2981 	.db #0x07
   0BFD 07                 2982 	.db #0x07
   0BFE 07                 2983 	.db #0x07
   0BFF 07                 2984 	.db #0x07
   0C00 0F                 2985 	.db #0x0F
   0C01 0F                 2986 	.db #0x0F
   0C02 0F                 2987 	.db #0x0F
   0C03 0F                 2988 	.db #0x0F
   0C04 0F                 2989 	.db #0x0F
   0C05 0F                 2990 	.db #0x0F
   0C06 0F                 2991 	.db #0x0F
   0C07 0F                 2992 	.db #0x0F
   0C08 0F                 2993 	.db #0x0F
   0C09 0F                 2994 	.db #0x0F
   0C0A 1E                 2995 	.db #0x1E
   0C0B 1E                 2996 	.db #0x1E
   0C0C 1E                 2997 	.db #0x1E
   0C0D 1E                 2998 	.db #0x1E
   0C0E 1E                 2999 	.db #0x1E
   0C0F 1E                 3000 	.db #0x1E
   0C10 1E                 3001 	.db #0x1E
   0C11 1E                 3002 	.db #0x1E
   0C12 3C                 3003 	.db #0x3C
   0C13 3C                 3004 	.db #0x3C
   0C14 3F                 3005 	.db #0x3F
   0C15 3F                 3006 	.db #0x3F
   0C16 0F                 3007 	.db #0x0F
   0C17 0F                 3008 	.db #0x0F
   0C18 0F                 3009 	.db #0x0F
   0C19 0F                 3010 	.db #0x0F
   0C1A 83                 3011 	.db #0x83
   0C1B 83                 3012 	.db #0x83
   0C1C 83                 3013 	.db #0x83
   0C1D 83                 3014 	.db #0x83
   0C1E 83                 3015 	.db #0x83
   0C1F 83                 3016 	.db #0x83
   0C20 07                 3017 	.db #0x07
   0C21 07                 3018 	.db #0x07
   0C22 07                 3019 	.db #0x07
   0C23 07                 3020 	.db #0x07
   0C24 07                 3021 	.db #0x07
   0C25 07                 3022 	.db #0x07
   0C26 07                 3023 	.db #0x07
   0C27 07                 3024 	.db #0x07
   0C28 0F                 3025 	.db #0x0F
   0C29 0F                 3026 	.db #0x0F
   0C2A 0F                 3027 	.db #0x0F
   0C2B 0F                 3028 	.db #0x0F
   0C2C 00                 3029 	.db #0x00
   0C2D 00                 3030 	.db #0x00
   0C2E 00                 3031 	.db #0x00
   0C2F 00                 3032 	.db #0x00
   0C30 00                 3033 	.db #0x00
   0C31 00                 3034 	.db #0x00
   0C32 00                 3035 	.db #0x00
   0C33 00                 3036 	.db #0x00
   0C34 C0                 3037 	.db #0xC0
   0C35 C0                 3038 	.db #0xC0
   0C36 FF                 3039 	.db #0xFF
   0C37 FF                 3040 	.db #0xFF
   0C38 FF                 3041 	.db #0xFF
   0C39 FF                 3042 	.db #0xFF
   0C3A FF                 3043 	.db #0xFF
   0C3B FF                 3044 	.db #0xFF
   0C3C 1F                 3045 	.db #0x1F
   0C3D 1F                 3046 	.db #0x1F
   0C3E 1F                 3047 	.db #0x1F
   0C3F 1F                 3048 	.db #0x1F
   0C40 3E                 3049 	.db #0x3E
   0C41 3E                 3050 	.db #0x3E
   0C42 3C                 3051 	.db #0x3C
   0C43 3C                 3052 	.db #0x3C
   0C44 3C                 3053 	.db #0x3C
   0C45 3C                 3054 	.db #0x3C
   0C46 7C                 3055 	.db #0x7C
   0C47 7C                 3056 	.db #0x7C
   0C48 78                 3057 	.db #0x78
   0C49 78                 3058 	.db #0x78
   0C4A 78                 3059 	.db #0x78
   0C4B 78                 3060 	.db #0x78
   0C4C F8                 3061 	.db #0xF8
   0C4D F8                 3062 	.db #0xF8
   0C4E F0                 3063 	.db #0xF0
   0C4F F0                 3064 	.db #0xF0
   0C50 F0                 3065 	.db #0xF0
   0C51 F0                 3066 	.db #0xF0
   0C52 F0                 3067 	.db #0xF0
   0C53 F0                 3068 	.db #0xF0
   0C54 F0                 3069 	.db #0xF0
   0C55 F0                 3070 	.db #0xF0
   0C56 E0                 3071 	.db #0xE0
   0C57 E0                 3072 	.db #0xE0
   0C58 E0                 3073 	.db #0xE0
   0C59 E0                 3074 	.db #0xE0
   0C5A E0                 3075 	.db #0xE0
   0C5B E0                 3076 	.db #0xE0
   0C5C 80                 3077 	.db #0x80
   0C5D 80                 3078 	.db #0x80
   0C5E 80                 3079 	.db #0x80
   0C5F 80                 3080 	.db #0x80
   0C60 00                 3081 	.db #0x00
   0C61 00                 3082 	.db #0x00
   0C62 00                 3083 	.db #0x00
   0C63 00                 3084 	.db #0x00
   0C64 00                 3085 	.db #0x00
   0C65 00                 3086 	.db #0x00
   0C66 01                 3087 	.db #0x01
   0C67 01                 3088 	.db #0x01
   0C68 01                 3089 	.db #0x01
   0C69 01                 3090 	.db #0x01
   0C6A 03                 3091 	.db #0x03
   0C6B 03                 3092 	.db #0x03
   0C6C 03                 3093 	.db #0x03
   0C6D 03                 3094 	.db #0x03
   0C6E 07                 3095 	.db #0x07
   0C6F 07                 3096 	.db #0x07
   0C70 0F                 3097 	.db #0x0F
   0C71 0F                 3098 	.db #0x0F
   0C72 0F                 3099 	.db #0x0F
   0C73 0F                 3100 	.db #0x0F
   0C74 1F                 3101 	.db #0x1F
   0C75 1F                 3102 	.db #0x1F
   0C76 1E                 3103 	.db #0x1E
   0C77 1E                 3104 	.db #0x1E
   0C78 3E                 3105 	.db #0x3E
   0C79 3E                 3106 	.db #0x3E
   0C7A E0                 3107 	.db #0xE0
   0C7B E0                 3108 	.db #0xE0
   0C7C C0                 3109 	.db #0xC0
   0C7D C0                 3110 	.db #0xC0
   0C7E C0                 3111 	.db #0xC0
   0C7F C0                 3112 	.db #0xC0
   0C80 C0                 3113 	.db #0xC0
   0C81 C0                 3114 	.db #0xC0
   0C82 80                 3115 	.db #0x80
   0C83 80                 3116 	.db #0x80
   0C84 81                 3117 	.db #0x81
   0C85 81                 3118 	.db #0x81
   0C86 F1                 3119 	.db #0xF1
   0C87 F1                 3120 	.db #0xF1
   0C88 FF                 3121 	.db #0xFF
   0C89 FF                 3122 	.db #0xFF
   0C8A FF                 3123 	.db #0xFF
   0C8B FF                 3124 	.db #0xFF
   0C8C 3F                 3125 	.db #0x3F
   0C8D 3F                 3126 	.db #0x3F
   0C8E 07                 3127 	.db #0x07
   0C8F 07                 3128 	.db #0x07
   0C90 00                 3129 	.db #0x00
   0C91 00                 3130 	.db #0x00
   0C92 00                 3131 	.db #0x00
   0C93 00                 3132 	.db #0x00
   0C94 00                 3133 	.db #0x00
   0C95 00                 3134 	.db #0x00
   0C96 00                 3135 	.db #0x00
   0C97 00                 3136 	.db #0x00
   0C98 FC                 3137 	.db #0xFC
   0C99 FC                 3138 	.db #0xFC
   0C9A 3C                 3139 	.db #0x3C
   0C9B 3C                 3140 	.db #0x3C
   0C9C 7C                 3141 	.db #0x7C
   0C9D 7C                 3142 	.db #0x7C
   0C9E 78                 3143 	.db #0x78
   0C9F 78                 3144 	.db #0x78
   0CA0 F8                 3145 	.db #0xF8
   0CA1 F8                 3146 	.db #0xF8
   0CA2 F0                 3147 	.db #0xF0
   0CA3 F0                 3148 	.db #0xF0
   0CA4 F0                 3149 	.db #0xF0
   0CA5 F0                 3150 	.db #0xF0
   0CA6 E0                 3151 	.db #0xE0
   0CA7 E0                 3152 	.db #0xE0
   0CA8 E0                 3153 	.db #0xE0
   0CA9 E0                 3154 	.db #0xE0
   0CAA E0                 3155 	.db #0xE0
   0CAB E0                 3156 	.db #0xE0
   0CAC FE                 3157 	.db #0xFE
   0CAD FE                 3158 	.db #0xFE
   0CAE FE                 3159 	.db #0xFE
   0CAF FE                 3160 	.db #0xFE
   0CB0 7C                 3161 	.db #0x7C
   0CB1 7C                 3162 	.db #0x7C
   0CB2 1E                 3163 	.db #0x1E
   0CB3 1E                 3164 	.db #0x1E
   0CB4 3E                 3165 	.db #0x3E
   0CB5 3E                 3166 	.db #0x3E
   0CB6 3C                 3167 	.db #0x3C
   0CB7 3C                 3168 	.db #0x3C
   0CB8 3F                 3169 	.db #0x3F
   0CB9 3F                 3170 	.db #0x3F
   0CBA 3F                 3171 	.db #0x3F
   0CBB 3F                 3172 	.db #0x3F
   0CBC 3C                 3173 	.db #0x3C
   0CBD 3C                 3174 	.db #0x3C
   0CBE 7C                 3175 	.db #0x7C
   0CBF 7C                 3176 	.db #0x7C
   0CC0 78                 3177 	.db #0x78
   0CC1 78                 3178 	.db #0x78
   0CC2 F8                 3179 	.db #0xF8
   0CC3 F8                 3180 	.db #0xF8
   0CC4 F0                 3181 	.db #0xF0
   0CC5 F0                 3182 	.db #0xF0
   0CC6 F0                 3183 	.db #0xF0
   0CC7 F0                 3184 	.db #0xF0
   0CC8 E0                 3185 	.db #0xE0
   0CC9 E0                 3186 	.db #0xE0
   0CCA E0                 3187 	.db #0xE0
   0CCB E0                 3188 	.db #0xE0
   0CCC C0                 3189 	.db #0xC0
   0CCD C0                 3190 	.db #0xC0
   0CCE C0                 3191 	.db #0xC0
   0CCF C0                 3192 	.db #0xC0
   0CD0 80                 3193 	.db #0x80
   0CD1 80                 3194 	.db #0x80
   0CD2 87                 3195 	.db #0x87
   0CD3 87                 3196 	.db #0x87
   0CD4 0F                 3197 	.db #0x0F
   0CD5 0F                 3198 	.db #0x0F
   0CD6 0F                 3199 	.db #0x0F
   0CD7 0F                 3200 	.db #0x0F
   0CD8 03                 3201 	.db #0x03
   0CD9 03                 3202 	.db #0x03
   0CDA FF                 3203 	.db #0xFF
   0CDB FF                 3204 	.db #0xFF
   0CDC 07                 3205 	.db #0x07
   0CDD 07                 3206 	.db #0x07
   0CDE 07                 3207 	.db #0x07
   0CDF 07                 3208 	.db #0x07
   0CE0 03                 3209 	.db #0x03
   0CE1 03                 3210 	.db #0x03
   0CE2 03                 3211 	.db #0x03
   0CE3 03                 3212 	.db #0x03
   0CE4 03                 3213 	.db #0x03
   0CE5 03                 3214 	.db #0x03
   0CE6 03                 3215 	.db #0x03
   0CE7 03                 3216 	.db #0x03
   0CE8 03                 3217 	.db #0x03
   0CE9 03                 3218 	.db #0x03
   0CEA 03                 3219 	.db #0x03
   0CEB 03                 3220 	.db #0x03
   0CEC 01                 3221 	.db #0x01
   0CED 01                 3222 	.db #0x01
   0CEE 01                 3223 	.db #0x01
   0CEF 01                 3224 	.db #0x01
   0CF0 01                 3225 	.db #0x01
   0CF1 01                 3226 	.db #0x01
   0CF2 F1                 3227 	.db #0xF1
   0CF3 F1                 3228 	.db #0xF1
   0CF4 F1                 3229 	.db #0xF1
   0CF5 F1                 3230 	.db #0xF1
   0CF6 E0                 3231 	.db #0xE0
   0CF7 E0                 3232 	.db #0xE0
   0CF8 C0                 3233 	.db #0xC0
   0CF9 C0                 3234 	.db #0xC0
   0CFA 03                 3235 	.db #0x03
   0CFB 03                 3236 	.db #0x03
   0CFC 00                 3237 	.db #0x00
   0CFD 00                 3238 	.db #0x00
   0CFE 00                 3239 	.db #0x00
   0CFF 00                 3240 	.db #0x00
   0D00 00                 3241 	.db #0x00
   0D01 00                 3242 	.db #0x00
   0D02 07                 3243 	.db #0x07
   0D03 07                 3244 	.db #0x07
   0D04 07                 3245 	.db #0x07
   0D05 07                 3246 	.db #0x07
   0D06 3F                 3247 	.db #0x3F
   0D07 3F                 3248 	.db #0x3F
   0D08 3C                 3249 	.db #0x3C
   0D09 3C                 3250 	.db #0x3C
   0D0A 38                 3251 	.db #0x38
   0D0B 38                 3252 	.db #0x38
   0D0C 78                 3253 	.db #0x78
   0D0D 78                 3254 	.db #0x78
   0D0E 78                 3255 	.db #0x78
   0D0F 78                 3256 	.db #0x78
   0D10 78                 3257 	.db #0x78
   0D11 78                 3258 	.db #0x78
   0D12 78                 3259 	.db #0x78
   0D13 78                 3260 	.db #0x78
   0D14 78                 3261 	.db #0x78
   0D15 78                 3262 	.db #0x78
   0D16 F8                 3263 	.db #0xF8
   0D17 F8                 3264 	.db #0xF8
   0D18 F0                 3265 	.db #0xF0
   0D19 F0                 3266 	.db #0xF0
   0D1A C0                 3267 	.db #0xC0
   0D1B C0                 3268 	.db #0xC0
   0D1C 00                 3269 	.db #0x00
   0D1D 00                 3270 	.db #0x00
   0D1E 00                 3271 	.db #0x00
   0D1F 00                 3272 	.db #0x00
   0D20 00                 3273 	.db #0x00
   0D21 00                 3274 	.db #0x00
   0D22 E0                 3275 	.db #0xE0
   0D23 E0                 3276 	.db #0xE0
   0D24 E0                 3277 	.db #0xE0
   0D25 E0                 3278 	.db #0xE0
   0D26 F0                 3279 	.db #0xF0
   0D27 F0                 3280 	.db #0xF0
   0D28 F0                 3281 	.db #0xF0
   0D29 F0                 3282 	.db #0xF0
   0D2A F0                 3283 	.db #0xF0
   0D2B F0                 3284 	.db #0xF0
   0D2C F0                 3285 	.db #0xF0
   0D2D F0                 3286 	.db #0xF0
   0D2E F0                 3287 	.db #0xF0
   0D2F F0                 3288 	.db #0xF0
   0D30 F0                 3289 	.db #0xF0
   0D31 F0                 3290 	.db #0xF0
   0D32 F0                 3291 	.db #0xF0
   0D33 F0                 3292 	.db #0xF0
   0D34 F0                 3293 	.db #0xF0
   0D35 F0                 3294 	.db #0xF0
   0D36 F0                 3295 	.db #0xF0
   0D37 F0                 3296 	.db #0xF0
   0D38 FF                 3297 	.db #0xFF
   0D39 FF                 3298 	.db #0xFF
   0D3A EE                 3299 	.db #0xEE
   0D3B EE                 3300 	.db #0xEE
   0D3C F6                 3301 	.db #0xF6
   0D3D F6                 3302 	.db #0xF6
   0D3E E0                 3303 	.db #0xE0
   0D3F E0                 3304 	.db #0xE0
   0D40 E0                 3305 	.db #0xE0
   0D41 E0                 3306 	.db #0xE0
   0D42 E0                 3307 	.db #0xE0
   0D43 E0                 3308 	.db #0xE0
   0D44 E0                 3309 	.db #0xE0
   0D45 E0                 3310 	.db #0xE0
   0D46 E0                 3311 	.db #0xE0
   0D47 E0                 3312 	.db #0xE0
   0D48 E0                 3313 	.db #0xE0
   0D49 E0                 3314 	.db #0xE0
   0D4A E0                 3315 	.db #0xE0
   0D4B E0                 3316 	.db #0xE0
   0D4C E0                 3317 	.db #0xE0
   0D4D E0                 3318 	.db #0xE0
   0D4E E0                 3319 	.db #0xE0
   0D4F E0                 3320 	.db #0xE0
   0D50 E0                 3321 	.db #0xE0
   0D51 E0                 3322 	.db #0xE0
   0D52 E0                 3323 	.db #0xE0
   0D53 E0                 3324 	.db #0xE0
   0D54 F0                 3325 	.db #0xF0
   0D55 F0                 3326 	.db #0xF0
   0D56 F0                 3327 	.db #0xF0
   0D57 F0                 3328 	.db #0xF0
   0D58 F0                 3329 	.db #0xF0
   0D59 F0                 3330 	.db #0xF0
   0D5A FF                 3331 	.db #0xFF
   0D5B FF                 3332 	.db #0xFF
   0D5C FF                 3333 	.db #0xFF
   0D5D FF                 3334 	.db #0xFF
   0D5E 7F                 3335 	.db #0x7F
   0D5F 7F                 3336 	.db #0x7F
   0D60 7F                 3337 	.db #0x7F
   0D61 7F                 3338 	.db #0x7F
   0D62 00                 3339 	.db #0x00
   0D63 00                 3340 	.db #0x00
   0D64 7F                 3341 	.db #0x7F
   0D65 7F                 3342 	.db #0x7F
   0D66 7F                 3343 	.db #0x7F
   0D67 7F                 3344 	.db #0x7F
   0D68 7F                 3345 	.db #0x7F
   0D69 7F                 3346 	.db #0x7F
   0D6A 7F                 3347 	.db #0x7F
   0D6B 7F                 3348 	.db #0x7F
   0D6C FF                 3349 	.db #0xFF
   0D6D FF                 3350 	.db #0xFF
   0D6E FF                 3351 	.db #0xFF
   0D6F FF                 3352 	.db #0xFF
   0D70 FF                 3353 	.db #0xFF
   0D71 FF                 3354 	.db #0xFF
   0D72 FF                 3355 	.db #0xFF
   0D73 FF                 3356 	.db #0xFF
   0D74 FF                 3357 	.db #0xFF
   0D75 FF                 3358 	.db #0xFF
   0D76 FF                 3359 	.db #0xFF
   0D77 FF                 3360 	.db #0xFF
   0D78 FF                 3361 	.db #0xFF
   0D79 FF                 3362 	.db #0xFF
   0D7A F0                 3363 	.db #0xF0
   0D7B F0                 3364 	.db #0xF0
   0D7C F0                 3365 	.db #0xF0
   0D7D F0                 3366 	.db #0xF0
   0D7E F0                 3367 	.db #0xF0
   0D7F F0                 3368 	.db #0xF0
   0D80 F0                 3369 	.db #0xF0
   0D81 F0                 3370 	.db #0xF0
   0D82 78                 3371 	.db #0x78
   0D83 78                 3372 	.db #0x78
   0D84 78                 3373 	.db #0x78
   0D85 78                 3374 	.db #0x78
   0D86 78                 3375 	.db #0x78
   0D87 78                 3376 	.db #0x78
   0D88 78                 3377 	.db #0x78
   0D89 78                 3378 	.db #0x78
   0D8A 78                 3379 	.db #0x78
   0D8B 78                 3380 	.db #0x78
   0D8C 3C                 3381 	.db #0x3C
   0D8D 3C                 3382 	.db #0x3C
   0D8E 3C                 3383 	.db #0x3C
   0D8F 3C                 3384 	.db #0x3C
   0D90 3C                 3385 	.db #0x3C
   0D91 3C                 3386 	.db #0x3C
   0D92 3C                 3387 	.db #0x3C
   0D93 3C                 3388 	.db #0x3C
   0D94 3C                 3389 	.db #0x3C
   0D95 3C                 3390 	.db #0x3C
   0D96 3C                 3391 	.db #0x3C
   0D97 3C                 3392 	.db #0x3C
   0D98 FF                 3393 	.db #0xFF
   0D99 FF                 3394 	.db #0xFF
   0D9A FF                 3395 	.db #0xFF
   0D9B FF                 3396 	.db #0xFF
   0D9C FF                 3397 	.db #0xFF
   0D9D FF                 3398 	.db #0xFF
   0D9E 3F                 3399 	.db #0x3F
   0D9F 3F                 3400 	.db #0x3F
   0DA0 3F                 3401 	.db #0x3F
   0DA1 3F                 3402 	.db #0x3F
   0DA2 00                 3403 	.db #0x00
   0DA3 00                 3404 	.db #0x00
   0DA4 00                 3405 	.db #0x00
   0DA5 00                 3406 	.db #0x00
   0DA6 00                 3407 	.db #0x00
   0DA7 00                 3408 	.db #0x00
   0DA8 00                 3409 	.db #0x00
   0DA9 00                 3410 	.db #0x00
   0DAA 00                 3411 	.db #0x00
   0DAB 00                 3412 	.db #0x00
   0DAC 00                 3413 	.db #0x00
   0DAD 00                 3414 	.db #0x00
   0DAE 00                 3415 	.db #0x00
   0DAF 00                 3416 	.db #0x00
   0DB0 00                 3417 	.db #0x00
   0DB1 00                 3418 	.db #0x00
   0DB2 00                 3419 	.db #0x00
   0DB3 00                 3420 	.db #0x00
   0DB4 00                 3421 	.db #0x00
   0DB5 00                 3422 	.db #0x00
   0DB6 00                 3423 	.db #0x00
   0DB7 00                 3424 	.db #0x00
   0DB8 FF                 3425 	.db #0xFF
   0DB9 FF                 3426 	.db #0xFF
   0DBA DD                 3427 	.db #0xDD
   0DBB DD                 3428 	.db #0xDD
   0DBC DD                 3429 	.db #0xDD
   0DBD DD                 3430 	.db #0xDD
   0DBE FB                 3431 	.db #0xFB
   0DBF FB                 3432 	.db #0xFB
   0DC0 F7                 3433 	.db #0xF7
   0DC1 F7                 3434 	.db #0xF7
   0DC2 0F                 3435 	.db #0x0F
   0DC3 0F                 3436 	.db #0x0F
   0DC4 81                 3437 	.db #0x81
   0DC5 81                 3438 	.db #0x81
   0DC6 81                 3439 	.db #0x81
   0DC7 81                 3440 	.db #0x81
   0DC8 81                 3441 	.db #0x81
   0DC9 81                 3442 	.db #0x81
   0DCA 81                 3443 	.db #0x81
   0DCB 81                 3444 	.db #0x81
   0DCC 81                 3445 	.db #0x81
   0DCD 81                 3446 	.db #0x81
   0DCE 81                 3447 	.db #0x81
   0DCF 81                 3448 	.db #0x81
   0DD0 81                 3449 	.db #0x81
   0DD1 81                 3450 	.db #0x81
   0DD2 81                 3451 	.db #0x81
   0DD3 81                 3452 	.db #0x81
   0DD4 C0                 3453 	.db #0xC0
   0DD5 C0                 3454 	.db #0xC0
   0DD6 C0                 3455 	.db #0xC0
   0DD7 C0                 3456 	.db #0xC0
   0DD8 C0                 3457 	.db #0xC0
   0DD9 C0                 3458 	.db #0xC0
   0DDA FF                 3459 	.db #0xFF
   0DDB FF                 3460 	.db #0xFF
   0DDC FF                 3461 	.db #0xFF
   0DDD FF                 3462 	.db #0xFF
   0DDE FF                 3463 	.db #0xFF
   0DDF FF                 3464 	.db #0xFF
   0DE0 FE                 3465 	.db #0xFE
   0DE1 FE                 3466 	.db #0xFE
   0DE2 FE                 3467 	.db #0xFE
   0DE3 FE                 3468 	.db #0xFE
   0DE4 FC                 3469 	.db #0xFC
   0DE5 FC                 3470 	.db #0xFC
   0DE6 F8                 3471 	.db #0xF8
   0DE7 F8                 3472 	.db #0xF8
   0DE8 E0                 3473 	.db #0xE0
   0DE9 E0                 3474 	.db #0xE0
   0DEA E0                 3475 	.db #0xE0
   0DEB E0                 3476 	.db #0xE0
   0DEC E0                 3477 	.db #0xE0
   0DED E0                 3478 	.db #0xE0
   0DEE E0                 3479 	.db #0xE0
   0DEF E0                 3480 	.db #0xE0
   0DF0 E0                 3481 	.db #0xE0
   0DF1 E0                 3482 	.db #0xE0
   0DF2 E0                 3483 	.db #0xE0
   0DF3 E0                 3484 	.db #0xE0
   0DF4 F0                 3485 	.db #0xF0
   0DF5 F0                 3486 	.db #0xF0
   0DF6 F0                 3487 	.db #0xF0
   0DF7 F0                 3488 	.db #0xF0
   0DF8 F7                 3489 	.db #0xF7
   0DF9 F7                 3490 	.db #0xF7
   0DFA C0                 3491 	.db #0xC0
   0DFB C0                 3492 	.db #0xC0
   0DFC C0                 3493 	.db #0xC0
   0DFD C0                 3494 	.db #0xC0
   0DFE C0                 3495 	.db #0xC0
   0DFF C0                 3496 	.db #0xC0
   0E00 C0                 3497 	.db #0xC0
   0E01 C0                 3498 	.db #0xC0
   0E02 00                 3499 	.db #0x00
   0E03 00                 3500 	.db #0x00
   0E04 00                 3501 	.db #0x00
   0E05 00                 3502 	.db #0x00
   0E06 01                 3503 	.db #0x01
   0E07 01                 3504 	.db #0x01
   0E08 03                 3505 	.db #0x03
   0E09 03                 3506 	.db #0x03
   0E0A 07                 3507 	.db #0x07
   0E0B 07                 3508 	.db #0x07
   0E0C 0F                 3509 	.db #0x0F
   0E0D 0F                 3510 	.db #0x0F
   0E0E 0F                 3511 	.db #0x0F
   0E0F 0F                 3512 	.db #0x0F
   0E10 1E                 3513 	.db #0x1E
   0E11 1E                 3514 	.db #0x1E
   0E12 3E                 3515 	.db #0x3E
   0E13 3E                 3516 	.db #0x3E
   0E14 7C                 3517 	.db #0x7C
   0E15 7C                 3518 	.db #0x7C
   0E16 FE                 3519 	.db #0xFE
   0E17 FE                 3520 	.db #0xFE
   0E18 FF                 3521 	.db #0xFF
   0E19 FF                 3522 	.db #0xFF
   0E1A F7                 3523 	.db #0xF7
   0E1B F7                 3524 	.db #0xF7
   0E1C FF                 3525 	.db #0xFF
   0E1D FF                 3526 	.db #0xFF
   0E1E F7                 3527 	.db #0xF7
   0E1F F7                 3528 	.db #0xF7
   0E20 F1                 3529 	.db #0xF1
   0E21 F1                 3530 	.db #0xF1
   0E22 F0                 3531 	.db #0xF0
   0E23 F0                 3532 	.db #0xF0
   0E24 F0                 3533 	.db #0xF0
   0E25 F0                 3534 	.db #0xF0
   0E26 FC                 3535 	.db #0xFC
   0E27 FC                 3536 	.db #0xFC
   0E28 FE                 3537 	.db #0xFE
   0E29 FE                 3538 	.db #0xFE
   0E2A FF                 3539 	.db #0xFF
   0E2B FF                 3540 	.db #0xFF
   0E2C 9F                 3541 	.db #0x9F
   0E2D 9F                 3542 	.db #0x9F
   0E2E 0F                 3543 	.db #0x0F
   0E2F 0F                 3544 	.db #0x0F
   0E30 03                 3545 	.db #0x03
   0E31 03                 3546 	.db #0x03
   0E32 00                 3547 	.db #0x00
   0E33 00                 3548 	.db #0x00
   0E34 00                 3549 	.db #0x00
   0E35 00                 3550 	.db #0x00
   0E36 00                 3551 	.db #0x00
   0E37 00                 3552 	.db #0x00
   0E38 80                 3553 	.db #0x80
   0E39 80                 3554 	.db #0x80
   0E3A FC                 3555 	.db #0xFC
   0E3B FC                 3556 	.db #0xFC
   0E3C FE                 3557 	.db #0xFE
   0E3D FE                 3558 	.db #0xFE
   0E3E 3F                 3559 	.db #0x3F
   0E3F 3F                 3560 	.db #0x3F
   0E40 0F                 3561 	.db #0x0F
   0E41 0F                 3562 	.db #0x0F
   0E42 07                 3563 	.db #0x07
   0E43 07                 3564 	.db #0x07
   0E44 03                 3565 	.db #0x03
   0E45 03                 3566 	.db #0x03
   0E46 01                 3567 	.db #0x01
   0E47 01                 3568 	.db #0x01
   0E48 00                 3569 	.db #0x00
   0E49 00                 3570 	.db #0x00
   0E4A 00                 3571 	.db #0x00
   0E4B 00                 3572 	.db #0x00
   0E4C 00                 3573 	.db #0x00
   0E4D 00                 3574 	.db #0x00
   0E4E 00                 3575 	.db #0x00
   0E4F 00                 3576 	.db #0x00
   0E50 00                 3577 	.db #0x00
   0E51 00                 3578 	.db #0x00
   0E52 03                 3579 	.db #0x03
   0E53 03                 3580 	.db #0x03
   0E54 03                 3581 	.db #0x03
   0E55 03                 3582 	.db #0x03
   0E56 07                 3583 	.db #0x07
   0E57 07                 3584 	.db #0x07
   0E58 03                 3585 	.db #0x03
   0E59 03                 3586 	.db #0x03
   0E5A 00                 3587 	.db #0x00
   0E5B 00                 3588 	.db #0x00
   0E5C 00                 3589 	.db #0x00
   0E5D 00                 3590 	.db #0x00
   0E5E 9F                 3591 	.db #0x9F
   0E5F 9F                 3592 	.db #0x9F
   0E60 FF                 3593 	.db #0xFF
   0E61 FF                 3594 	.db #0xFF
   0E62 FF                 3595 	.db #0xFF
   0E63 FF                 3596 	.db #0xFF
   0E64 F8                 3597 	.db #0xF8
   0E65 F8                 3598 	.db #0xF8
   0E66 FE                 3599 	.db #0xFE
   0E67 FE                 3600 	.db #0xFE
   0E68 7F                 3601 	.db #0x7F
   0E69 7F                 3602 	.db #0x7F
   0E6A 3F                 3603 	.db #0x3F
   0E6B 3F                 3604 	.db #0x3F
   0E6C 0F                 3605 	.db #0x0F
   0E6D 0F                 3606 	.db #0x0F
   0E6E 07                 3607 	.db #0x07
   0E6F 07                 3608 	.db #0x07
   0E70 03                 3609 	.db #0x03
   0E71 03                 3610 	.db #0x03
   0E72 FF                 3611 	.db #0xFF
   0E73 FF                 3612 	.db #0xFF
   0E74 FF                 3613 	.db #0xFF
   0E75 FF                 3614 	.db #0xFF
   0E76 FF                 3615 	.db #0xFF
   0E77 FF                 3616 	.db #0xFF
   0E78 F8                 3617 	.db #0xF8
   0E79 F8                 3618 	.db #0xF8
   0E7A C0                 3619 	.db #0xC0
   0E7B C0                 3620 	.db #0xC0
   0E7C F0                 3621 	.db #0xF0
   0E7D F0                 3622 	.db #0xF0
   0E7E F8                 3623 	.db #0xF8
   0E7F F8                 3624 	.db #0xF8
   0E80 FC                 3625 	.db #0xFC
   0E81 FC                 3626 	.db #0xFC
   0E82 7F                 3627 	.db #0x7F
   0E83 7F                 3628 	.db #0x7F
   0E84 3E                 3629 	.db #0x3E
   0E85 3E                 3630 	.db #0x3E
   0E86 1E                 3631 	.db #0x1E
   0E87 1E                 3632 	.db #0x1E
   0E88 1F                 3633 	.db #0x1F
   0E89 1F                 3634 	.db #0x1F
   0E8A BE                 3635 	.db #0xBE
   0E8B BE                 3636 	.db #0xBE
   0E8C FC                 3637 	.db #0xFC
   0E8D FC                 3638 	.db #0xFC
   0E8E F8                 3639 	.db #0xF8
   0E8F F8                 3640 	.db #0xF8
   0E90 F0                 3641 	.db #0xF0
   0E91 F0                 3642 	.db #0xF0
   0E92 00                 3643 	.db #0x00
   0E93 00                 3644 	.db #0x00
   0E94 00                 3645 	.db #0x00
   0E95 00                 3646 	.db #0x00
   0E96 00                 3647 	.db #0x00
   0E97 00                 3648 	.db #0x00
   0E98 00                 3649 	.db #0x00
   0E99 00                 3650 	.db #0x00
   0E9A FC                 3651 	.db #0xFC
   0E9B FC                 3652 	.db #0xFC
   0E9C 7F                 3653 	.db #0x7F
   0E9D 7F                 3654 	.db #0x7F
   0E9E 3F                 3655 	.db #0x3F
   0E9F 3F                 3656 	.db #0x3F
   0EA0 1F                 3657 	.db #0x1F
   0EA1 1F                 3658 	.db #0x1F
   0EA2 07                 3659 	.db #0x07
   0EA3 07                 3660 	.db #0x07
   0EA4 03                 3661 	.db #0x03
   0EA5 03                 3662 	.db #0x03
   0EA6 03                 3663 	.db #0x03
   0EA7 03                 3664 	.db #0x03
   0EA8 03                 3665 	.db #0x03
   0EA9 03                 3666 	.db #0x03
   0EAA 07                 3667 	.db #0x07
   0EAB 07                 3668 	.db #0x07
   0EAC 07                 3669 	.db #0x07
   0EAD 07                 3670 	.db #0x07
   0EAE 07                 3671 	.db #0x07
   0EAF 07                 3672 	.db #0x07
   0EB0 07                 3673 	.db #0x07
   0EB1 07                 3674 	.db #0x07
   0EB2 07                 3675 	.db #0x07
   0EB3 07                 3676 	.db #0x07
   0EB4 07                 3677 	.db #0x07
   0EB5 07                 3678 	.db #0x07
   0EB6 0F                 3679 	.db #0x0F
   0EB7 0F                 3680 	.db #0x0F
   0EB8 0F                 3681 	.db #0x0F
   0EB9 0F                 3682 	.db #0x0F
   0EBA 07                 3683 	.db #0x07
   0EBB 07                 3684 	.db #0x07
   0EBC 01                 3685 	.db #0x01
   0EBD 01                 3686 	.db #0x01
   0EBE FF                 3687 	.db #0xFF
   0EBF FF                 3688 	.db #0xFF
   0EC0 FF                 3689 	.db #0xFF
   0EC1 FF                 3690 	.db #0xFF
   0EC2 FF                 3691 	.db #0xFF
   0EC3 FF                 3692 	.db #0xFF
   0EC4 00                 3693 	.db #0x00
   0EC5 00                 3694 	.db #0x00
   0EC6 00                 3695 	.db #0x00
   0EC7 00                 3696 	.db #0x00
   0EC8 00                 3697 	.db #0x00
   0EC9 00                 3698 	.db #0x00
   0ECA 80                 3699 	.db #0x80
   0ECB 80                 3700 	.db #0x80
   0ECC E0                 3701 	.db #0xE0
   0ECD E0                 3702 	.db #0xE0
   0ECE F0                 3703 	.db #0xF0
   0ECF F0                 3704 	.db #0xF0
   0ED0 E0                 3705 	.db #0xE0
   0ED1 E0                 3706 	.db #0xE0
   0ED2 F0                 3707 	.db #0xF0
   0ED3 F0                 3708 	.db #0xF0
   0ED4 F0                 3709 	.db #0xF0
   0ED5 F0                 3710 	.db #0xF0
   0ED6 F0                 3711 	.db #0xF0
   0ED7 F0                 3712 	.db #0xF0
   0ED8 F0                 3713 	.db #0xF0
   0ED9 F0                 3714 	.db #0xF0
   0EDA E0                 3715 	.db #0xE0
   0EDB E0                 3716 	.db #0xE0
   0EDC E0                 3717 	.db #0xE0
   0EDD E0                 3718 	.db #0xE0
   0EDE C0                 3719 	.db #0xC0
   0EDF C0                 3720 	.db #0xC0
   0EE0 FF                 3721 	.db #0xFF
   0EE1 FF                 3722 	.db #0xFF
   0EE2 FF                 3723 	.db #0xFF
   0EE3 FF                 3724 	.db #0xFF
   0EE4 7F                 3725 	.db #0x7F
   0EE5 7F                 3726 	.db #0x7F
   0EE6 00                 3727 	.db #0x00
   0EE7 00                 3728 	.db #0x00
   0EE8 00                 3729 	.db #0x00
   0EE9 00                 3730 	.db #0x00
   0EEA 00                 3731 	.db #0x00
   0EEB 00                 3732 	.db #0x00
   0EEC 00                 3733 	.db #0x00
   0EED 00                 3734 	.db #0x00
   0EEE 00                 3735 	.db #0x00
   0EEF 00                 3736 	.db #0x00
   0EF0 00                 3737 	.db #0x00
   0EF1 00                 3738 	.db #0x00
   0EF2 00                 3739 	.db #0x00
   0EF3 00                 3740 	.db #0x00
   0EF4 07                 3741 	.db #0x07
   0EF5 07                 3742 	.db #0x07
   0EF6 07                 3743 	.db #0x07
   0EF7 07                 3744 	.db #0x07
   0EF8 3F                 3745 	.db #0x3F
   0EF9 3F                 3746 	.db #0x3F
   0EFA F0                 3747 	.db #0xF0
   0EFB F0                 3748 	.db #0xF0
   0EFC F0                 3749 	.db #0xF0
   0EFD F0                 3750 	.db #0xF0
   0EFE E0                 3751 	.db #0xE0
   0EFF E0                 3752 	.db #0xE0
   0F00 E0                 3753 	.db #0xE0
   0F01 E0                 3754 	.db #0xE0
   0F02 E0                 3755 	.db #0xE0
   0F03 E0                 3756 	.db #0xE0
   0F04 C0                 3757 	.db #0xC0
   0F05 C0                 3758 	.db #0xC0
   0F06 C0                 3759 	.db #0xC0
   0F07 C0                 3760 	.db #0xC0
   0F08 C0                 3761 	.db #0xC0
   0F09 C0                 3762 	.db #0xC0
   0F0A 80                 3763 	.db #0x80
   0F0B 80                 3764 	.db #0x80
   0F0C 80                 3765 	.db #0x80
   0F0D 80                 3766 	.db #0x80
   0F0E 80                 3767 	.db #0x80
   0F0F 80                 3768 	.db #0x80
   0F10 80                 3769 	.db #0x80
   0F11 80                 3770 	.db #0x80
   0F12 80                 3771 	.db #0x80
   0F13 80                 3772 	.db #0x80
   0F14 80                 3773 	.db #0x80
   0F15 80                 3774 	.db #0x80
   0F16 00                 3775 	.db #0x00
   0F17 00                 3776 	.db #0x00
   0F18 00                 3777 	.db #0x00
   0F19 00                 3778 	.db #0x00
   0F1A 3C                 3779 	.db #0x3C
   0F1B 3C                 3780 	.db #0x3C
   0F1C 3C                 3781 	.db #0x3C
   0F1D 3C                 3782 	.db #0x3C
   0F1E 3C                 3783 	.db #0x3C
   0F1F 3C                 3784 	.db #0x3C
   0F20 3C                 3785 	.db #0x3C
   0F21 3C                 3786 	.db #0x3C
   0F22 3C                 3787 	.db #0x3C
   0F23 3C                 3788 	.db #0x3C
   0F24 3C                 3789 	.db #0x3C
   0F25 3C                 3790 	.db #0x3C
   0F26 3C                 3791 	.db #0x3C
   0F27 3C                 3792 	.db #0x3C
   0F28 3C                 3793 	.db #0x3C
   0F29 3C                 3794 	.db #0x3C
   0F2A 3C                 3795 	.db #0x3C
   0F2B 3C                 3796 	.db #0x3C
   0F2C 3C                 3797 	.db #0x3C
   0F2D 3C                 3798 	.db #0x3C
   0F2E 3C                 3799 	.db #0x3C
   0F2F 3C                 3800 	.db #0x3C
   0F30 3C                 3801 	.db #0x3C
   0F31 3C                 3802 	.db #0x3C
   0F32 3C                 3803 	.db #0x3C
   0F33 3C                 3804 	.db #0x3C
   0F34 3C                 3805 	.db #0x3C
   0F35 3C                 3806 	.db #0x3C
   0F36 3C                 3807 	.db #0x3C
   0F37 3C                 3808 	.db #0x3C
   0F38 3C                 3809 	.db #0x3C
   0F39 3C                 3810 	.db #0x3C
   0F3A F8                 3811 	.db #0xF8
   0F3B F8                 3812 	.db #0xF8
   0F3C 78                 3813 	.db #0x78
   0F3D 78                 3814 	.db #0x78
   0F3E 00                 3815 	.db #0x00
   0F3F 00                 3816 	.db #0x00
   0F40 FF                 3817 	.db #0xFF
   0F41 FF                 3818 	.db #0xFF
   0F42 FF                 3819 	.db #0xFF
   0F43 FF                 3820 	.db #0xFF
   0F44 FF                 3821 	.db #0xFF
   0F45 FF                 3822 	.db #0xFF
   0F46 03                 3823 	.db #0x03
   0F47 03                 3824 	.db #0x03
   0F48 03                 3825 	.db #0x03
   0F49 03                 3826 	.db #0x03
   0F4A 03                 3827 	.db #0x03
   0F4B 03                 3828 	.db #0x03
   0F4C 03                 3829 	.db #0x03
   0F4D 03                 3830 	.db #0x03
   0F4E 03                 3831 	.db #0x03
   0F4F 03                 3832 	.db #0x03
   0F50 07                 3833 	.db #0x07
   0F51 07                 3834 	.db #0x07
   0F52 07                 3835 	.db #0x07
   0F53 07                 3836 	.db #0x07
   0F54 FF                 3837 	.db #0xFF
   0F55 FF                 3838 	.db #0xFF
   0F56 FF                 3839 	.db #0xFF
   0F57 FF                 3840 	.db #0xFF
   0F58 FF                 3841 	.db #0xFF
   0F59 FF                 3842 	.db #0xFF
   0F5A 00                 3843 	.db #0x00
   0F5B 00                 3844 	.db #0x00
   0F5C 00                 3845 	.db #0x00
   0F5D 00                 3846 	.db #0x00
   0F5E 00                 3847 	.db #0x00
   0F5F 00                 3848 	.db #0x00
   0F60 80                 3849 	.db #0x80
   0F61 80                 3850 	.db #0x80
   0F62 80                 3851 	.db #0x80
   0F63 80                 3852 	.db #0x80
   0F64 80                 3853 	.db #0x80
   0F65 80                 3854 	.db #0x80
   0F66 C0                 3855 	.db #0xC0
   0F67 C0                 3856 	.db #0xC0
   0F68 C0                 3857 	.db #0xC0
   0F69 C0                 3858 	.db #0xC0
   0F6A C0                 3859 	.db #0xC0
   0F6B C0                 3860 	.db #0xC0
   0F6C C0                 3861 	.db #0xC0
   0F6D C0                 3862 	.db #0xC0
   0F6E C0                 3863 	.db #0xC0
   0F6F C0                 3864 	.db #0xC0
   0F70 80                 3865 	.db #0x80
   0F71 80                 3866 	.db #0x80
   0F72 80                 3867 	.db #0x80
   0F73 80                 3868 	.db #0x80
   0F74 80                 3869 	.db #0x80
   0F75 80                 3870 	.db #0x80
   0F76 80                 3871 	.db #0x80
   0F77 80                 3872 	.db #0x80
   0F78 80                 3873 	.db #0x80
   0F79 80                 3874 	.db #0x80
   0F7A 00                 3875 	.db #0x00
   0F7B 00                 3876 	.db #0x00
   0F7C 00                 3877 	.db #0x00
   0F7D 00                 3878 	.db #0x00
   0F7E 00                 3879 	.db #0x00
   0F7F 00                 3880 	.db #0x00
   0F80 00                 3881 	.db #0x00
   0F81 00                 3882 	.db #0x00
   0F82 00                 3883 	.db #0x00
   0F83 00                 3884 	.db #0x00
   0F84 00                 3885 	.db #0x00
   0F85 00                 3886 	.db #0x00
   0F86 00                 3887 	.db #0x00
   0F87 00                 3888 	.db #0x00
   0F88 00                 3889 	.db #0x00
   0F89 00                 3890 	.db #0x00
   0F8A 00                 3891 	.db #0x00
   0F8B 00                 3892 	.db #0x00
   0F8C 00                 3893 	.db #0x00
   0F8D 00                 3894 	.db #0x00
   0F8E 00                 3895 	.db #0x00
   0F8F 00                 3896 	.db #0x00
   0F90 00                 3897 	.db #0x00
   0F91 00                 3898 	.db #0x00
   0F92 00                 3899 	.db #0x00
   0F93 00                 3900 	.db #0x00
   0F94 00                 3901 	.db #0x00
   0F95 00                 3902 	.db #0x00
   0F96 00                 3903 	.db #0x00
   0F97 00                 3904 	.db #0x00
   0F98 00                 3905 	.db #0x00
   0F99 00                 3906 	.db #0x00
   0F9A 00                 3907 	.db #0x00
   0F9B 00                 3908 	.db #0x00
   0F9C 00                 3909 	.db #0x00
   0F9D 00                 3910 	.db #0x00
   0F9E 00                 3911 	.db #0x00
   0F9F 00                 3912 	.db #0x00
   0FA0 00                 3913 	.db #0x00
   0FA1 00                 3914 	.db #0x00
   0FA2 00                 3915 	.db #0x00
   0FA3 00                 3916 	.db #0x00
   0FA4 00                 3917 	.db #0x00
   0FA5 00                 3918 	.db #0x00
   0FA6 00                 3919 	.db #0x00
   0FA7 00                 3920 	.db #0x00
   0FA8 00                 3921 	.db #0x00
   0FA9 00                 3922 	.db #0x00
   0FAA 00                 3923 	.db #0x00
   0FAB 00                 3924 	.db #0x00
   0FAC 00                 3925 	.db #0x00
   0FAD 00                 3926 	.db #0x00
   0FAE 00                 3927 	.db #0x00
   0FAF 00                 3928 	.db #0x00
   0FB0 00                 3929 	.db #0x00
   0FB1 00                 3930 	.db #0x00
   0FB2 00                 3931 	.db #0x00
   0FB3 00                 3932 	.db #0x00
   0FB4 00                 3933 	.db #0x00
   0FB5 00                 3934 	.db #0x00
   0FB6 00                 3935 	.db #0x00
   0FB7 00                 3936 	.db #0x00
   0FB8 00                 3937 	.db #0x00
   0FB9 00                 3938 	.db #0x00
   0FBA 00                 3939 	.db #0x00
   0FBB 00                 3940 	.db #0x00
   0FBC 00                 3941 	.db #0x00
   0FBD 00                 3942 	.db #0x00
   0FBE 00                 3943 	.db #0x00
   0FBF 00                 3944 	.db #0x00
   0FC0 00                 3945 	.db #0x00
   0FC1 00                 3946 	.db #0x00
   0FC2 00                 3947 	.db #0x00
   0FC3 00                 3948 	.db #0x00
   0FC4 00                 3949 	.db #0x00
   0FC5 00                 3950 	.db #0x00
   0FC6 00                 3951 	.db #0x00
   0FC7 00                 3952 	.db #0x00
   0FC8 00                 3953 	.db #0x00
   0FC9 00                 3954 	.db #0x00
   0FCA 00                 3955 	.db #0x00
   0FCB 00                 3956 	.db #0x00
   0FCC 00                 3957 	.db #0x00
   0FCD 00                 3958 	.db #0x00
   0FCE 00                 3959 	.db #0x00
   0FCF 00                 3960 	.db #0x00
   0FD0 00                 3961 	.db #0x00
   0FD1 00                 3962 	.db #0x00
   0FD2 00                 3963 	.db #0x00
   0FD3 00                 3964 	.db #0x00
   0FD4 00                 3965 	.db #0x00
   0FD5 00                 3966 	.db #0x00
   0FD6 00                 3967 	.db #0x00
   0FD7 00                 3968 	.db #0x00
   0FD8 00                 3969 	.db #0x00
   0FD9 00                 3970 	.db #0x00
   0FDA 00                 3971 	.db #0x00
   0FDB 00                 3972 	.db #0x00
   0FDC 00                 3973 	.db #0x00
   0FDD 00                 3974 	.db #0x00
   0FDE 00                 3975 	.db #0x00
   0FDF 00                 3976 	.db #0x00
   0FE0 00                 3977 	.db #0x00
   0FE1 00                 3978 	.db #0x00
   0FE2 00                 3979 	.db #0x00
   0FE3 00                 3980 	.db #0x00
   0FE4 00                 3981 	.db #0x00
   0FE5 00                 3982 	.db #0x00
   0FE6 00                 3983 	.db #0x00
   0FE7 00                 3984 	.db #0x00
   0FE8 00                 3985 	.db #0x00
   0FE9 00                 3986 	.db #0x00
   0FEA 00                 3987 	.db #0x00
   0FEB 00                 3988 	.db #0x00
   0FEC 00                 3989 	.db #0x00
   0FED 00                 3990 	.db #0x00
   0FEE 00                 3991 	.db #0x00
   0FEF 00                 3992 	.db #0x00
   0FF0 00                 3993 	.db #0x00
   0FF1 00                 3994 	.db #0x00
   0FF2 00                 3995 	.db #0x00
   0FF3 00                 3996 	.db #0x00
   0FF4 00                 3997 	.db #0x00
   0FF5 00                 3998 	.db #0x00
   0FF6 00                 3999 	.db #0x00
   0FF7 00                 4000 	.db #0x00
   0FF8 00                 4001 	.db #0x00
   0FF9 00                 4002 	.db #0x00
   0FFA 00                 4003 	.db #0x00
   0FFB 00                 4004 	.db #0x00
   0FFC 00                 4005 	.db #0x00
   0FFD 00                 4006 	.db #0x00
   0FFE 00                 4007 	.db #0x00
   0FFF 00                 4008 	.db #0x00
   1000 00                 4009 	.db #0x00
   1001 00                 4010 	.db #0x00
   1002 00                 4011 	.db #0x00
   1003 00                 4012 	.db #0x00
   1004 00                 4013 	.db #0x00
   1005 00                 4014 	.db #0x00
   1006 00                 4015 	.db #0x00
   1007 00                 4016 	.db #0x00
   1008 00                 4017 	.db #0x00
   1009 00                 4018 	.db #0x00
   100A 00                 4019 	.db #0x00
   100B 00                 4020 	.db #0x00
   100C 00                 4021 	.db #0x00
   100D 00                 4022 	.db #0x00
   100E 00                 4023 	.db #0x00
   100F 00                 4024 	.db #0x00
   1010 00                 4025 	.db #0x00
   1011 00                 4026 	.db #0x00
   1012 00                 4027 	.db #0x00
   1013 00                 4028 	.db #0x00
   1014 00                 4029 	.db #0x00
   1015 00                 4030 	.db #0x00
   1016 00                 4031 	.db #0x00
   1017 00                 4032 	.db #0x00
   1018 00                 4033 	.db #0x00
   1019 00                 4034 	.db #0x00
   101A 00                 4035 	.db #0x00
   101B 00                 4036 	.db #0x00
   101C 00                 4037 	.db #0x00
   101D 00                 4038 	.db #0x00
   101E 00                 4039 	.db #0x00
   101F 00                 4040 	.db #0x00
   1020 00                 4041 	.db #0x00
   1021 00                 4042 	.db #0x00
   1022 00                 4043 	.db #0x00
   1023 00                 4044 	.db #0x00
   1024 00                 4045 	.db #0x00
   1025 00                 4046 	.db #0x00
   1026 00                 4047 	.db #0x00
   1027 00                 4048 	.db #0x00
   1028 00                 4049 	.db #0x00
   1029 00                 4050 	.db #0x00
   102A 00                 4051 	.db #0x00
   102B 00                 4052 	.db #0x00
   102C 00                 4053 	.db #0x00
   102D 00                 4054 	.db #0x00
   102E 00                 4055 	.db #0x00
   102F 00                 4056 	.db #0x00
   1030 00                 4057 	.db #0x00
   1031 00                 4058 	.db #0x00
   1032 00                 4059 	.db #0x00
   1033 00                 4060 	.db #0x00
   1034 00                 4061 	.db #0x00
   1035 00                 4062 	.db #0x00
   1036 00                 4063 	.db #0x00
   1037 00                 4064 	.db #0x00
   1038 00                 4065 	.db #0x00
   1039 00                 4066 	.db #0x00
   103A 00                 4067 	.db #0x00
   103B 00                 4068 	.db #0x00
   103C 00                 4069 	.db #0x00
   103D 00                 4070 	.db #0x00
   103E 00                 4071 	.db #0x00
   103F 00                 4072 	.db #0x00
   1040 00                 4073 	.db #0x00
   1041 00                 4074 	.db #0x00
   1042 00                 4075 	.db #0x00
   1043 00                 4076 	.db #0x00
   1044 00                 4077 	.db #0x00
   1045 00                 4078 	.db #0x00
   1046 00                 4079 	.db #0x00
   1047 00                 4080 	.db #0x00
   1048 00                 4081 	.db #0x00
   1049 00                 4082 	.db #0x00
   104A 00                 4083 	.db #0x00
   104B 00                 4084 	.db #0x00
   104C 00                 4085 	.db #0x00
   104D 00                 4086 	.db #0x00
   104E 00                 4087 	.db #0x00
   104F 00                 4088 	.db #0x00
   1050 00                 4089 	.db #0x00
   1051 00                 4090 	.db #0x00
   1052 00                 4091 	.db #0x00
   1053 00                 4092 	.db #0x00
   1054 00                 4093 	.db #0x00
   1055 00                 4094 	.db #0x00
   1056 00                 4095 	.db #0x00
   1057 00                 4096 	.db #0x00
   1058 00                 4097 	.db #0x00
   1059 00                 4098 	.db #0x00
   105A 00                 4099 	.db #0x00
   105B 00                 4100 	.db #0x00
   105C 00                 4101 	.db #0x00
   105D 00                 4102 	.db #0x00
   105E 00                 4103 	.db #0x00
   105F 00                 4104 	.db #0x00
   1060 00                 4105 	.db #0x00
   1061 00                 4106 	.db #0x00
   1062 00                 4107 	.db #0x00
   1063 00                 4108 	.db #0x00
   1064 00                 4109 	.db #0x00
   1065 00                 4110 	.db #0x00
   1066 00                 4111 	.db #0x00
   1067 00                 4112 	.db #0x00
   1068 00                 4113 	.db #0x00
   1069 00                 4114 	.db #0x00
   106A 00                 4115 	.db #0x00
   106B 00                 4116 	.db #0x00
   106C 00                 4117 	.db #0x00
   106D 00                 4118 	.db #0x00
   106E 00                 4119 	.db #0x00
   106F 00                 4120 	.db #0x00
   1070 00                 4121 	.db #0x00
   1071 00                 4122 	.db #0x00
   1072 00                 4123 	.db #0x00
   1073 00                 4124 	.db #0x00
   1074 00                 4125 	.db #0x00
   1075 00                 4126 	.db #0x00
   1076 00                 4127 	.db #0x00
   1077 00                 4128 	.db #0x00
   1078 00                 4129 	.db #0x00
   1079 00                 4130 	.db #0x00
   107A 00                 4131 	.db #0x00
   107B 00                 4132 	.db #0x00
   107C 00                 4133 	.db #0x00
   107D 00                 4134 	.db #0x00
   107E 00                 4135 	.db #0x00
   107F 00                 4136 	.db #0x00
   1080 00                 4137 	.db #0x00
   1081 00                 4138 	.db #0x00
   1082 00                 4139 	.db #0x00
   1083 00                 4140 	.db #0x00
   1084 00                 4141 	.db #0x00
   1085 00                 4142 	.db #0x00
   1086 00                 4143 	.db #0x00
   1087 00                 4144 	.db #0x00
   1088 00                 4145 	.db #0x00
   1089 00                 4146 	.db #0x00
   108A 00                 4147 	.db #0x00
   108B 00                 4148 	.db #0x00
   108C 00                 4149 	.db #0x00
   108D 00                 4150 	.db #0x00
   108E 00                 4151 	.db #0x00
   108F 00                 4152 	.db #0x00
   1090 00                 4153 	.db #0x00
   1091 00                 4154 	.db #0x00
   1092 00                 4155 	.db #0x00
   1093 00                 4156 	.db #0x00
   1094 00                 4157 	.db #0x00
   1095 00                 4158 	.db #0x00
   1096 00                 4159 	.db #0x00
   1097 00                 4160 	.db #0x00
   1098 00                 4161 	.db #0x00
   1099 00                 4162 	.db #0x00
   109A 00                 4163 	.db #0x00
   109B 00                 4164 	.db #0x00
   109C 00                 4165 	.db #0x00
   109D 00                 4166 	.db #0x00
   109E 00                 4167 	.db #0x00
   109F 00                 4168 	.db #0x00
   10A0 00                 4169 	.db #0x00
   10A1 00                 4170 	.db #0x00
   10A2 00                 4171 	.db #0x00
   10A3 00                 4172 	.db #0x00
   10A4 00                 4173 	.db #0x00
   10A5 00                 4174 	.db #0x00
   10A6 00                 4175 	.db #0x00
   10A7 00                 4176 	.db #0x00
   10A8 00                 4177 	.db #0x00
   10A9 00                 4178 	.db #0x00
   10AA 00                 4179 	.db #0x00
   10AB 00                 4180 	.db #0x00
   10AC 00                 4181 	.db #0x00
   10AD 00                 4182 	.db #0x00
   10AE 00                 4183 	.db #0x00
   10AF 00                 4184 	.db #0x00
   10B0 00                 4185 	.db #0x00
   10B1 00                 4186 	.db #0x00
   10B2 00                 4187 	.db #0x00
   10B3 00                 4188 	.db #0x00
   10B4 00                 4189 	.db #0x00
   10B5 00                 4190 	.db #0x00
   10B6 00                 4191 	.db #0x00
   10B7 00                 4192 	.db #0x00
   10B8 00                 4193 	.db #0x00
   10B9 00                 4194 	.db #0x00
   10BA 00                 4195 	.db #0x00
   10BB 00                 4196 	.db #0x00
   10BC 00                 4197 	.db #0x00
   10BD 00                 4198 	.db #0x00
   10BE 00                 4199 	.db #0x00
   10BF 00                 4200 	.db #0x00
   10C0 00                 4201 	.db #0x00
   10C1 00                 4202 	.db #0x00
   10C2 00                 4203 	.db #0x00
   10C3 00                 4204 	.db #0x00
   10C4 00                 4205 	.db #0x00
   10C5 00                 4206 	.db #0x00
   10C6 00                 4207 	.db #0x00
   10C7 00                 4208 	.db #0x00
   10C8 00                 4209 	.db #0x00
   10C9 00                 4210 	.db #0x00
   10CA 00                 4211 	.db #0x00
   10CB 00                 4212 	.db #0x00
   10CC 00                 4213 	.db #0x00
   10CD 00                 4214 	.db #0x00
   10CE 00                 4215 	.db #0x00
   10CF 00                 4216 	.db #0x00
   10D0 00                 4217 	.db #0x00
   10D1 00                 4218 	.db #0x00
   10D2 00                 4219 	.db #0x00
   10D3 00                 4220 	.db #0x00
   10D4 00                 4221 	.db #0x00
   10D5 00                 4222 	.db #0x00
   10D6 00                 4223 	.db #0x00
   10D7 00                 4224 	.db #0x00
   10D8 00                 4225 	.db #0x00
   10D9 00                 4226 	.db #0x00
   10DA 7F                 4227 	.db #0x7F
   10DB 7F                 4228 	.db #0x7F
   10DC 01                 4229 	.db #0x01
   10DD 01                 4230 	.db #0x01
   10DE 00                 4231 	.db #0x00
   10DF 00                 4232 	.db #0x00
   10E0 00                 4233 	.db #0x00
   10E1 00                 4234 	.db #0x00
   10E2 00                 4235 	.db #0x00
   10E3 00                 4236 	.db #0x00
   10E4 00                 4237 	.db #0x00
   10E5 00                 4238 	.db #0x00
   10E6 00                 4239 	.db #0x00
   10E7 00                 4240 	.db #0x00
   10E8 00                 4241 	.db #0x00
   10E9 00                 4242 	.db #0x00
   10EA 00                 4243 	.db #0x00
   10EB 00                 4244 	.db #0x00
   10EC 00                 4245 	.db #0x00
   10ED 00                 4246 	.db #0x00
   10EE 00                 4247 	.db #0x00
   10EF 00                 4248 	.db #0x00
   10F0 00                 4249 	.db #0x00
   10F1 00                 4250 	.db #0x00
   10F2 00                 4251 	.db #0x00
   10F3 00                 4252 	.db #0x00
   10F4 00                 4253 	.db #0x00
   10F5 00                 4254 	.db #0x00
   10F6 00                 4255 	.db #0x00
   10F7 00                 4256 	.db #0x00
   10F8 00                 4257 	.db #0x00
   10F9 00                 4258 	.db #0x00
   10FA 00                 4259 	.db #0x00
   10FB 00                 4260 	.db #0x00
   10FC 00                 4261 	.db #0x00
   10FD 00                 4262 	.db #0x00
   10FE 00                 4263 	.db #0x00
   10FF 00                 4264 	.db #0x00
   1100 00                 4265 	.db #0x00
   1101 00                 4266 	.db #0x00
   1102 00                 4267 	.db #0x00
   1103 00                 4268 	.db #0x00
   1104 00                 4269 	.db #0x00
   1105 00                 4270 	.db #0x00
   1106 00                 4271 	.db #0x00
   1107 00                 4272 	.db #0x00
   1108 00                 4273 	.db #0x00
   1109 00                 4274 	.db #0x00
   110A 00                 4275 	.db #0x00
   110B 00                 4276 	.db #0x00
   110C 00                 4277 	.db #0x00
   110D 00                 4278 	.db #0x00
   110E 00                 4279 	.db #0x00
   110F 00                 4280 	.db #0x00
   1110 00                 4281 	.db #0x00
   1111 00                 4282 	.db #0x00
   1112 00                 4283 	.db #0x00
   1113 00                 4284 	.db #0x00
   1114 00                 4285 	.db #0x00
   1115 00                 4286 	.db #0x00
   1116 00                 4287 	.db #0x00
   1117 00                 4288 	.db #0x00
   1118 00                 4289 	.db #0x00
   1119 00                 4290 	.db #0x00
   111A 00                 4291 	.db #0x00
   111B 00                 4292 	.db #0x00
   111C 00                 4293 	.db #0x00
   111D 00                 4294 	.db #0x00
   111E 00                 4295 	.db #0x00
   111F 00                 4296 	.db #0x00
   1120 00                 4297 	.db #0x00
   1121 00                 4298 	.db #0x00
   1122 00                 4299 	.db #0x00
   1123 00                 4300 	.db #0x00
   1124 00                 4301 	.db #0x00
   1125 00                 4302 	.db #0x00
   1126 00                 4303 	.db #0x00
   1127 00                 4304 	.db #0x00
   1128 00                 4305 	.db #0x00
   1129 00                 4306 	.db #0x00
   112A 00                 4307 	.db #0x00
   112B 00                 4308 	.db #0x00
   112C 00                 4309 	.db #0x00
   112D 00                 4310 	.db #0x00
   112E 00                 4311 	.db #0x00
   112F 00                 4312 	.db #0x00
   1130 00                 4313 	.db #0x00
   1131 00                 4314 	.db #0x00
   1132 00                 4315 	.db #0x00
   1133 00                 4316 	.db #0x00
   1134 00                 4317 	.db #0x00
   1135 00                 4318 	.db #0x00
   1136 00                 4319 	.db #0x00
   1137 00                 4320 	.db #0x00
   1138 00                 4321 	.db #0x00
   1139 00                 4322 	.db #0x00
   113A FF                 4323 	.db #0xFF
   113B FF                 4324 	.db #0xFF
   113C FF                 4325 	.db #0xFF
   113D FF                 4326 	.db #0xFF
   113E 07                 4327 	.db #0x07
   113F 07                 4328 	.db #0x07
   1140 00                 4329 	.db #0x00
   1141 00                 4330 	.db #0x00
   1142 00                 4331 	.db #0x00
   1143 00                 4332 	.db #0x00
   1144 00                 4333 	.db #0x00
   1145 00                 4334 	.db #0x00
   1146 00                 4335 	.db #0x00
   1147 00                 4336 	.db #0x00
   1148 00                 4337 	.db #0x00
   1149 00                 4338 	.db #0x00
   114A 00                 4339 	.db #0x00
   114B 00                 4340 	.db #0x00
   114C 00                 4341 	.db #0x00
   114D 00                 4342 	.db #0x00
   114E 00                 4343 	.db #0x00
   114F 00                 4344 	.db #0x00
   1150 00                 4345 	.db #0x00
   1151 00                 4346 	.db #0x00
   1152 00                 4347 	.db #0x00
   1153 00                 4348 	.db #0x00
   1154 00                 4349 	.db #0x00
   1155 00                 4350 	.db #0x00
   1156 00                 4351 	.db #0x00
   1157 00                 4352 	.db #0x00
   1158 00                 4353 	.db #0x00
   1159 00                 4354 	.db #0x00
   115A FF                 4355 	.db #0xFF
   115B FF                 4356 	.db #0xFF
   115C F8                 4357 	.db #0xF8
   115D F8                 4358 	.db #0xF8
   115E E0                 4359 	.db #0xE0
   115F E0                 4360 	.db #0xE0
   1160 00                 4361 	.db #0x00
   1161 00                 4362 	.db #0x00
   1162 00                 4363 	.db #0x00
   1163 00                 4364 	.db #0x00
   1164 00                 4365 	.db #0x00
   1165 00                 4366 	.db #0x00
   1166 00                 4367 	.db #0x00
   1167 00                 4368 	.db #0x00
   1168 00                 4369 	.db #0x00
   1169 00                 4370 	.db #0x00
   116A 00                 4371 	.db #0x00
   116B 00                 4372 	.db #0x00
   116C 00                 4373 	.db #0x00
   116D 00                 4374 	.db #0x00
   116E 00                 4375 	.db #0x00
   116F 00                 4376 	.db #0x00
   1170 00                 4377 	.db #0x00
   1171 00                 4378 	.db #0x00
   1172 00                 4379 	.db #0x00
   1173 00                 4380 	.db #0x00
   1174 00                 4381 	.db #0x00
   1175 00                 4382 	.db #0x00
   1176 00                 4383 	.db #0x00
   1177 00                 4384 	.db #0x00
   1178 00                 4385 	.db #0x00
   1179 00                 4386 	.db #0x00
   117A 00                 4387 	.db #0x00
   117B 00                 4388 	.db #0x00
   117C 00                 4389 	.db #0x00
   117D 00                 4390 	.db #0x00
   117E 00                 4391 	.db #0x00
   117F 00                 4392 	.db #0x00
   1180 00                 4393 	.db #0x00
   1181 00                 4394 	.db #0x00
   1182 00                 4395 	.db #0x00
   1183 00                 4396 	.db #0x00
   1184 00                 4397 	.db #0x00
   1185 00                 4398 	.db #0x00
   1186 00                 4399 	.db #0x00
   1187 00                 4400 	.db #0x00
   1188 00                 4401 	.db #0x00
   1189 00                 4402 	.db #0x00
   118A 00                 4403 	.db #0x00
   118B 00                 4404 	.db #0x00
   118C 00                 4405 	.db #0x00
   118D 00                 4406 	.db #0x00
   118E 00                 4407 	.db #0x00
   118F 00                 4408 	.db #0x00
   1190 00                 4409 	.db #0x00
   1191 00                 4410 	.db #0x00
   1192 00                 4411 	.db #0x00
   1193 00                 4412 	.db #0x00
   1194 00                 4413 	.db #0x00
   1195 00                 4414 	.db #0x00
   1196 00                 4415 	.db #0x00
   1197 00                 4416 	.db #0x00
   1198 00                 4417 	.db #0x00
   1199 00                 4418 	.db #0x00
   119A 00                 4419 	.db #0x00
   119B 00                 4420 	.db #0x00
   119C 00                 4421 	.db #0x00
   119D 00                 4422 	.db #0x00
   119E 00                 4423 	.db #0x00
   119F 00                 4424 	.db #0x00
   11A0 00                 4425 	.db #0x00
   11A1 00                 4426 	.db #0x00
   11A2 00                 4427 	.db #0x00
   11A3 00                 4428 	.db #0x00
   11A4 00                 4429 	.db #0x00
   11A5 00                 4430 	.db #0x00
   11A6 00                 4431 	.db #0x00
   11A7 00                 4432 	.db #0x00
   11A8 00                 4433 	.db #0x00
   11A9 00                 4434 	.db #0x00
   11AA 00                 4435 	.db #0x00
   11AB 00                 4436 	.db #0x00
   11AC 00                 4437 	.db #0x00
   11AD 00                 4438 	.db #0x00
   11AE 00                 4439 	.db #0x00
   11AF 00                 4440 	.db #0x00
   11B0 00                 4441 	.db #0x00
   11B1 00                 4442 	.db #0x00
   11B2 00                 4443 	.db #0x00
   11B3 00                 4444 	.db #0x00
   11B4 00                 4445 	.db #0x00
   11B5 00                 4446 	.db #0x00
   11B6 00                 4447 	.db #0x00
   11B7 00                 4448 	.db #0x00
   11B8 00                 4449 	.db #0x00
   11B9 00                 4450 	.db #0x00
   11BA F0                 4451 	.db #0xF0
   11BB F0                 4452 	.db #0xF0
   11BC 00                 4453 	.db #0x00
   11BD 00                 4454 	.db #0x00
   11BE 00                 4455 	.db #0x00
   11BF 00                 4456 	.db #0x00
   11C0 00                 4457 	.db #0x00
   11C1 00                 4458 	.db #0x00
   11C2 00                 4459 	.db #0x00
   11C3 00                 4460 	.db #0x00
   11C4 00                 4461 	.db #0x00
   11C5 00                 4462 	.db #0x00
   11C6 00                 4463 	.db #0x00
   11C7 00                 4464 	.db #0x00
   11C8 00                 4465 	.db #0x00
   11C9 00                 4466 	.db #0x00
   11CA 00                 4467 	.db #0x00
   11CB 00                 4468 	.db #0x00
   11CC 00                 4469 	.db #0x00
   11CD 00                 4470 	.db #0x00
   11CE 00                 4471 	.db #0x00
   11CF 00                 4472 	.db #0x00
   11D0 00                 4473 	.db #0x00
   11D1 00                 4474 	.db #0x00
   11D2 00                 4475 	.db #0x00
   11D3 00                 4476 	.db #0x00
   11D4 00                 4477 	.db #0x00
   11D5 00                 4478 	.db #0x00
   11D6 00                 4479 	.db #0x00
   11D7 00                 4480 	.db #0x00
   11D8 00                 4481 	.db #0x00
   11D9 00                 4482 	.db #0x00
   11DA 7F                 4483 	.db #0x7F
   11DB 7F                 4484 	.db #0x7F
   11DC 00                 4485 	.db #0x00
   11DD 00                 4486 	.db #0x00
   11DE 00                 4487 	.db #0x00
   11DF 00                 4488 	.db #0x00
   11E0 00                 4489 	.db #0x00
   11E1 00                 4490 	.db #0x00
   11E2 00                 4491 	.db #0x00
   11E3 00                 4492 	.db #0x00
   11E4 00                 4493 	.db #0x00
   11E5 00                 4494 	.db #0x00
   11E6 00                 4495 	.db #0x00
   11E7 00                 4496 	.db #0x00
   11E8 00                 4497 	.db #0x00
   11E9 00                 4498 	.db #0x00
   11EA 00                 4499 	.db #0x00
   11EB 00                 4500 	.db #0x00
   11EC 00                 4501 	.db #0x00
   11ED 00                 4502 	.db #0x00
   11EE 00                 4503 	.db #0x00
   11EF 00                 4504 	.db #0x00
   11F0 00                 4505 	.db #0x00
   11F1 00                 4506 	.db #0x00
   11F2 00                 4507 	.db #0x00
   11F3 00                 4508 	.db #0x00
   11F4 00                 4509 	.db #0x00
   11F5 00                 4510 	.db #0x00
   11F6 00                 4511 	.db #0x00
   11F7 00                 4512 	.db #0x00
   11F8 00                 4513 	.db #0x00
   11F9 00                 4514 	.db #0x00
   11FA 00                 4515 	.db #0x00
   11FB 00                 4516 	.db #0x00
   11FC 00                 4517 	.db #0x00
   11FD 00                 4518 	.db #0x00
   11FE 00                 4519 	.db #0x00
   11FF 00                 4520 	.db #0x00
   1200 00                 4521 	.db #0x00
   1201 00                 4522 	.db #0x00
   1202 00                 4523 	.db #0x00
   1203 00                 4524 	.db #0x00
   1204 00                 4525 	.db #0x00
   1205 00                 4526 	.db #0x00
   1206 00                 4527 	.db #0x00
   1207 00                 4528 	.db #0x00
   1208 00                 4529 	.db #0x00
   1209 00                 4530 	.db #0x00
   120A 00                 4531 	.db #0x00
   120B 00                 4532 	.db #0x00
   120C 00                 4533 	.db #0x00
   120D 00                 4534 	.db #0x00
   120E 00                 4535 	.db #0x00
   120F 00                 4536 	.db #0x00
   1210 00                 4537 	.db #0x00
   1211 00                 4538 	.db #0x00
   1212 00                 4539 	.db #0x00
   1213 00                 4540 	.db #0x00
   1214 00                 4541 	.db #0x00
   1215 00                 4542 	.db #0x00
   1216 00                 4543 	.db #0x00
   1217 00                 4544 	.db #0x00
   1218 00                 4545 	.db #0x00
   1219 00                 4546 	.db #0x00
   121A 00                 4547 	.db #0x00
   121B 00                 4548 	.db #0x00
   121C 00                 4549 	.db #0x00
   121D 00                 4550 	.db #0x00
   121E 00                 4551 	.db #0x00
   121F 00                 4552 	.db #0x00
   1220 00                 4553 	.db #0x00
   1221 00                 4554 	.db #0x00
   1222 00                 4555 	.db #0x00
   1223 00                 4556 	.db #0x00
   1224 00                 4557 	.db #0x00
   1225 00                 4558 	.db #0x00
   1226 00                 4559 	.db #0x00
   1227 00                 4560 	.db #0x00
   1228 00                 4561 	.db #0x00
   1229 00                 4562 	.db #0x00
   122A 00                 4563 	.db #0x00
   122B 00                 4564 	.db #0x00
   122C 00                 4565 	.db #0x00
   122D 00                 4566 	.db #0x00
   122E 00                 4567 	.db #0x00
   122F 00                 4568 	.db #0x00
   1230 00                 4569 	.db #0x00
   1231 00                 4570 	.db #0x00
   1232 00                 4571 	.db #0x00
   1233 00                 4572 	.db #0x00
   1234 00                 4573 	.db #0x00
   1235 00                 4574 	.db #0x00
   1236 00                 4575 	.db #0x00
   1237 00                 4576 	.db #0x00
   1238 00                 4577 	.db #0x00
   1239 00                 4578 	.db #0x00
   123A FF                 4579 	.db #0xFF
   123B FF                 4580 	.db #0xFF
   123C 3F                 4581 	.db #0x3F
   123D 3F                 4582 	.db #0x3F
   123E 3F                 4583 	.db #0x3F
   123F 3F                 4584 	.db #0x3F
   1240 1F                 4585 	.db #0x1F
   1241 1F                 4586 	.db #0x1F
   1242 0F                 4587 	.db #0x0F
   1243 0F                 4588 	.db #0x0F
   1244 0F                 4589 	.db #0x0F
   1245 0F                 4590 	.db #0x0F
   1246 07                 4591 	.db #0x07
   1247 07                 4592 	.db #0x07
   1248 07                 4593 	.db #0x07
   1249 07                 4594 	.db #0x07
   124A 03                 4595 	.db #0x03
   124B 03                 4596 	.db #0x03
   124C 03                 4597 	.db #0x03
   124D 03                 4598 	.db #0x03
   124E 03                 4599 	.db #0x03
   124F 03                 4600 	.db #0x03
   1250 03                 4601 	.db #0x03
   1251 03                 4602 	.db #0x03
   1252 01                 4603 	.db #0x01
   1253 01                 4604 	.db #0x01
   1254 01                 4605 	.db #0x01
   1255 01                 4606 	.db #0x01
   1256 01                 4607 	.db #0x01
   1257 01                 4608 	.db #0x01
   1258 01                 4609 	.db #0x01
   1259 01                 4610 	.db #0x01
   125A FF                 4611 	.db #0xFF
   125B FF                 4612 	.db #0xFF
   125C FF                 4613 	.db #0xFF
   125D FF                 4614 	.db #0xFF
   125E FF                 4615 	.db #0xFF
   125F FF                 4616 	.db #0xFF
   1260 FF                 4617 	.db #0xFF
   1261 FF                 4618 	.db #0xFF
   1262 FF                 4619 	.db #0xFF
   1263 FF                 4620 	.db #0xFF
   1264 FF                 4621 	.db #0xFF
   1265 FF                 4622 	.db #0xFF
   1266 FF                 4623 	.db #0xFF
   1267 FF                 4624 	.db #0xFF
   1268 FF                 4625 	.db #0xFF
   1269 FF                 4626 	.db #0xFF
   126A FE                 4627 	.db #0xFE
   126B FE                 4628 	.db #0xFE
   126C FC                 4629 	.db #0xFC
   126D FC                 4630 	.db #0xFC
   126E FC                 4631 	.db #0xFC
   126F FC                 4632 	.db #0xFC
   1270 F8                 4633 	.db #0xF8
   1271 F8                 4634 	.db #0xF8
   1272 F8                 4635 	.db #0xF8
   1273 F8                 4636 	.db #0xF8
   1274 F0                 4637 	.db #0xF0
   1275 F0                 4638 	.db #0xF0
   1276 F0                 4639 	.db #0xF0
   1277 F0                 4640 	.db #0xF0
   1278 F0                 4641 	.db #0xF0
   1279 F0                 4642 	.db #0xF0
   127A 01                 4643 	.db #0x01
   127B 01                 4644 	.db #0x01
   127C 00                 4645 	.db #0x00
   127D 00                 4646 	.db #0x00
   127E 00                 4647 	.db #0x00
   127F 00                 4648 	.db #0x00
   1280 00                 4649 	.db #0x00
   1281 00                 4650 	.db #0x00
   1282 00                 4651 	.db #0x00
   1283 00                 4652 	.db #0x00
   1284 00                 4653 	.db #0x00
   1285 00                 4654 	.db #0x00
   1286 00                 4655 	.db #0x00
   1287 00                 4656 	.db #0x00
   1288 00                 4657 	.db #0x00
   1289 00                 4658 	.db #0x00
   128A 00                 4659 	.db #0x00
   128B 00                 4660 	.db #0x00
   128C 00                 4661 	.db #0x00
   128D 00                 4662 	.db #0x00
   128E 00                 4663 	.db #0x00
   128F 00                 4664 	.db #0x00
   1290 00                 4665 	.db #0x00
   1291 00                 4666 	.db #0x00
   1292 00                 4667 	.db #0x00
   1293 00                 4668 	.db #0x00
   1294 00                 4669 	.db #0x00
   1295 00                 4670 	.db #0x00
   1296 00                 4671 	.db #0x00
   1297 00                 4672 	.db #0x00
   1298 00                 4673 	.db #0x00
   1299 00                 4674 	.db #0x00
   129A F0                 4675 	.db #0xF0
   129B F0                 4676 	.db #0xF0
   129C E0                 4677 	.db #0xE0
   129D E0                 4678 	.db #0xE0
   129E E0                 4679 	.db #0xE0
   129F E0                 4680 	.db #0xE0
   12A0 00                 4681 	.db #0x00
   12A1 00                 4682 	.db #0x00
   12A2 00                 4683 	.db #0x00
   12A3 00                 4684 	.db #0x00
   12A4 00                 4685 	.db #0x00
   12A5 00                 4686 	.db #0x00
   12A6 00                 4687 	.db #0x00
   12A7 00                 4688 	.db #0x00
   12A8 00                 4689 	.db #0x00
   12A9 00                 4690 	.db #0x00
   12AA 00                 4691 	.db #0x00
   12AB 00                 4692 	.db #0x00
   12AC 00                 4693 	.db #0x00
   12AD 00                 4694 	.db #0x00
   12AE 00                 4695 	.db #0x00
   12AF 00                 4696 	.db #0x00
   12B0 00                 4697 	.db #0x00
   12B1 00                 4698 	.db #0x00
   12B2 00                 4699 	.db #0x00
   12B3 00                 4700 	.db #0x00
   12B4 00                 4701 	.db #0x00
   12B5 00                 4702 	.db #0x00
   12B6 00                 4703 	.db #0x00
   12B7 00                 4704 	.db #0x00
   12B8 00                 4705 	.db #0x00
   12B9 00                 4706 	.db #0x00
   12BA FF                 4707 	.db #0xFF
   12BB FF                 4708 	.db #0xFF
   12BC E7                 4709 	.db #0xE7
   12BD E7                 4710 	.db #0xE7
   12BE E1                 4711 	.db #0xE1
   12BF E1                 4712 	.db #0xE1
   12C0 E0                 4713 	.db #0xE0
   12C1 E0                 4714 	.db #0xE0
   12C2 C0                 4715 	.db #0xC0
   12C3 C0                 4716 	.db #0xC0
   12C4 80                 4717 	.db #0x80
   12C5 80                 4718 	.db #0x80
   12C6 00                 4719 	.db #0x00
   12C7 00                 4720 	.db #0x00
   12C8 00                 4721 	.db #0x00
   12C9 00                 4722 	.db #0x00
   12CA 00                 4723 	.db #0x00
   12CB 00                 4724 	.db #0x00
   12CC 00                 4725 	.db #0x00
   12CD 00                 4726 	.db #0x00
   12CE 00                 4727 	.db #0x00
   12CF 00                 4728 	.db #0x00
   12D0 00                 4729 	.db #0x00
   12D1 00                 4730 	.db #0x00
   12D2 00                 4731 	.db #0x00
   12D3 00                 4732 	.db #0x00
   12D4 00                 4733 	.db #0x00
   12D5 00                 4734 	.db #0x00
   12D6 00                 4735 	.db #0x00
   12D7 00                 4736 	.db #0x00
   12D8 00                 4737 	.db #0x00
   12D9 00                 4738 	.db #0x00
   12DA E0                 4739 	.db #0xE0
   12DB E0                 4740 	.db #0xE0
   12DC F8                 4741 	.db #0xF8
   12DD F8                 4742 	.db #0xF8
   12DE FE                 4743 	.db #0xFE
   12DF FE                 4744 	.db #0xFE
   12E0 7F                 4745 	.db #0x7F
   12E1 7F                 4746 	.db #0x7F
   12E2 1F                 4747 	.db #0x1F
   12E3 1F                 4748 	.db #0x1F
   12E4 07                 4749 	.db #0x07
   12E5 07                 4750 	.db #0x07
   12E6 00                 4751 	.db #0x00
   12E7 00                 4752 	.db #0x00
   12E8 00                 4753 	.db #0x00
   12E9 00                 4754 	.db #0x00
   12EA 00                 4755 	.db #0x00
   12EB 00                 4756 	.db #0x00
   12EC 00                 4757 	.db #0x00
   12ED 00                 4758 	.db #0x00
   12EE 00                 4759 	.db #0x00
   12EF 00                 4760 	.db #0x00
   12F0 00                 4761 	.db #0x00
   12F1 00                 4762 	.db #0x00
   12F2 00                 4763 	.db #0x00
   12F3 00                 4764 	.db #0x00
   12F4 00                 4765 	.db #0x00
   12F5 00                 4766 	.db #0x00
   12F6 00                 4767 	.db #0x00
   12F7 00                 4768 	.db #0x00
   12F8 00                 4769 	.db #0x00
   12F9 00                 4770 	.db #0x00
   12FA 00                 4771 	.db #0x00
   12FB 00                 4772 	.db #0x00
   12FC 00                 4773 	.db #0x00
   12FD 00                 4774 	.db #0x00
   12FE 00                 4775 	.db #0x00
   12FF 00                 4776 	.db #0x00
   1300 00                 4777 	.db #0x00
   1301 00                 4778 	.db #0x00
   1302 00                 4779 	.db #0x00
   1303 00                 4780 	.db #0x00
   1304 00                 4781 	.db #0x00
   1305 00                 4782 	.db #0x00
   1306 00                 4783 	.db #0x00
   1307 00                 4784 	.db #0x00
   1308 00                 4785 	.db #0x00
   1309 00                 4786 	.db #0x00
   130A 00                 4787 	.db #0x00
   130B 00                 4788 	.db #0x00
   130C 00                 4789 	.db #0x00
   130D 00                 4790 	.db #0x00
   130E 00                 4791 	.db #0x00
   130F 00                 4792 	.db #0x00
   1310 00                 4793 	.db #0x00
   1311 00                 4794 	.db #0x00
   1312 00                 4795 	.db #0x00
   1313 00                 4796 	.db #0x00
   1314 00                 4797 	.db #0x00
   1315 00                 4798 	.db #0x00
   1316 00                 4799 	.db #0x00
   1317 00                 4800 	.db #0x00
   1318 00                 4801 	.db #0x00
   1319 00                 4802 	.db #0x00
   131A 00                 4803 	.db #0x00
   131B 00                 4804 	.db #0x00
   131C 00                 4805 	.db #0x00
   131D 00                 4806 	.db #0x00
   131E 00                 4807 	.db #0x00
   131F 00                 4808 	.db #0x00
   1320 00                 4809 	.db #0x00
   1321 00                 4810 	.db #0x00
   1322 00                 4811 	.db #0x00
   1323 00                 4812 	.db #0x00
   1324 00                 4813 	.db #0x00
   1325 00                 4814 	.db #0x00
   1326 00                 4815 	.db #0x00
   1327 00                 4816 	.db #0x00
   1328 00                 4817 	.db #0x00
   1329 00                 4818 	.db #0x00
   132A 00                 4819 	.db #0x00
   132B 00                 4820 	.db #0x00
   132C 00                 4821 	.db #0x00
   132D 00                 4822 	.db #0x00
   132E 00                 4823 	.db #0x00
   132F 00                 4824 	.db #0x00
   1330 00                 4825 	.db #0x00
   1331 00                 4826 	.db #0x00
   1332 00                 4827 	.db #0x00
   1333 00                 4828 	.db #0x00
   1334 00                 4829 	.db #0x00
   1335 00                 4830 	.db #0x00
   1336 00                 4831 	.db #0x00
   1337 00                 4832 	.db #0x00
   1338 00                 4833 	.db #0x00
   1339 00                 4834 	.db #0x00
   133A 00                 4835 	.db #0x00
   133B 00                 4836 	.db #0x00
   133C 00                 4837 	.db #0x00
   133D 00                 4838 	.db #0x00
   133E 07                 4839 	.db #0x07
   133F 07                 4840 	.db #0x07
   1340 FF                 4841 	.db #0xFF
   1341 FF                 4842 	.db #0xFF
   1342 FF                 4843 	.db #0xFF
   1343 FF                 4844 	.db #0xFF
   1344 7C                 4845 	.db #0x7C
   1345 7C                 4846 	.db #0x7C
   1346 00                 4847 	.db #0x00
   1347 00                 4848 	.db #0x00
   1348 00                 4849 	.db #0x00
   1349 00                 4850 	.db #0x00
   134A 00                 4851 	.db #0x00
   134B 00                 4852 	.db #0x00
   134C 00                 4853 	.db #0x00
   134D 00                 4854 	.db #0x00
   134E 00                 4855 	.db #0x00
   134F 00                 4856 	.db #0x00
   1350 00                 4857 	.db #0x00
   1351 00                 4858 	.db #0x00
   1352 00                 4859 	.db #0x00
   1353 00                 4860 	.db #0x00
   1354 00                 4861 	.db #0x00
   1355 00                 4862 	.db #0x00
   1356 00                 4863 	.db #0x00
   1357 00                 4864 	.db #0x00
   1358 00                 4865 	.db #0x00
   1359 00                 4866 	.db #0x00
   135A 0F                 4867 	.db #0x0F
   135B 0F                 4868 	.db #0x0F
   135C 3E                 4869 	.db #0x3E
   135D 3E                 4870 	.db #0x3E
   135E FF                 4871 	.db #0xFF
   135F FF                 4872 	.db #0xFF
   1360 FF                 4873 	.db #0xFF
   1361 FF                 4874 	.db #0xFF
   1362 E0                 4875 	.db #0xE0
   1363 E0                 4876 	.db #0xE0
   1364 00                 4877 	.db #0x00
   1365 00                 4878 	.db #0x00
   1366 00                 4879 	.db #0x00
   1367 00                 4880 	.db #0x00
   1368 00                 4881 	.db #0x00
   1369 00                 4882 	.db #0x00
   136A 00                 4883 	.db #0x00
   136B 00                 4884 	.db #0x00
   136C 00                 4885 	.db #0x00
   136D 00                 4886 	.db #0x00
   136E 00                 4887 	.db #0x00
   136F 00                 4888 	.db #0x00
   1370 00                 4889 	.db #0x00
   1371 00                 4890 	.db #0x00
   1372 00                 4891 	.db #0x00
   1373 00                 4892 	.db #0x00
   1374 00                 4893 	.db #0x00
   1375 00                 4894 	.db #0x00
   1376 00                 4895 	.db #0x00
   1377 00                 4896 	.db #0x00
   1378 00                 4897 	.db #0x00
   1379 00                 4898 	.db #0x00
   137A 00                 4899 	.db #0x00
   137B 00                 4900 	.db #0x00
   137C 00                 4901 	.db #0x00
   137D 00                 4902 	.db #0x00
   137E 00                 4903 	.db #0x00
   137F 00                 4904 	.db #0x00
   1380 00                 4905 	.db #0x00
   1381 00                 4906 	.db #0x00
   1382 00                 4907 	.db #0x00
   1383 00                 4908 	.db #0x00
   1384 00                 4909 	.db #0x00
   1385 00                 4910 	.db #0x00
   1386 00                 4911 	.db #0x00
   1387 00                 4912 	.db #0x00
   1388 00                 4913 	.db #0x00
   1389 00                 4914 	.db #0x00
   138A 00                 4915 	.db #0x00
   138B 00                 4916 	.db #0x00
   138C 00                 4917 	.db #0x00
   138D 00                 4918 	.db #0x00
   138E 00                 4919 	.db #0x00
   138F 00                 4920 	.db #0x00
   1390 00                 4921 	.db #0x00
   1391 00                 4922 	.db #0x00
   1392 00                 4923 	.db #0x00
   1393 00                 4924 	.db #0x00
   1394 00                 4925 	.db #0x00
   1395 00                 4926 	.db #0x00
   1396 00                 4927 	.db #0x00
   1397 00                 4928 	.db #0x00
   1398 00                 4929 	.db #0x00
   1399 00                 4930 	.db #0x00
   139A 00                 4931 	.db #0x00
   139B 00                 4932 	.db #0x00
   139C 00                 4933 	.db #0x00
   139D 00                 4934 	.db #0x00
   139E 00                 4935 	.db #0x00
   139F 00                 4936 	.db #0x00
   13A0 00                 4937 	.db #0x00
   13A1 00                 4938 	.db #0x00
   13A2 00                 4939 	.db #0x00
   13A3 00                 4940 	.db #0x00
   13A4 00                 4941 	.db #0x00
   13A5 00                 4942 	.db #0x00
   13A6 00                 4943 	.db #0x00
   13A7 00                 4944 	.db #0x00
   13A8 00                 4945 	.db #0x00
   13A9 00                 4946 	.db #0x00
   13AA 00                 4947 	.db #0x00
   13AB 00                 4948 	.db #0x00
   13AC 00                 4949 	.db #0x00
   13AD 00                 4950 	.db #0x00
   13AE 00                 4951 	.db #0x00
   13AF 00                 4952 	.db #0x00
   13B0 00                 4953 	.db #0x00
   13B1 00                 4954 	.db #0x00
   13B2 00                 4955 	.db #0x00
   13B3 00                 4956 	.db #0x00
   13B4 00                 4957 	.db #0x00
   13B5 00                 4958 	.db #0x00
   13B6 00                 4959 	.db #0x00
   13B7 00                 4960 	.db #0x00
   13B8 00                 4961 	.db #0x00
   13B9 00                 4962 	.db #0x00
   13BA 00                 4963 	.db #0x00
   13BB 00                 4964 	.db #0x00
   13BC 00                 4965 	.db #0x00
   13BD 00                 4966 	.db #0x00
   13BE FF                 4967 	.db #0xFF
   13BF FF                 4968 	.db #0xFF
   13C0 FF                 4969 	.db #0xFF
   13C1 FF                 4970 	.db #0xFF
   13C2 00                 4971 	.db #0x00
   13C3 00                 4972 	.db #0x00
   13C4 00                 4973 	.db #0x00
   13C5 00                 4974 	.db #0x00
   13C6 00                 4975 	.db #0x00
   13C7 00                 4976 	.db #0x00
   13C8 00                 4977 	.db #0x00
   13C9 00                 4978 	.db #0x00
   13CA 00                 4979 	.db #0x00
   13CB 00                 4980 	.db #0x00
   13CC 00                 4981 	.db #0x00
   13CD 00                 4982 	.db #0x00
   13CE 00                 4983 	.db #0x00
   13CF 00                 4984 	.db #0x00
   13D0 00                 4985 	.db #0x00
   13D1 00                 4986 	.db #0x00
   13D2 00                 4987 	.db #0x00
   13D3 00                 4988 	.db #0x00
   13D4 00                 4989 	.db #0x00
   13D5 00                 4990 	.db #0x00
   13D6 00                 4991 	.db #0x00
   13D7 00                 4992 	.db #0x00
   13D8 00                 4993 	.db #0x00
   13D9 00                 4994 	.db #0x00
   13DA 3C                 4995 	.db #0x3C
   13DB 3C                 4996 	.db #0x3C
   13DC 3C                 4997 	.db #0x3C
   13DD 3C                 4998 	.db #0x3C
   13DE FC                 4999 	.db #0xFC
   13DF FC                 5000 	.db #0xFC
   13E0 F8                 5001 	.db #0xF8
   13E1 F8                 5002 	.db #0xF8
   13E2 00                 5003 	.db #0x00
   13E3 00                 5004 	.db #0x00
   13E4 00                 5005 	.db #0x00
   13E5 00                 5006 	.db #0x00
   13E6 00                 5007 	.db #0x00
   13E7 00                 5008 	.db #0x00
   13E8 00                 5009 	.db #0x00
   13E9 00                 5010 	.db #0x00
   13EA                    5011 _TitleScreenMap:
   13EA 01                 5012 	.db #0x01
   13EB 02                 5013 	.db #0x02
   13EC 08                 5014 	.db #0x08
   13ED 0A                 5015 	.db #0x0A
   13EE 00                 5016 	.db #0x00
   13EF 00                 5017 	.db #0x00
   13F0 18                 5018 	.db #0x18
   13F1 1A                 5019 	.db #0x1A
   13F2 20                 5020 	.db #0x20
   13F3 22                 5021 	.db #0x22
   13F4 28                 5022 	.db #0x28
   13F5 2A                 5023 	.db #0x2A
   13F6 94                 5024 	.db #0x94
   13F7 94                 5025 	.db #0x94
   13F8 94                 5026 	.db #0x94
   13F9 94                 5027 	.db #0x94
   13FA 94                 5028 	.db #0x94
   13FB 94                 5029 	.db #0x94
   13FC 94                 5030 	.db #0x94
   13FD 94                 5031 	.db #0x94
   13FE 01                 5032 	.db #0x01
   13FF 03                 5033 	.db #0x03
   1400 09                 5034 	.db #0x09
   1401 0B                 5035 	.db #0x0B
   1402 11                 5036 	.db #0x11
   1403 13                 5037 	.db #0x13
   1404 18                 5038 	.db #0x18
   1405 1B                 5039 	.db #0x1B
   1406 21                 5040 	.db #0x21
   1407 23                 5041 	.db #0x23
   1408 29                 5042 	.db #0x29
   1409 2B                 5043 	.db #0x2B
   140A 94                 5044 	.db #0x94
   140B 94                 5045 	.db #0x94
   140C 39                 5046 	.db #0x39
   140D 3B                 5047 	.db #0x3B
   140E 41                 5048 	.db #0x41
   140F 43                 5049 	.db #0x43
   1410 94                 5050 	.db #0x94
   1411 94                 5051 	.db #0x94
   1412 00                 5052 	.db #0x00
   1413 06                 5053 	.db #0x06
   1414 0C                 5054 	.db #0x0C
   1415 0E                 5055 	.db #0x0E
   1416 14                 5056 	.db #0x14
   1417 16                 5057 	.db #0x16
   1418 1C                 5058 	.db #0x1C
   1419 1E                 5059 	.db #0x1E
   141A 24                 5060 	.db #0x24
   141B 26                 5061 	.db #0x26
   141C 2C                 5062 	.db #0x2C
   141D 2E                 5063 	.db #0x2E
   141E 34                 5064 	.db #0x34
   141F 36                 5065 	.db #0x36
   1420 3C                 5066 	.db #0x3C
   1421 3E                 5067 	.db #0x3E
   1422 44                 5068 	.db #0x44
   1423 46                 5069 	.db #0x46
   1424 94                 5070 	.db #0x94
   1425 94                 5071 	.db #0x94
   1426 00                 5072 	.db #0x00
   1427 07                 5073 	.db #0x07
   1428 0D                 5074 	.db #0x0D
   1429 0F                 5075 	.db #0x0F
   142A 15                 5076 	.db #0x15
   142B 17                 5077 	.db #0x17
   142C 1D                 5078 	.db #0x1D
   142D 1F                 5079 	.db #0x1F
   142E 25                 5080 	.db #0x25
   142F 27                 5081 	.db #0x27
   1430 2D                 5082 	.db #0x2D
   1431 2F                 5083 	.db #0x2F
   1432 35                 5084 	.db #0x35
   1433 37                 5085 	.db #0x37
   1434 3D                 5086 	.db #0x3D
   1435 3F                 5087 	.db #0x3F
   1436 45                 5088 	.db #0x45
   1437 47                 5089 	.db #0x47
   1438 94                 5090 	.db #0x94
   1439 94                 5091 	.db #0x94
   143A 18                 5092 	.db #0x18
   143B 18                 5093 	.db #0x18
   143C 58                 5094 	.db #0x58
   143D 5A                 5095 	.db #0x5A
   143E 60                 5096 	.db #0x60
   143F 62                 5097 	.db #0x62
   1440 68                 5098 	.db #0x68
   1441 6A                 5099 	.db #0x6A
   1442 70                 5100 	.db #0x70
   1443 72                 5101 	.db #0x72
   1444 78                 5102 	.db #0x78
   1445 7A                 5103 	.db #0x7A
   1446 80                 5104 	.db #0x80
   1447 82                 5105 	.db #0x82
   1448 88                 5106 	.db #0x88
   1449 8A                 5107 	.db #0x8A
   144A 90                 5108 	.db #0x90
   144B 92                 5109 	.db #0x92
   144C 94                 5110 	.db #0x94
   144D 94                 5111 	.db #0x94
   144E 18                 5112 	.db #0x18
   144F 19                 5113 	.db #0x19
   1450 59                 5114 	.db #0x59
   1451 5B                 5115 	.db #0x5B
   1452 61                 5116 	.db #0x61
   1453 63                 5117 	.db #0x63
   1454 69                 5118 	.db #0x69
   1455 6B                 5119 	.db #0x6B
   1456 71                 5120 	.db #0x71
   1457 73                 5121 	.db #0x73
   1458 79                 5122 	.db #0x79
   1459 7B                 5123 	.db #0x7B
   145A 81                 5124 	.db #0x81
   145B 83                 5125 	.db #0x83
   145C 89                 5126 	.db #0x89
   145D 8B                 5127 	.db #0x8B
   145E 91                 5128 	.db #0x91
   145F 93                 5129 	.db #0x93
   1460 94                 5130 	.db #0x94
   1461 94                 5131 	.db #0x94
   1462 57                 5132 	.db #0x57
   1463 94                 5133 	.db #0x94
   1464 5C                 5134 	.db #0x5C
   1465 5E                 5135 	.db #0x5E
   1466 64                 5136 	.db #0x64
   1467 66                 5137 	.db #0x66
   1468 6C                 5138 	.db #0x6C
   1469 6E                 5139 	.db #0x6E
   146A 74                 5140 	.db #0x74
   146B 76                 5141 	.db #0x76
   146C 7C                 5142 	.db #0x7C
   146D 7E                 5143 	.db #0x7E
   146E 84                 5144 	.db #0x84
   146F 86                 5145 	.db #0x86
   1470 8C                 5146 	.db #0x8C
   1471 8E                 5147 	.db #0x8E
   1472 94                 5148 	.db #0x94
   1473 94                 5149 	.db #0x94
   1474 94                 5150 	.db #0x94
   1475 94                 5151 	.db #0x94
   1476 94                 5152 	.db #0x94
   1477 94                 5153 	.db #0x94
   1478 5D                 5154 	.db #0x5D
   1479 5F                 5155 	.db #0x5F
   147A 65                 5156 	.db #0x65
   147B 67                 5157 	.db #0x67
   147C 6D                 5158 	.db #0x6D
   147D 6F                 5159 	.db #0x6F
   147E 75                 5160 	.db #0x75
   147F 77                 5161 	.db #0x77
   1480 7D                 5162 	.db #0x7D
   1481 7F                 5163 	.db #0x7F
   1482 85                 5164 	.db #0x85
   1483 87                 5165 	.db #0x87
   1484 8D                 5166 	.db #0x8D
   1485 8F                 5167 	.db #0x8F
   1486 94                 5168 	.db #0x94
   1487 94                 5169 	.db #0x94
   1488 94                 5170 	.db #0x94
   1489 94                 5171 	.db #0x94
   148A 94                 5172 	.db #0x94
   148B 94                 5173 	.db #0x94
   148C 94                 5174 	.db #0x94
   148D AA                 5175 	.db #0xAA
   148E B0                 5176 	.db #0xB0
   148F B2                 5177 	.db #0xB2
   1490 B8                 5178 	.db #0xB8
   1491 BA                 5179 	.db #0xBA
   1492 C0                 5180 	.db #0xC0
   1493 C2                 5181 	.db #0xC2
   1494 C8                 5182 	.db #0xC8
   1495 CA                 5183 	.db #0xCA
   1496 D0                 5184 	.db #0xD0
   1497 D2                 5185 	.db #0xD2
   1498 D8                 5186 	.db #0xD8
   1499 DA                 5187 	.db #0xDA
   149A 94                 5188 	.db #0x94
   149B 94                 5189 	.db #0x94
   149C 94                 5190 	.db #0x94
   149D 94                 5191 	.db #0x94
   149E 94                 5192 	.db #0x94
   149F 94                 5193 	.db #0x94
   14A0 94                 5194 	.db #0x94
   14A1 94                 5195 	.db #0x94
   14A2 94                 5196 	.db #0x94
   14A3 94                 5197 	.db #0x94
   14A4 94                 5198 	.db #0x94
   14A5 94                 5199 	.db #0x94
   14A6 C1                 5200 	.db #0xC1
   14A7 C3                 5201 	.db #0xC3
   14A8 94                 5202 	.db #0x94
   14A9 94                 5203 	.db #0x94
   14AA CE                 5204 	.db #0xCE
   14AB 94                 5205 	.db #0x94
   14AC 94                 5206 	.db #0x94
   14AD 94                 5207 	.db #0x94
   14AE 94                 5208 	.db #0x94
   14AF 94                 5209 	.db #0x94
   14B0 94                 5210 	.db #0x94
   14B1 94                 5211 	.db #0x94
   14B2 94                 5212 	.db #0x94
   14B3 94                 5213 	.db #0x94
   14B4 94                 5214 	.db #0x94
   14B5 94                 5215 	.db #0x94
   14B6 94                 5216 	.db #0x94
   14B7 94                 5217 	.db #0x94
   14B8 94                 5218 	.db #0x94
   14B9 94                 5219 	.db #0x94
   14BA C4                 5220 	.db #0xC4
   14BB C6                 5221 	.db #0xC6
   14BC 94                 5222 	.db #0x94
   14BD 94                 5223 	.db #0x94
   14BE 94                 5224 	.db #0x94
   14BF 94                 5225 	.db #0x94
   14C0 94                 5226 	.db #0x94
   14C1 94                 5227 	.db #0x94
   14C2 94                 5228 	.db #0x94
   14C3 94                 5229 	.db #0x94
   14C4 94                 5230 	.db #0x94
   14C5 94                 5231 	.db #0x94
   14C6 94                 5232 	.db #0x94
   14C7 94                 5233 	.db #0x94
   14C8 94                 5234 	.db #0x94
   14C9 94                 5235 	.db #0x94
   14CA 94                 5236 	.db #0x94
   14CB 94                 5237 	.db #0x94
   14CC 94                 5238 	.db #0x94
   14CD 94                 5239 	.db #0x94
   14CE 94                 5240 	.db #0x94
   14CF 94                 5241 	.db #0x94
   14D0 94                 5242 	.db #0x94
   14D1 94                 5243 	.db #0x94
   14D2 94                 5244 	.db #0x94
   14D3 94                 5245 	.db #0x94
   14D4 94                 5246 	.db #0x94
   14D5 94                 5247 	.db #0x94
   14D6 94                 5248 	.db #0x94
   14D7 94                 5249 	.db #0x94
   14D8 94                 5250 	.db #0x94
   14D9 94                 5251 	.db #0x94
   14DA 94                 5252 	.db #0x94
   14DB 94                 5253 	.db #0x94
   14DC 94                 5254 	.db #0x94
   14DD 94                 5255 	.db #0x94
   14DE 94                 5256 	.db #0x94
   14DF 94                 5257 	.db #0x94
   14E0 94                 5258 	.db #0x94
   14E1 94                 5259 	.db #0x94
   14E2 94                 5260 	.db #0x94
   14E3 94                 5261 	.db #0x94
   14E4 94                 5262 	.db #0x94
   14E5 94                 5263 	.db #0x94
   14E6 94                 5264 	.db #0x94
   14E7 94                 5265 	.db #0x94
   14E8 94                 5266 	.db #0x94
   14E9 94                 5267 	.db #0x94
   14EA 94                 5268 	.db #0x94
   14EB 94                 5269 	.db #0x94
   14EC 94                 5270 	.db #0x94
   14ED 94                 5271 	.db #0x94
   14EE 94                 5272 	.db #0x94
   14EF 94                 5273 	.db #0x94
   14F0 94                 5274 	.db #0x94
   14F1 94                 5275 	.db #0x94
   14F2 94                 5276 	.db #0x94
   14F3 94                 5277 	.db #0x94
   14F4 94                 5278 	.db #0x94
   14F5 94                 5279 	.db #0x94
   14F6 94                 5280 	.db #0x94
   14F7 94                 5281 	.db #0x94
   14F8 94                 5282 	.db #0x94
   14F9 94                 5283 	.db #0x94
   14FA 94                 5284 	.db #0x94
   14FB 94                 5285 	.db #0x94
   14FC 94                 5286 	.db #0x94
   14FD 94                 5287 	.db #0x94
   14FE 94                 5288 	.db #0x94
   14FF 94                 5289 	.db #0x94
   1500 94                 5290 	.db #0x94
   1501 94                 5291 	.db #0x94
   1502 94                 5292 	.db #0x94
   1503 94                 5293 	.db #0x94
   1504 94                 5294 	.db #0x94
   1505 94                 5295 	.db #0x94
   1506 94                 5296 	.db #0x94
   1507 94                 5297 	.db #0x94
   1508 94                 5298 	.db #0x94
   1509 94                 5299 	.db #0x94
   150A 94                 5300 	.db #0x94
   150B 94                 5301 	.db #0x94
   150C 94                 5302 	.db #0x94
   150D 94                 5303 	.db #0x94
   150E 94                 5304 	.db #0x94
   150F 94                 5305 	.db #0x94
   1510 94                 5306 	.db #0x94
   1511 94                 5307 	.db #0x94
   1512 94                 5308 	.db #0x94
   1513 94                 5309 	.db #0x94
   1514 94                 5310 	.db #0x94
   1515 94                 5311 	.db #0x94
   1516 94                 5312 	.db #0x94
   1517 94                 5313 	.db #0x94
   1518 94                 5314 	.db #0x94
   1519 94                 5315 	.db #0x94
   151A 94                 5316 	.db #0x94
   151B 94                 5317 	.db #0x94
   151C 94                 5318 	.db #0x94
   151D 94                 5319 	.db #0x94
   151E 94                 5320 	.db #0x94
   151F 94                 5321 	.db #0x94
   1520 94                 5322 	.db #0x94
   1521 94                 5323 	.db #0x94
   1522 94                 5324 	.db #0x94
   1523 94                 5325 	.db #0x94
   1524 94                 5326 	.db #0x94
   1525 94                 5327 	.db #0x94
   1526 94                 5328 	.db #0x94
   1527 94                 5329 	.db #0x94
   1528 94                 5330 	.db #0x94
   1529 94                 5331 	.db #0x94
   152A 94                 5332 	.db #0x94
   152B 94                 5333 	.db #0x94
   152C 94                 5334 	.db #0x94
   152D 94                 5335 	.db #0x94
   152E 94                 5336 	.db #0x94
   152F 94                 5337 	.db #0x94
   1530 94                 5338 	.db #0x94
   1531 94                 5339 	.db #0x94
   1532 94                 5340 	.db #0x94
   1533 94                 5341 	.db #0x94
   1534 94                 5342 	.db #0x94
   1535 94                 5343 	.db #0x94
   1536 94                 5344 	.db #0x94
   1537 94                 5345 	.db #0x94
   1538 94                 5346 	.db #0x94
   1539 94                 5347 	.db #0x94
   153A 94                 5348 	.db #0x94
   153B 94                 5349 	.db #0x94
   153C 94                 5350 	.db #0x94
   153D 94                 5351 	.db #0x94
   153E 94                 5352 	.db #0x94
   153F 94                 5353 	.db #0x94
   1540 94                 5354 	.db #0x94
   1541 94                 5355 	.db #0x94
   1542 94                 5356 	.db #0x94
   1543 94                 5357 	.db #0x94
   1544 94                 5358 	.db #0x94
   1545 94                 5359 	.db #0x94
   1546 94                 5360 	.db #0x94
   1547 94                 5361 	.db #0x94
   1548 94                 5362 	.db #0x94
   1549 94                 5363 	.db #0x94
   154A 94                 5364 	.db #0x94
   154B 94                 5365 	.db #0x94
   154C 94                 5366 	.db #0x94
   154D 94                 5367 	.db #0x94
   154E 94                 5368 	.db #0x94
   154F 94                 5369 	.db #0x94
   1550 94                 5370 	.db #0x94
   1551 94                 5371 	.db #0x94
   1552                    5372 _PressStart:
   1552 00                 5373 	.db #0x00
   1553 00                 5374 	.db #0x00
   1554 F8                 5375 	.db #0xF8
   1555 F8                 5376 	.db #0xF8
   1556 CC                 5377 	.db #0xCC
   1557 CC                 5378 	.db #0xCC
   1558 CC                 5379 	.db #0xCC
   1559 CC                 5380 	.db #0xCC
   155A F8                 5381 	.db #0xF8
   155B F8                 5382 	.db #0xF8
   155C C0                 5383 	.db #0xC0
   155D C0                 5384 	.db #0xC0
   155E C0                 5385 	.db #0xC0
   155F C0                 5386 	.db #0xC0
   1560 C0                 5387 	.db #0xC0
   1561 C0                 5388 	.db #0xC0
   1562 00                 5389 	.db #0x00
   1563 00                 5390 	.db #0x00
   1564 00                 5391 	.db #0x00
   1565 00                 5392 	.db #0x00
   1566 00                 5393 	.db #0x00
   1567 00                 5394 	.db #0x00
   1568 DC                 5395 	.db #0xDC
   1569 DC                 5396 	.db #0xDC
   156A E0                 5397 	.db #0xE0
   156B E0                 5398 	.db #0xE0
   156C C0                 5399 	.db #0xC0
   156D C0                 5400 	.db #0xC0
   156E C0                 5401 	.db #0xC0
   156F C0                 5402 	.db #0xC0
   1570 C0                 5403 	.db #0xC0
   1571 C0                 5404 	.db #0xC0
   1572 00                 5405 	.db #0x00
   1573 00                 5406 	.db #0x00
   1574 00                 5407 	.db #0x00
   1575 00                 5408 	.db #0x00
   1576 00                 5409 	.db #0x00
   1577 00                 5410 	.db #0x00
   1578 7C                 5411 	.db #0x7C
   1579 7C                 5412 	.db #0x7C
   157A C6                 5413 	.db #0xC6
   157B C6                 5414 	.db #0xC6
   157C FE                 5415 	.db #0xFE
   157D FE                 5416 	.db #0xFE
   157E C0                 5417 	.db #0xC0
   157F C0                 5418 	.db #0xC0
   1580 7E                 5419 	.db #0x7E
   1581 7E                 5420 	.db #0x7E
   1582 00                 5421 	.db #0x00
   1583 00                 5422 	.db #0x00
   1584 00                 5423 	.db #0x00
   1585 00                 5424 	.db #0x00
   1586 00                 5425 	.db #0x00
   1587 00                 5426 	.db #0x00
   1588 7E                 5427 	.db #0x7E
   1589 7E                 5428 	.db #0x7E
   158A C0                 5429 	.db #0xC0
   158B C0                 5430 	.db #0xC0
   158C 7C                 5431 	.db #0x7C
   158D 7C                 5432 	.db #0x7C
   158E 06                 5433 	.db #0x06
   158F 06                 5434 	.db #0x06
   1590 FC                 5435 	.db #0xFC
   1591 FC                 5436 	.db #0xFC
   1592 00                 5437 	.db #0x00
   1593 00                 5438 	.db #0x00
   1594 00                 5439 	.db #0x00
   1595 00                 5440 	.db #0x00
   1596 00                 5441 	.db #0x00
   1597 00                 5442 	.db #0x00
   1598 7C                 5443 	.db #0x7C
   1599 7C                 5444 	.db #0x7C
   159A C0                 5445 	.db #0xC0
   159B C0                 5446 	.db #0xC0
   159C 7C                 5447 	.db #0x7C
   159D 7C                 5448 	.db #0x7C
   159E 06                 5449 	.db #0x06
   159F 06                 5450 	.db #0x06
   15A0 FC                 5451 	.db #0xFC
   15A1 FC                 5452 	.db #0xFC
   15A2 00                 5453 	.db #0x00
   15A3 00                 5454 	.db #0x00
   15A4 7C                 5455 	.db #0x7C
   15A5 7C                 5456 	.db #0x7C
   15A6 C6                 5457 	.db #0xC6
   15A7 C6                 5458 	.db #0xC6
   15A8 C0                 5459 	.db #0xC0
   15A9 C0                 5460 	.db #0xC0
   15AA 7C                 5461 	.db #0x7C
   15AB 7C                 5462 	.db #0x7C
   15AC 06                 5463 	.db #0x06
   15AD 06                 5464 	.db #0x06
   15AE C6                 5465 	.db #0xC6
   15AF C6                 5466 	.db #0xC6
   15B0 7C                 5467 	.db #0x7C
   15B1 7C                 5468 	.db #0x7C
   15B2 00                 5469 	.db #0x00
   15B3 00                 5470 	.db #0x00
   15B4 18                 5471 	.db #0x18
   15B5 18                 5472 	.db #0x18
   15B6 18                 5473 	.db #0x18
   15B7 18                 5474 	.db #0x18
   15B8 18                 5475 	.db #0x18
   15B9 18                 5476 	.db #0x18
   15BA 7E                 5477 	.db #0x7E
   15BB 7E                 5478 	.db #0x7E
   15BC 18                 5479 	.db #0x18
   15BD 18                 5480 	.db #0x18
   15BE 18                 5481 	.db #0x18
   15BF 18                 5482 	.db #0x18
   15C0 18                 5483 	.db #0x18
   15C1 18                 5484 	.db #0x18
   15C2 00                 5485 	.db #0x00
   15C3 00                 5486 	.db #0x00
   15C4 00                 5487 	.db #0x00
   15C5 00                 5488 	.db #0x00
   15C6 00                 5489 	.db #0x00
   15C7 00                 5490 	.db #0x00
   15C8 7C                 5491 	.db #0x7C
   15C9 7C                 5492 	.db #0x7C
   15CA 06                 5493 	.db #0x06
   15CB 06                 5494 	.db #0x06
   15CC 7E                 5495 	.db #0x7E
   15CD 7E                 5496 	.db #0x7E
   15CE C6                 5497 	.db #0xC6
   15CF C6                 5498 	.db #0xC6
   15D0 7E                 5499 	.db #0x7E
   15D1 7E                 5500 	.db #0x7E
   15D2 00                 5501 	.db #0x00
   15D3 00                 5502 	.db #0x00
   15D4 00                 5503 	.db #0x00
   15D5 00                 5504 	.db #0x00
   15D6 00                 5505 	.db #0x00
   15D7 00                 5506 	.db #0x00
   15D8 DC                 5507 	.db #0xDC
   15D9 DC                 5508 	.db #0xDC
   15DA E0                 5509 	.db #0xE0
   15DB E0                 5510 	.db #0xE0
   15DC C0                 5511 	.db #0xC0
   15DD C0                 5512 	.db #0xC0
   15DE C0                 5513 	.db #0xC0
   15DF C0                 5514 	.db #0xC0
   15E0 C0                 5515 	.db #0xC0
   15E1 C0                 5516 	.db #0xC0
   15E2 00                 5517 	.db #0x00
   15E3 00                 5518 	.db #0x00
   15E4 18                 5519 	.db #0x18
   15E5 18                 5520 	.db #0x18
   15E6 18                 5521 	.db #0x18
   15E7 18                 5522 	.db #0x18
   15E8 18                 5523 	.db #0x18
   15E9 18                 5524 	.db #0x18
   15EA 7E                 5525 	.db #0x7E
   15EB 7E                 5526 	.db #0x7E
   15EC 18                 5527 	.db #0x18
   15ED 18                 5528 	.db #0x18
   15EE 18                 5529 	.db #0x18
   15EF 18                 5530 	.db #0x18
   15F0 18                 5531 	.db #0x18
   15F1 18                 5532 	.db #0x18
   15F2                    5533 _By:
   15F2 00                 5534 	.db #0x00
   15F3 00                 5535 	.db #0x00
   15F4 78                 5536 	.db #0x78
   15F5 78                 5537 	.db #0x78
   15F6 CC                 5538 	.db #0xCC
   15F7 CC                 5539 	.db #0xCC
   15F8 0C                 5540 	.db #0x0C
   15F9 0C                 5541 	.db #0x0C
   15FA 38                 5542 	.db #0x38
   15FB 38                 5543 	.db #0x38
   15FC 60                 5544 	.db #0x60
   15FD 60                 5545 	.db #0x60
   15FE CC                 5546 	.db #0xCC
   15FF CC                 5547 	.db #0xCC
   1600 FC                 5548 	.db #0xFC
   1601 FC                 5549 	.db #0xFC
   1602 00                 5550 	.db #0x00
   1603 00                 5551 	.db #0x00
   1604 7C                 5552 	.db #0x7C
   1605 7C                 5553 	.db #0x7C
   1606 C6                 5554 	.db #0xC6
   1607 C6                 5555 	.db #0xC6
   1608 CE                 5556 	.db #0xCE
   1609 CE                 5557 	.db #0xCE
   160A DE                 5558 	.db #0xDE
   160B DE                 5559 	.db #0xDE
   160C F6                 5560 	.db #0xF6
   160D F6                 5561 	.db #0xF6
   160E E6                 5562 	.db #0xE6
   160F E6                 5563 	.db #0xE6
   1610 7C                 5564 	.db #0x7C
   1611 7C                 5565 	.db #0x7C
   1612 00                 5566 	.db #0x00
   1613 00                 5567 	.db #0x00
   1614 18                 5568 	.db #0x18
   1615 18                 5569 	.db #0x18
   1616 38                 5570 	.db #0x38
   1617 38                 5571 	.db #0x38
   1618 18                 5572 	.db #0x18
   1619 18                 5573 	.db #0x18
   161A 18                 5574 	.db #0x18
   161B 18                 5575 	.db #0x18
   161C 18                 5576 	.db #0x18
   161D 18                 5577 	.db #0x18
   161E 18                 5578 	.db #0x18
   161F 18                 5579 	.db #0x18
   1620 7E                 5580 	.db #0x7E
   1621 7E                 5581 	.db #0x7E
   1622 00                 5582 	.db #0x00
   1623 00                 5583 	.db #0x00
   1624 FC                 5584 	.db #0xFC
   1625 FC                 5585 	.db #0xFC
   1626 CC                 5586 	.db #0xCC
   1627 CC                 5587 	.db #0xCC
   1628 0C                 5588 	.db #0x0C
   1629 0C                 5589 	.db #0x0C
   162A 18                 5590 	.db #0x18
   162B 18                 5591 	.db #0x18
   162C 30                 5592 	.db #0x30
   162D 30                 5593 	.db #0x30
   162E 30                 5594 	.db #0x30
   162F 30                 5595 	.db #0x30
   1630 30                 5596 	.db #0x30
   1631 30                 5597 	.db #0x30
   1632 3E                 5598 	.db #0x3E
   1633 3E                 5599 	.db #0x3E
   1634 0C                 5600 	.db #0x0C
   1635 0C                 5601 	.db #0x0C
   1636 0C                 5602 	.db #0x0C
   1637 0C                 5603 	.db #0x0C
   1638 0C                 5604 	.db #0x0C
   1639 0C                 5605 	.db #0x0C
   163A 0C                 5606 	.db #0x0C
   163B 0C                 5607 	.db #0x0C
   163C CC                 5608 	.db #0xCC
   163D CC                 5609 	.db #0xCC
   163E CC                 5610 	.db #0xCC
   163F CC                 5611 	.db #0xCC
   1640 78                 5612 	.db #0x78
   1641 78                 5613 	.db #0x78
   1642 00                 5614 	.db #0x00
   1643 00                 5615 	.db #0x00
   1644 00                 5616 	.db #0x00
   1645 00                 5617 	.db #0x00
   1646 C6                 5618 	.db #0xC6
   1647 C6                 5619 	.db #0xC6
   1648 C6                 5620 	.db #0xC6
   1649 C6                 5621 	.db #0xC6
   164A C6                 5622 	.db #0xC6
   164B C6                 5623 	.db #0xC6
   164C C6                 5624 	.db #0xC6
   164D C6                 5625 	.db #0xC6
   164E C6                 5626 	.db #0xC6
   164F C6                 5627 	.db #0xC6
   1650 7B                 5628 	.db #0x7B
   1651 7B                 5629 	.db #0x7B
   1652 70                 5630 	.db #0x70
   1653 70                 5631 	.db #0x70
   1654 30                 5632 	.db #0x30
   1655 30                 5633 	.db #0x30
   1656 30                 5634 	.db #0x30
   1657 30                 5635 	.db #0x30
   1658 30                 5636 	.db #0x30
   1659 30                 5637 	.db #0x30
   165A 30                 5638 	.db #0x30
   165B 30                 5639 	.db #0x30
   165C 30                 5640 	.db #0x30
   165D 30                 5641 	.db #0x30
   165E 30                 5642 	.db #0x30
   165F 30                 5643 	.db #0x30
   1660 78                 5644 	.db #0x78
   1661 78                 5645 	.db #0x78
   1662 00                 5646 	.db #0x00
   1663 00                 5647 	.db #0x00
   1664 18                 5648 	.db #0x18
   1665 18                 5649 	.db #0x18
   1666 00                 5650 	.db #0x00
   1667 00                 5651 	.db #0x00
   1668 38                 5652 	.db #0x38
   1669 38                 5653 	.db #0x38
   166A 18                 5654 	.db #0x18
   166B 18                 5655 	.db #0x18
   166C 18                 5656 	.db #0x18
   166D 18                 5657 	.db #0x18
   166E 18                 5658 	.db #0x18
   166F 18                 5659 	.db #0x18
   1670 3C                 5660 	.db #0x3C
   1671 3C                 5661 	.db #0x3C
   1672 00                 5662 	.db #0x00
   1673 00                 5663 	.db #0x00
   1674 00                 5664 	.db #0x00
   1675 00                 5665 	.db #0x00
   1676 00                 5666 	.db #0x00
   1677 00                 5667 	.db #0x00
   1678 78                 5668 	.db #0x78
   1679 78                 5669 	.db #0x78
   167A CC                 5670 	.db #0xCC
   167B CC                 5671 	.db #0xCC
   167C FC                 5672 	.db #0xFC
   167D FC                 5673 	.db #0xFC
   167E C0                 5674 	.db #0xC0
   167F C0                 5675 	.db #0xC0
   1680 78                 5676 	.db #0x78
   1681 78                 5677 	.db #0x78
   1682 00                 5678 	.db #0x00
   1683 00                 5679 	.db #0x00
   1684 00                 5680 	.db #0x00
   1685 00                 5681 	.db #0x00
   1686 00                 5682 	.db #0x00
   1687 00                 5683 	.db #0x00
   1688 F8                 5684 	.db #0xF8
   1689 F8                 5685 	.db #0xF8
   168A CC                 5686 	.db #0xCC
   168B CC                 5687 	.db #0xCC
   168C CC                 5688 	.db #0xCC
   168D CC                 5689 	.db #0xCC
   168E CC                 5690 	.db #0xCC
   168F CC                 5691 	.db #0xCC
   1690 CC                 5692 	.db #0xCC
   1691 CC                 5693 	.db #0xCC
   1692 00                 5694 	.db #0x00
   1693 00                 5695 	.db #0x00
   1694 C6                 5696 	.db #0xC6
   1695 C6                 5697 	.db #0xC6
   1696 EE                 5698 	.db #0xEE
   1697 EE                 5699 	.db #0xEE
   1698 FE                 5700 	.db #0xFE
   1699 FE                 5701 	.db #0xFE
   169A FE                 5702 	.db #0xFE
   169B FE                 5703 	.db #0xFE
   169C D6                 5704 	.db #0xD6
   169D D6                 5705 	.db #0xD6
   169E C6                 5706 	.db #0xC6
   169F C6                 5707 	.db #0xC6
   16A0 C6                 5708 	.db #0xC6
   16A1 C6                 5709 	.db #0xC6
   16A2 00                 5710 	.db #0x00
   16A3 00                 5711 	.db #0x00
   16A4 30                 5712 	.db #0x30
   16A5 30                 5713 	.db #0x30
   16A6 78                 5714 	.db #0x78
   16A7 78                 5715 	.db #0x78
   16A8 CC                 5716 	.db #0xCC
   16A9 CC                 5717 	.db #0xCC
   16AA CC                 5718 	.db #0xCC
   16AB CC                 5719 	.db #0xCC
   16AC FC                 5720 	.db #0xFC
   16AD FC                 5721 	.db #0xFC
   16AE CC                 5722 	.db #0xCC
   16AF CC                 5723 	.db #0xCC
   16B0 CC                 5724 	.db #0xCC
   16B1 CC                 5725 	.db #0xCC
   16B2 00                 5726 	.db #0x00
   16B3 00                 5727 	.db #0x00
   16B4 3C                 5728 	.db #0x3C
   16B5 3C                 5729 	.db #0x3C
   16B6 66                 5730 	.db #0x66
   16B7 66                 5731 	.db #0x66
   16B8 C0                 5732 	.db #0xC0
   16B9 C0                 5733 	.db #0xC0
   16BA C0                 5734 	.db #0xC0
   16BB C0                 5735 	.db #0xC0
   16BC CE                 5736 	.db #0xCE
   16BD CE                 5737 	.db #0xCE
   16BE 66                 5738 	.db #0x66
   16BF 66                 5739 	.db #0x66
   16C0 3E                 5740 	.db #0x3E
   16C1 3E                 5741 	.db #0x3E
   16C2 00                 5742 	.db #0x00
   16C3 00                 5743 	.db #0x00
   16C4 C6                 5744 	.db #0xC6
   16C5 C6                 5745 	.db #0xC6
   16C6 E6                 5746 	.db #0xE6
   16C7 E6                 5747 	.db #0xE6
   16C8 F6                 5748 	.db #0xF6
   16C9 F6                 5749 	.db #0xF6
   16CA DE                 5750 	.db #0xDE
   16CB DE                 5751 	.db #0xDE
   16CC CE                 5752 	.db #0xCE
   16CD CE                 5753 	.db #0xCE
   16CE C6                 5754 	.db #0xC6
   16CF C6                 5755 	.db #0xC6
   16D0 C6                 5756 	.db #0xC6
   16D1 C6                 5757 	.db #0xC6
   16D2 00                 5758 	.db #0x00
   16D3 00                 5759 	.db #0x00
   16D4 3C                 5760 	.db #0x3C
   16D5 3C                 5761 	.db #0x3C
   16D6 18                 5762 	.db #0x18
   16D7 18                 5763 	.db #0x18
   16D8 18                 5764 	.db #0x18
   16D9 18                 5765 	.db #0x18
   16DA 18                 5766 	.db #0x18
   16DB 18                 5767 	.db #0x18
   16DC 18                 5768 	.db #0x18
   16DD 18                 5769 	.db #0x18
   16DE 18                 5770 	.db #0x18
   16DF 18                 5771 	.db #0x18
   16E0 3C                 5772 	.db #0x3C
   16E1 3C                 5773 	.db #0x3C
   16E2 00                 5774 	.db #0x00
   16E3 00                 5775 	.db #0x00
   16E4 C6                 5776 	.db #0xC6
   16E5 C6                 5777 	.db #0xC6
   16E6 E6                 5778 	.db #0xE6
   16E7 E6                 5779 	.db #0xE6
   16E8 F6                 5780 	.db #0xF6
   16E9 F6                 5781 	.db #0xF6
   16EA DE                 5782 	.db #0xDE
   16EB DE                 5783 	.db #0xDE
   16EC CE                 5784 	.db #0xCE
   16ED CE                 5785 	.db #0xCE
   16EE C6                 5786 	.db #0xC6
   16EF C6                 5787 	.db #0xC6
   16F0 C6                 5788 	.db #0xC6
   16F1 C6                 5789 	.db #0xC6
   16F2                    5790 __str_0:
   16F2 20 20 20 20 20 20  5791 	.ascii "        "
        20 20
   16FA 00                 5792 	.db 0x00
   16FB                    5793 __str_1:
   16FB 2E                 5794 	.ascii "."
   16FC 00                 5795 	.db 0x00
   16FD                    5796 __str_2:
   16FD 2E                 5797 	.ascii "."
   16FE 00                 5798 	.db 0x00
   16FF                    5799 __str_3:
   16FF 2E                 5800 	.ascii "."
   1700 00                 5801 	.db 0x00
   1701                    5802 __str_4:
   1701 0A                 5803 	.db 0x0A
   1702 0A                 5804 	.db 0x0A
   1703 0A                 5805 	.db 0x0A
   1704 0A                 5806 	.db 0x0A
   1705 20 35              5807 	.ascii " 5"
   1707 00                 5808 	.db 0x00
   1708                    5809 __str_5:
   1708 20                 5810 	.ascii " "
   1709 00                 5811 	.db 0x00
   170A                    5812 __str_6:
   170A 61                 5813 	.ascii "a"
   170B 00                 5814 	.db 0x00
   170C                    5815 __str_7:
   170C 6E                 5816 	.ascii "n"
   170D 00                 5817 	.db 0x00
   170E                    5818 __str_8:
   170E 73                 5819 	.ascii "s"
   170F 00                 5820 	.db 0x00
   1710                    5821 __str_9:
   1710 2E                 5822 	.ascii "."
   1711 00                 5823 	.db 0x00
   1712                    5824 __str_10:
   1712 2E                 5825 	.ascii "."
   1713 00                 5826 	.db 0x00
   1714                    5827 __str_11:
   1714 2E                 5828 	.ascii "."
   1715 00                 5829 	.db 0x00
   1716                    5830 __str_12:
   1716 20                 5831 	.ascii " "
   1717 00                 5832 	.db 0x00
   1718                    5833 __str_13:
   1718 35                 5834 	.ascii "5"
   1719 00                 5835 	.db 0x00
   171A                    5836 __str_14:
   171A 20                 5837 	.ascii " "
   171B 00                 5838 	.db 0x00
   171C                    5839 __str_15:
   171C 6C                 5840 	.ascii "l"
   171D 00                 5841 	.db 0x00
   171E                    5842 __str_16:
   171E 6F                 5843 	.ascii "o"
   171F 00                 5844 	.db 0x00
   1720                    5845 __str_17:
   1720 6E                 5846 	.ascii "n"
   1721 00                 5847 	.db 0x00
   1722                    5848 __str_18:
   1722 67                 5849 	.ascii "g"
   1723 00                 5850 	.db 0x00
   1724                    5851 __str_19:
   1724 75                 5852 	.ascii "u"
   1725 00                 5853 	.db 0x00
   1726                    5854 __str_20:
   1726 65                 5855 	.ascii "e"
   1727 00                 5856 	.db 0x00
   1728                    5857 __str_21:
   1728 73                 5858 	.ascii "s"
   1729 00                 5859 	.db 0x00
   172A                    5860 __str_22:
   172A 0A                 5861 	.db 0x0A
   172B 0A                 5862 	.db 0x0A
   172C 20                 5863 	.ascii " "
   172D 00                 5864 	.db 0x00
   172E                    5865 __str_23:
   172E 61                 5866 	.ascii "a"
   172F 00                 5867 	.db 0x00
   1730                    5868 __str_24:
   1730 6E                 5869 	.ascii "n"
   1731 00                 5870 	.db 0x00
   1732                    5871 __str_25:
   1732 6E                 5872 	.ascii "n"
   1733 00                 5873 	.db 0x00
   1734                    5874 __str_26:
   1734 65                 5875 	.ascii "e"
   1735 00                 5876 	.db 0x00
   1736                    5877 __str_27:
   1736 65                 5878 	.ascii "e"
   1737 00                 5879 	.db 0x00
   1738                    5880 __str_28:
   1738 73                 5881 	.ascii "s"
   1739 00                 5882 	.db 0x00
   173A                    5883 __str_29:
   173A 20                 5884 	.ascii " "
   173B 00                 5885 	.db 0x00
   173C                    5886 __str_30:
   173C 70                 5887 	.ascii "p"
   173D 00                 5888 	.db 0x00
   173E                    5889 __str_31:
   173E 6F                 5890 	.ascii "o"
   173F 00                 5891 	.db 0x00
   1740                    5892 __str_32:
   1740 75                 5893 	.ascii "u"
   1741 00                 5894 	.db 0x00
   1742                    5895 __str_33:
   1742 72                 5896 	.ascii "r"
   1743 00                 5897 	.db 0x00
   1744                    5898 __str_34:
   1744 20                 5899 	.ascii " "
   1745 00                 5900 	.db 0x00
   1746                    5901 __str_35:
   1746 71                 5902 	.ascii "q"
   1747 00                 5903 	.db 0x00
   1748                    5904 __str_36:
   1748 75                 5905 	.ascii "u"
   1749 00                 5906 	.db 0x00
   174A                    5907 __str_37:
   174A 65                 5908 	.ascii "e"
   174B 00                 5909 	.db 0x00
   174C                    5910 __str_38:
   174C 20                 5911 	.ascii " "
   174D 00                 5912 	.db 0x00
   174E                    5913 __str_39:
   174E 6C                 5914 	.ascii "l"
   174F 00                 5915 	.db 0x00
   1750                    5916 __str_40:
   1750 61                 5917 	.ascii "a"
   1751 00                 5918 	.db 0x00
   1752                    5919 __str_41:
   1752 0A                 5920 	.db 0x0A
   1753 0A                 5921 	.db 0x0A
   1754 20                 5922 	.ascii " "
   1755 00                 5923 	.db 0x00
   1756                    5924 __str_42:
   1756 70                 5925 	.ascii "p"
   1757 00                 5926 	.db 0x00
   1758                    5927 __str_43:
   1758 72                 5928 	.ascii "r"
   1759 00                 5929 	.db 0x00
   175A                    5930 __str_44:
   175A 6F                 5931 	.ascii "o"
   175B 00                 5932 	.db 0x00
   175C                    5933 __str_45:
   175C 63                 5934 	.ascii "c"
   175D 00                 5935 	.db 0x00
   175E                    5936 __str_46:
   175E 65                 5937 	.ascii "e"
   175F 00                 5938 	.db 0x00
   1760                    5939 __str_47:
   1760 64                 5940 	.ascii "d"
   1761 00                 5941 	.db 0x00
   1762                    5942 __str_48:
   1762 75                 5943 	.ascii "u"
   1763 00                 5944 	.db 0x00
   1764                    5945 __str_49:
   1764 72                 5946 	.ascii "r"
   1765 00                 5947 	.db 0x00
   1766                    5948 __str_50:
   1766 65                 5949 	.ascii "e"
   1767 00                 5950 	.db 0x00
   1768                    5951 __str_51:
   1768 20                 5952 	.ascii " "
   1769 00                 5953 	.db 0x00
   176A                    5954 __str_52:
   176A 64                 5955 	.ascii "d"
   176B 00                 5956 	.db 0x00
   176C                    5957 __str_53:
   176C 65                 5958 	.ascii "e"
   176D 00                 5959 	.db 0x00
   176E                    5960 __str_54:
   176E 0A                 5961 	.db 0x0A
   176F 0A                 5962 	.db 0x0A
   1770 20                 5963 	.ascii " "
   1771 00                 5964 	.db 0x00
   1772                    5965 __str_55:
   1772 72                 5966 	.ascii "r"
   1773 00                 5967 	.db 0x00
   1774                    5968 __str_56:
   1774 65                 5969 	.ascii "e"
   1775 00                 5970 	.db 0x00
   1776                    5971 __str_57:
   1776 70                 5972 	.ascii "p"
   1777 00                 5973 	.db 0x00
   1778                    5974 __str_58:
   1778 72                 5975 	.ascii "r"
   1779 00                 5976 	.db 0x00
   177A                    5977 __str_59:
   177A 6F                 5978 	.ascii "o"
   177B 00                 5979 	.db 0x00
   177C                    5980 __str_60:
   177C 67                 5981 	.ascii "g"
   177D 00                 5982 	.db 0x00
   177E                    5983 __str_61:
   177E 72                 5984 	.ascii "r"
   177F 00                 5985 	.db 0x00
   1780                    5986 __str_62:
   1780 61                 5987 	.ascii "a"
   1781 00                 5988 	.db 0x00
   1782                    5989 __str_63:
   1782 6D                 5990 	.ascii "m"
   1783 00                 5991 	.db 0x00
   1784                    5992 __str_64:
   1784 6D                 5993 	.ascii "m"
   1785 00                 5994 	.db 0x00
   1786                    5995 __str_65:
   1786 61                 5996 	.ascii "a"
   1787 00                 5997 	.db 0x00
   1788                    5998 __str_66:
   1788 74                 5999 	.ascii "t"
   1789 00                 6000 	.db 0x00
   178A                    6001 __str_67:
   178A 69                 6002 	.ascii "i"
   178B 00                 6003 	.db 0x00
   178C                    6004 __str_68:
   178C 6F                 6005 	.ascii "o"
   178D 00                 6006 	.db 0x00
   178E                    6007 __str_69:
   178E 6E                 6008 	.ascii "n"
   178F 00                 6009 	.db 0x00
   1790                    6010 __str_70:
   1790 0A                 6011 	.db 0x0A
   1791 0A                 6012 	.db 0x0A
   1792 20                 6013 	.ascii " "
   1793 00                 6014 	.db 0x00
   1794                    6015 __str_71:
   1794 61                 6016 	.ascii "a"
   1795 00                 6017 	.db 0x00
   1796                    6018 __str_72:
   1796 72                 6019 	.ascii "r"
   1797 00                 6020 	.db 0x00
   1798                    6021 __str_73:
   1798 72                 6022 	.ascii "r"
   1799 00                 6023 	.db 0x00
   179A                    6024 __str_74:
   179A 69                 6025 	.ascii "i"
   179B 00                 6026 	.db 0x00
   179C                    6027 __str_75:
   179C 76                 6028 	.ascii "v"
   179D 00                 6029 	.db 0x00
   179E                    6030 __str_76:
   179E 65                 6031 	.ascii "e"
   179F 00                 6032 	.db 0x00
   17A0                    6033 __str_77:
   17A0 20                 6034 	.ascii " "
   17A1 00                 6035 	.db 0x00
   17A2                    6036 __str_78:
   17A2 61                 6037 	.ascii "a"
   17A3 00                 6038 	.db 0x00
   17A4                    6039 __str_79:
   17A4 20                 6040 	.ascii " "
   17A5 00                 6041 	.db 0x00
   17A6                    6042 __str_80:
   17A6 73                 6043 	.ascii "s"
   17A7 00                 6044 	.db 0x00
   17A8                    6045 __str_81:
   17A8 61                 6046 	.ascii "a"
   17A9 00                 6047 	.db 0x00
   17AA                    6048 __str_82:
   17AA 20                 6049 	.ascii " "
   17AB 00                 6050 	.db 0x00
   17AC                    6051 __str_83:
   17AC 66                 6052 	.ascii "f"
   17AD 00                 6053 	.db 0x00
   17AE                    6054 __str_84:
   17AE 69                 6055 	.ascii "i"
   17AF 00                 6056 	.db 0x00
   17B0                    6057 __str_85:
   17B0 6E                 6058 	.ascii "n"
   17B1 00                 6059 	.db 0x00
   17B2                    6060 __str_86:
   17B2 2E                 6061 	.ascii "."
   17B3 00                 6062 	.db 0x00
   17B4                    6063 __str_87:
   17B4 2E                 6064 	.ascii "."
   17B5 00                 6065 	.db 0x00
   17B6                    6066 __str_88:
   17B6 2E                 6067 	.ascii "."
   17B7 00                 6068 	.db 0x00
                           6069 ;	IncludeCustom/MessageIntro.c 186
                           6070 ;	genLabel
                           6071 ;	genFunction
                           6072 ;	---------------------------------
                           6073 ; Function messageIntroPart2
                           6074 ; ---------------------------------
   17B8                    6075 ___messageIntroPart2_start:
   17B8                    6076 _messageIntroPart2:
                           6077 	
                           6078 ;	IncludeCustom/MessageIntro.c 188
                           6079 ;	genIpush
                           6080 ; _saveRegsForCall: sendSetSize: 0 deInUse: 0 bcInUse: 0 deSending: 0
   17B8 21 17 20           6081 	ld	hl,#__str_89
   17BB E5                 6082 	push	hl
                           6083 ;	genCall
   17BC CD 00 00           6084 	call	_printf
   17BF E8 02              6085 	lda	sp,2(sp)
                           6086 ;	IncludeCustom/MessageIntro.c 189
                           6087 ;	genIpush
                           6088 ; _saveRegsForCall: sendSetSize: 0 deInUse: 0 bcInUse: 0 deSending: 0
   17C1 21 64 00           6089 	ld	hl,#0x0064
   17C4 E5                 6090 	push	hl
                           6091 ;	genCall
   17C5 CD 00 00           6092 	call	_delay
   17C8 E8 02              6093 	lda	sp,2(sp)
                           6094 ;	IncludeCustom/MessageIntro.c 190
                           6095 ;	genIpush
                           6096 ; _saveRegsForCall: sendSetSize: 0 deInUse: 0 bcInUse: 0 deSending: 0
   17CA 21 1B 20           6097 	ld	hl,#__str_90
   17CD E5                 6098 	push	hl
                           6099 ;	genCall
   17CE CD 00 00           6100 	call	_printf
   17D1 E8 02              6101 	lda	sp,2(sp)
                           6102 ;	IncludeCustom/MessageIntro.c 191
                           6103 ;	genIpush
                           6104 ; _saveRegsForCall: sendSetSize: 0 deInUse: 0 bcInUse: 0 deSending: 0
   17D3 21 64 00           6105 	ld	hl,#0x0064
   17D6 E5                 6106 	push	hl
                           6107 ;	genCall
   17D7 CD 00 00           6108 	call	_delay
   17DA E8 02              6109 	lda	sp,2(sp)
                           6110 ;	IncludeCustom/MessageIntro.c 192
                           6111 ;	genIpush
                           6112 ; _saveRegsForCall: sendSetSize: 0 deInUse: 0 bcInUse: 0 deSending: 0
   17DC 21 1D 20           6113 	ld	hl,#__str_91
   17DF E5                 6114 	push	hl
                           6115 ;	genCall
   17E0 CD 00 00           6116 	call	_printf
   17E3 E8 02              6117 	lda	sp,2(sp)
                           6118 ;	IncludeCustom/MessageIntro.c 193
                           6119 ;	genIpush
                           6120 ; _saveRegsForCall: sendSetSize: 0 deInUse: 0 bcInUse: 0 deSending: 0
   17E5 21 64 00           6121 	ld	hl,#0x0064
   17E8 E5                 6122 	push	hl
                           6123 ;	genCall
   17E9 CD 00 00           6124 	call	_delay
   17EC E8 02              6125 	lda	sp,2(sp)
                           6126 ;	IncludeCustom/MessageIntro.c 194
                           6127 ;	genIpush
                           6128 ; _saveRegsForCall: sendSetSize: 0 deInUse: 0 bcInUse: 0 deSending: 0
   17EE 21 1F 20           6129 	ld	hl,#__str_92
   17F1 E5                 6130 	push	hl
                           6131 ;	genCall
   17F2 CD 00 00           6132 	call	_printf
   17F5 E8 02              6133 	lda	sp,2(sp)
                           6134 ;	IncludeCustom/MessageIntro.c 195
                           6135 ;	genIpush
                           6136 ; _saveRegsForCall: sendSetSize: 0 deInUse: 0 bcInUse: 0 deSending: 0
   17F7 21 64 00           6137 	ld	hl,#0x0064
   17FA E5                 6138 	push	hl
                           6139 ;	genCall
   17FB CD 00 00           6140 	call	_delay
   17FE E8 02              6141 	lda	sp,2(sp)
                           6142 ;	IncludeCustom/MessageIntro.c 196
                           6143 ;	genIpush
                           6144 ; _saveRegsForCall: sendSetSize: 0 deInUse: 0 bcInUse: 0 deSending: 0
   1800 21 21 20           6145 	ld	hl,#__str_93
   1803 E5                 6146 	push	hl
                           6147 ;	genCall
   1804 CD 00 00           6148 	call	_printf
   1807 E8 02              6149 	lda	sp,2(sp)
                           6150 ;	IncludeCustom/MessageIntro.c 197
                           6151 ;	genIpush
                           6152 ; _saveRegsForCall: sendSetSize: 0 deInUse: 0 bcInUse: 0 deSending: 0
   1809 21 64 00           6153 	ld	hl,#0x0064
   180C E5                 6154 	push	hl
                           6155 ;	genCall
   180D CD 00 00           6156 	call	_delay
   1810 E8 02              6157 	lda	sp,2(sp)
                           6158 ;	IncludeCustom/MessageIntro.c 198
                           6159 ;	genIpush
                           6160 ; _saveRegsForCall: sendSetSize: 0 deInUse: 0 bcInUse: 0 deSending: 0
   1812 21 23 20           6161 	ld	hl,#__str_94
   1815 E5                 6162 	push	hl
                           6163 ;	genCall
   1816 CD 00 00           6164 	call	_printf
   1819 E8 02              6165 	lda	sp,2(sp)
                           6166 ;	IncludeCustom/MessageIntro.c 199
                           6167 ;	genIpush
                           6168 ; _saveRegsForCall: sendSetSize: 0 deInUse: 0 bcInUse: 0 deSending: 0
   181B 21 64 00           6169 	ld	hl,#0x0064
   181E E5                 6170 	push	hl
                           6171 ;	genCall
   181F CD 00 00           6172 	call	_delay
   1822 E8 02              6173 	lda	sp,2(sp)
                           6174 ;	IncludeCustom/MessageIntro.c 200
                           6175 ;	genIpush
                           6176 ; _saveRegsForCall: sendSetSize: 0 deInUse: 0 bcInUse: 0 deSending: 0
   1824 21 25 20           6177 	ld	hl,#__str_95
   1827 E5                 6178 	push	hl
                           6179 ;	genCall
   1828 CD 00 00           6180 	call	_printf
   182B E8 02              6181 	lda	sp,2(sp)
                           6182 ;	IncludeCustom/MessageIntro.c 201
                           6183 ;	genIpush
                           6184 ; _saveRegsForCall: sendSetSize: 0 deInUse: 0 bcInUse: 0 deSending: 0
   182D 21 64 00           6185 	ld	hl,#0x0064
   1830 E5                 6186 	push	hl
                           6187 ;	genCall
   1831 CD 00 00           6188 	call	_delay
   1834 E8 02              6189 	lda	sp,2(sp)
                           6190 ;	IncludeCustom/MessageIntro.c 202
                           6191 ;	genIpush
                           6192 ; _saveRegsForCall: sendSetSize: 0 deInUse: 0 bcInUse: 0 deSending: 0
   1836 21 27 20           6193 	ld	hl,#__str_96
   1839 E5                 6194 	push	hl
                           6195 ;	genCall
   183A CD 00 00           6196 	call	_printf
   183D E8 02              6197 	lda	sp,2(sp)
                           6198 ;	IncludeCustom/MessageIntro.c 203
                           6199 ;	genIpush
                           6200 ; _saveRegsForCall: sendSetSize: 0 deInUse: 0 bcInUse: 0 deSending: 0
   183F 21 64 00           6201 	ld	hl,#0x0064
   1842 E5                 6202 	push	hl
                           6203 ;	genCall
   1843 CD 00 00           6204 	call	_delay
   1846 E8 02              6205 	lda	sp,2(sp)
                           6206 ;	IncludeCustom/MessageIntro.c 204
                           6207 ;	genIpush
                           6208 ; _saveRegsForCall: sendSetSize: 0 deInUse: 0 bcInUse: 0 deSending: 0
   1848 21 29 20           6209 	ld	hl,#__str_97
   184B E5                 6210 	push	hl
                           6211 ;	genCall
   184C CD 00 00           6212 	call	_printf
   184F E8 02              6213 	lda	sp,2(sp)
                           6214 ;	IncludeCustom/MessageIntro.c 205
                           6215 ;	genIpush
                           6216 ; _saveRegsForCall: sendSetSize: 0 deInUse: 0 bcInUse: 0 deSending: 0
   1851 21 64 00           6217 	ld	hl,#0x0064
   1854 E5                 6218 	push	hl
                           6219 ;	genCall
   1855 CD 00 00           6220 	call	_delay
   1858 E8 02              6221 	lda	sp,2(sp)
                           6222 ;	IncludeCustom/MessageIntro.c 206
                           6223 ;	genIpush
                           6224 ; _saveRegsForCall: sendSetSize: 0 deInUse: 0 bcInUse: 0 deSending: 0
   185A 21 2B 20           6225 	ld	hl,#__str_98
   185D E5                 6226 	push	hl
                           6227 ;	genCall
   185E CD 00 00           6228 	call	_printf
   1861 E8 02              6229 	lda	sp,2(sp)
                           6230 ;	IncludeCustom/MessageIntro.c 207
                           6231 ;	genIpush
                           6232 ; _saveRegsForCall: sendSetSize: 0 deInUse: 0 bcInUse: 0 deSending: 0
   1863 21 64 00           6233 	ld	hl,#0x0064
   1866 E5                 6234 	push	hl
                           6235 ;	genCall
   1867 CD 00 00           6236 	call	_delay
   186A E8 02              6237 	lda	sp,2(sp)
                           6238 ;	IncludeCustom/MessageIntro.c 208
                           6239 ;	genIpush
                           6240 ; _saveRegsForCall: sendSetSize: 0 deInUse: 0 bcInUse: 0 deSending: 0
   186C 21 2D 20           6241 	ld	hl,#__str_99
   186F E5                 6242 	push	hl
                           6243 ;	genCall
   1870 CD 00 00           6244 	call	_printf
   1873 E8 02              6245 	lda	sp,2(sp)
                           6246 ;	IncludeCustom/MessageIntro.c 209
                           6247 ;	genIpush
                           6248 ; _saveRegsForCall: sendSetSize: 0 deInUse: 0 bcInUse: 0 deSending: 0
   1875 21 64 00           6249 	ld	hl,#0x0064
   1878 E5                 6250 	push	hl
                           6251 ;	genCall
   1879 CD 00 00           6252 	call	_delay
   187C E8 02              6253 	lda	sp,2(sp)
                           6254 ;	IncludeCustom/MessageIntro.c 210
                           6255 ;	genIpush
                           6256 ; _saveRegsForCall: sendSetSize: 0 deInUse: 0 bcInUse: 0 deSending: 0
   187E 21 2F 20           6257 	ld	hl,#__str_100
   1881 E5                 6258 	push	hl
                           6259 ;	genCall
   1882 CD 00 00           6260 	call	_printf
   1885 E8 02              6261 	lda	sp,2(sp)
                           6262 ;	IncludeCustom/MessageIntro.c 211
                           6263 ;	genIpush
                           6264 ; _saveRegsForCall: sendSetSize: 0 deInUse: 0 bcInUse: 0 deSending: 0
   1887 21 64 00           6265 	ld	hl,#0x0064
   188A E5                 6266 	push	hl
                           6267 ;	genCall
   188B CD 00 00           6268 	call	_delay
   188E E8 02              6269 	lda	sp,2(sp)
                           6270 ;	IncludeCustom/MessageIntro.c 212
                           6271 ;	genIpush
                           6272 ; _saveRegsForCall: sendSetSize: 0 deInUse: 0 bcInUse: 0 deSending: 0
   1890 21 31 20           6273 	ld	hl,#__str_101
   1893 E5                 6274 	push	hl
                           6275 ;	genCall
   1894 CD 00 00           6276 	call	_printf
   1897 E8 02              6277 	lda	sp,2(sp)
                           6278 ;	IncludeCustom/MessageIntro.c 213
                           6279 ;	genIpush
                           6280 ; _saveRegsForCall: sendSetSize: 0 deInUse: 0 bcInUse: 0 deSending: 0
   1899 21 64 00           6281 	ld	hl,#0x0064
   189C E5                 6282 	push	hl
                           6283 ;	genCall
   189D CD 00 00           6284 	call	_delay
   18A0 E8 02              6285 	lda	sp,2(sp)
                           6286 ;	IncludeCustom/MessageIntro.c 214
                           6287 ;	genIpush
                           6288 ; _saveRegsForCall: sendSetSize: 0 deInUse: 0 bcInUse: 0 deSending: 0
   18A2 21 33 20           6289 	ld	hl,#__str_102
   18A5 E5                 6290 	push	hl
                           6291 ;	genCall
   18A6 CD 00 00           6292 	call	_printf
   18A9 E8 02              6293 	lda	sp,2(sp)
                           6294 ;	IncludeCustom/MessageIntro.c 215
                           6295 ;	genIpush
                           6296 ; _saveRegsForCall: sendSetSize: 0 deInUse: 0 bcInUse: 0 deSending: 0
   18AB 21 64 00           6297 	ld	hl,#0x0064
   18AE E5                 6298 	push	hl
                           6299 ;	genCall
   18AF CD 00 00           6300 	call	_delay
   18B2 E8 02              6301 	lda	sp,2(sp)
                           6302 ;	IncludeCustom/MessageIntro.c 216
                           6303 ;	genIpush
                           6304 ; _saveRegsForCall: sendSetSize: 0 deInUse: 0 bcInUse: 0 deSending: 0
   18B4 21 35 20           6305 	ld	hl,#__str_103
   18B7 E5                 6306 	push	hl
                           6307 ;	genCall
   18B8 CD 00 00           6308 	call	_printf
   18BB E8 02              6309 	lda	sp,2(sp)
                           6310 ;	IncludeCustom/MessageIntro.c 217
                           6311 ;	genIpush
                           6312 ; _saveRegsForCall: sendSetSize: 0 deInUse: 0 bcInUse: 0 deSending: 0
   18BD 21 64 00           6313 	ld	hl,#0x0064
   18C0 E5                 6314 	push	hl
                           6315 ;	genCall
   18C1 CD 00 00           6316 	call	_delay
   18C4 E8 02              6317 	lda	sp,2(sp)
                           6318 ;	IncludeCustom/MessageIntro.c 218
                           6319 ;	genIpush
                           6320 ; _saveRegsForCall: sendSetSize: 0 deInUse: 0 bcInUse: 0 deSending: 0
   18C6 21 37 20           6321 	ld	hl,#__str_104
   18C9 E5                 6322 	push	hl
                           6323 ;	genCall
   18CA CD 00 00           6324 	call	_printf
   18CD E8 02              6325 	lda	sp,2(sp)
                           6326 ;	IncludeCustom/MessageIntro.c 219
                           6327 ;	genIpush
                           6328 ; _saveRegsForCall: sendSetSize: 0 deInUse: 0 bcInUse: 0 deSending: 0
   18CF 21 64 00           6329 	ld	hl,#0x0064
   18D2 E5                 6330 	push	hl
                           6331 ;	genCall
   18D3 CD 00 00           6332 	call	_delay
   18D6 E8 02              6333 	lda	sp,2(sp)
                           6334 ;	IncludeCustom/MessageIntro.c 220
                           6335 ;	genIpush
                           6336 ; _saveRegsForCall: sendSetSize: 0 deInUse: 0 bcInUse: 0 deSending: 0
   18D8 21 39 20           6337 	ld	hl,#__str_105
   18DB E5                 6338 	push	hl
                           6339 ;	genCall
   18DC CD 00 00           6340 	call	_printf
   18DF E8 02              6341 	lda	sp,2(sp)
                           6342 ;	IncludeCustom/MessageIntro.c 221
                           6343 ;	genIpush
                           6344 ; _saveRegsForCall: sendSetSize: 0 deInUse: 0 bcInUse: 0 deSending: 0
   18E1 21 3B 20           6345 	ld	hl,#__str_106
   18E4 E5                 6346 	push	hl
                           6347 ;	genCall
   18E5 CD 00 00           6348 	call	_printf
   18E8 E8 02              6349 	lda	sp,2(sp)
                           6350 ;	IncludeCustom/MessageIntro.c 222
                           6351 ;	genIpush
                           6352 ; _saveRegsForCall: sendSetSize: 0 deInUse: 0 bcInUse: 0 deSending: 0
   18EA 21 64 00           6353 	ld	hl,#0x0064
   18ED E5                 6354 	push	hl
                           6355 ;	genCall
   18EE CD 00 00           6356 	call	_delay
   18F1 E8 02              6357 	lda	sp,2(sp)
                           6358 ;	IncludeCustom/MessageIntro.c 223
                           6359 ;	genIpush
                           6360 ; _saveRegsForCall: sendSetSize: 0 deInUse: 0 bcInUse: 0 deSending: 0
   18F3 21 3F 20           6361 	ld	hl,#__str_107
   18F6 E5                 6362 	push	hl
                           6363 ;	genCall
   18F7 CD 00 00           6364 	call	_printf
   18FA E8 02              6365 	lda	sp,2(sp)
                           6366 ;	IncludeCustom/MessageIntro.c 224
                           6367 ;	genIpush
                           6368 ; _saveRegsForCall: sendSetSize: 0 deInUse: 0 bcInUse: 0 deSending: 0
   18FC 21 64 00           6369 	ld	hl,#0x0064
   18FF E5                 6370 	push	hl
                           6371 ;	genCall
   1900 CD 00 00           6372 	call	_delay
   1903 E8 02              6373 	lda	sp,2(sp)
                           6374 ;	IncludeCustom/MessageIntro.c 225
                           6375 ;	genIpush
                           6376 ; _saveRegsForCall: sendSetSize: 0 deInUse: 0 bcInUse: 0 deSending: 0
   1905 21 41 20           6377 	ld	hl,#__str_108
   1908 E5                 6378 	push	hl
                           6379 ;	genCall
   1909 CD 00 00           6380 	call	_printf
   190C E8 02              6381 	lda	sp,2(sp)
                           6382 ;	IncludeCustom/MessageIntro.c 226
                           6383 ;	genIpush
                           6384 ; _saveRegsForCall: sendSetSize: 0 deInUse: 0 bcInUse: 0 deSending: 0
   190E 21 64 00           6385 	ld	hl,#0x0064
   1911 E5                 6386 	push	hl
                           6387 ;	genCall
   1912 CD 00 00           6388 	call	_delay
   1915 E8 02              6389 	lda	sp,2(sp)
                           6390 ;	IncludeCustom/MessageIntro.c 227
                           6391 ;	genIpush
                           6392 ; _saveRegsForCall: sendSetSize: 0 deInUse: 0 bcInUse: 0 deSending: 0
   1917 21 43 20           6393 	ld	hl,#__str_109
   191A E5                 6394 	push	hl
                           6395 ;	genCall
   191B CD 00 00           6396 	call	_printf
   191E E8 02              6397 	lda	sp,2(sp)
                           6398 ;	IncludeCustom/MessageIntro.c 228
                           6399 ;	genIpush
                           6400 ; _saveRegsForCall: sendSetSize: 0 deInUse: 0 bcInUse: 0 deSending: 0
   1920 21 64 00           6401 	ld	hl,#0x0064
   1923 E5                 6402 	push	hl
                           6403 ;	genCall
   1924 CD 00 00           6404 	call	_delay
   1927 E8 02              6405 	lda	sp,2(sp)
                           6406 ;	IncludeCustom/MessageIntro.c 229
                           6407 ;	genIpush
                           6408 ; _saveRegsForCall: sendSetSize: 0 deInUse: 0 bcInUse: 0 deSending: 0
   1929 21 45 20           6409 	ld	hl,#__str_110
   192C E5                 6410 	push	hl
                           6411 ;	genCall
   192D CD 00 00           6412 	call	_printf
   1930 E8 02              6413 	lda	sp,2(sp)
                           6414 ;	IncludeCustom/MessageIntro.c 230
                           6415 ;	genIpush
                           6416 ; _saveRegsForCall: sendSetSize: 0 deInUse: 0 bcInUse: 0 deSending: 0
   1932 21 64 00           6417 	ld	hl,#0x0064
   1935 E5                 6418 	push	hl
                           6419 ;	genCall
   1936 CD 00 00           6420 	call	_delay
   1939 E8 02              6421 	lda	sp,2(sp)
                           6422 ;	IncludeCustom/MessageIntro.c 231
                           6423 ;	genIpush
                           6424 ; _saveRegsForCall: sendSetSize: 0 deInUse: 0 bcInUse: 0 deSending: 0
   193B 21 47 20           6425 	ld	hl,#__str_111
   193E E5                 6426 	push	hl
                           6427 ;	genCall
   193F CD 00 00           6428 	call	_printf
   1942 E8 02              6429 	lda	sp,2(sp)
                           6430 ;	IncludeCustom/MessageIntro.c 232
                           6431 ;	genIpush
                           6432 ; _saveRegsForCall: sendSetSize: 0 deInUse: 0 bcInUse: 0 deSending: 0
   1944 21 64 00           6433 	ld	hl,#0x0064
   1947 E5                 6434 	push	hl
                           6435 ;	genCall
   1948 CD 00 00           6436 	call	_delay
   194B E8 02              6437 	lda	sp,2(sp)
                           6438 ;	IncludeCustom/MessageIntro.c 233
                           6439 ;	genIpush
                           6440 ; _saveRegsForCall: sendSetSize: 0 deInUse: 0 bcInUse: 0 deSending: 0
   194D 21 49 20           6441 	ld	hl,#__str_112
   1950 E5                 6442 	push	hl
                           6443 ;	genCall
   1951 CD 00 00           6444 	call	_printf
   1954 E8 02              6445 	lda	sp,2(sp)
                           6446 ;	IncludeCustom/MessageIntro.c 234
                           6447 ;	genIpush
                           6448 ; _saveRegsForCall: sendSetSize: 0 deInUse: 0 bcInUse: 0 deSending: 0
   1956 21 64 00           6449 	ld	hl,#0x0064
   1959 E5                 6450 	push	hl
                           6451 ;	genCall
   195A CD 00 00           6452 	call	_delay
   195D E8 02              6453 	lda	sp,2(sp)
                           6454 ;	IncludeCustom/MessageIntro.c 235
                           6455 ;	genIpush
                           6456 ; _saveRegsForCall: sendSetSize: 0 deInUse: 0 bcInUse: 0 deSending: 0
   195F 21 4B 20           6457 	ld	hl,#__str_113
   1962 E5                 6458 	push	hl
                           6459 ;	genCall
   1963 CD 00 00           6460 	call	_printf
   1966 E8 02              6461 	lda	sp,2(sp)
                           6462 ;	IncludeCustom/MessageIntro.c 236
                           6463 ;	genIpush
                           6464 ; _saveRegsForCall: sendSetSize: 0 deInUse: 0 bcInUse: 0 deSending: 0
   1968 21 64 00           6465 	ld	hl,#0x0064
   196B E5                 6466 	push	hl
                           6467 ;	genCall
   196C CD 00 00           6468 	call	_delay
   196F E8 02              6469 	lda	sp,2(sp)
                           6470 ;	IncludeCustom/MessageIntro.c 237
                           6471 ;	genIpush
                           6472 ; _saveRegsForCall: sendSetSize: 0 deInUse: 0 bcInUse: 0 deSending: 0
   1971 21 4D 20           6473 	ld	hl,#__str_114
   1974 E5                 6474 	push	hl
                           6475 ;	genCall
   1975 CD 00 00           6476 	call	_printf
   1978 E8 02              6477 	lda	sp,2(sp)
                           6478 ;	IncludeCustom/MessageIntro.c 238
                           6479 ;	genIpush
                           6480 ; _saveRegsForCall: sendSetSize: 0 deInUse: 0 bcInUse: 0 deSending: 0
   197A 21 64 00           6481 	ld	hl,#0x0064
   197D E5                 6482 	push	hl
                           6483 ;	genCall
   197E CD 00 00           6484 	call	_delay
   1981 E8 02              6485 	lda	sp,2(sp)
                           6486 ;	IncludeCustom/MessageIntro.c 239
                           6487 ;	genIpush
                           6488 ; _saveRegsForCall: sendSetSize: 0 deInUse: 0 bcInUse: 0 deSending: 0
   1983 21 4F 20           6489 	ld	hl,#__str_115
   1986 E5                 6490 	push	hl
                           6491 ;	genCall
   1987 CD 00 00           6492 	call	_printf
   198A E8 02              6493 	lda	sp,2(sp)
                           6494 ;	IncludeCustom/MessageIntro.c 240
                           6495 ;	genIpush
                           6496 ; _saveRegsForCall: sendSetSize: 0 deInUse: 0 bcInUse: 0 deSending: 0
   198C 21 64 00           6497 	ld	hl,#0x0064
   198F E5                 6498 	push	hl
                           6499 ;	genCall
   1990 CD 00 00           6500 	call	_delay
   1993 E8 02              6501 	lda	sp,2(sp)
                           6502 ;	IncludeCustom/MessageIntro.c 241
                           6503 ;	genIpush
                           6504 ; _saveRegsForCall: sendSetSize: 0 deInUse: 0 bcInUse: 0 deSending: 0
   1995 21 51 20           6505 	ld	hl,#__str_116
   1998 E5                 6506 	push	hl
                           6507 ;	genCall
   1999 CD 00 00           6508 	call	_printf
   199C E8 02              6509 	lda	sp,2(sp)
                           6510 ;	IncludeCustom/MessageIntro.c 242
                           6511 ;	genIpush
                           6512 ; _saveRegsForCall: sendSetSize: 0 deInUse: 0 bcInUse: 0 deSending: 0
   199E 21 64 00           6513 	ld	hl,#0x0064
   19A1 E5                 6514 	push	hl
                           6515 ;	genCall
   19A2 CD 00 00           6516 	call	_delay
   19A5 E8 02              6517 	lda	sp,2(sp)
                           6518 ;	IncludeCustom/MessageIntro.c 243
                           6519 ;	genIpush
                           6520 ; _saveRegsForCall: sendSetSize: 0 deInUse: 0 bcInUse: 0 deSending: 0
   19A7 21 53 20           6521 	ld	hl,#__str_117
   19AA E5                 6522 	push	hl
                           6523 ;	genCall
   19AB CD 00 00           6524 	call	_printf
   19AE E8 02              6525 	lda	sp,2(sp)
                           6526 ;	IncludeCustom/MessageIntro.c 244
                           6527 ;	genIpush
                           6528 ; _saveRegsForCall: sendSetSize: 0 deInUse: 0 bcInUse: 0 deSending: 0
   19B0 21 64 00           6529 	ld	hl,#0x0064
   19B3 E5                 6530 	push	hl
                           6531 ;	genCall
   19B4 CD 00 00           6532 	call	_delay
   19B7 E8 02              6533 	lda	sp,2(sp)
                           6534 ;	IncludeCustom/MessageIntro.c 245
                           6535 ;	genIpush
                           6536 ; _saveRegsForCall: sendSetSize: 0 deInUse: 0 bcInUse: 0 deSending: 0
   19B9 21 55 20           6537 	ld	hl,#__str_118
   19BC E5                 6538 	push	hl
                           6539 ;	genCall
   19BD CD 00 00           6540 	call	_printf
   19C0 E8 02              6541 	lda	sp,2(sp)
                           6542 ;	IncludeCustom/MessageIntro.c 246
                           6543 ;	genIpush
                           6544 ; _saveRegsForCall: sendSetSize: 0 deInUse: 0 bcInUse: 0 deSending: 0
   19C2 21 64 00           6545 	ld	hl,#0x0064
   19C5 E5                 6546 	push	hl
                           6547 ;	genCall
   19C6 CD 00 00           6548 	call	_delay
   19C9 E8 02              6549 	lda	sp,2(sp)
                           6550 ;	IncludeCustom/MessageIntro.c 247
                           6551 ;	genIpush
                           6552 ; _saveRegsForCall: sendSetSize: 0 deInUse: 0 bcInUse: 0 deSending: 0
   19CB 21 57 20           6553 	ld	hl,#__str_119
   19CE E5                 6554 	push	hl
                           6555 ;	genCall
   19CF CD 00 00           6556 	call	_printf
   19D2 E8 02              6557 	lda	sp,2(sp)
                           6558 ;	IncludeCustom/MessageIntro.c 248
                           6559 ;	genIpush
                           6560 ; _saveRegsForCall: sendSetSize: 0 deInUse: 0 bcInUse: 0 deSending: 0
   19D4 21 64 00           6561 	ld	hl,#0x0064
   19D7 E5                 6562 	push	hl
                           6563 ;	genCall
   19D8 CD 00 00           6564 	call	_delay
   19DB E8 02              6565 	lda	sp,2(sp)
                           6566 ;	IncludeCustom/MessageIntro.c 249
                           6567 ;	genIpush
                           6568 ; _saveRegsForCall: sendSetSize: 0 deInUse: 0 bcInUse: 0 deSending: 0
   19DD 21 59 20           6569 	ld	hl,#__str_120
   19E0 E5                 6570 	push	hl
                           6571 ;	genCall
   19E1 CD 00 00           6572 	call	_printf
   19E4 E8 02              6573 	lda	sp,2(sp)
                           6574 ;	IncludeCustom/MessageIntro.c 250
                           6575 ;	genIpush
                           6576 ; _saveRegsForCall: sendSetSize: 0 deInUse: 0 bcInUse: 0 deSending: 0
   19E6 21 64 00           6577 	ld	hl,#0x0064
   19E9 E5                 6578 	push	hl
                           6579 ;	genCall
   19EA CD 00 00           6580 	call	_delay
   19ED E8 02              6581 	lda	sp,2(sp)
                           6582 ;	IncludeCustom/MessageIntro.c 251
                           6583 ;	genIpush
                           6584 ; _saveRegsForCall: sendSetSize: 0 deInUse: 0 bcInUse: 0 deSending: 0
   19EF 21 5B 20           6585 	ld	hl,#__str_121
   19F2 E5                 6586 	push	hl
                           6587 ;	genCall
   19F3 CD 00 00           6588 	call	_printf
   19F6 E8 02              6589 	lda	sp,2(sp)
                           6590 ;	IncludeCustom/MessageIntro.c 252
                           6591 ;	genIpush
                           6592 ; _saveRegsForCall: sendSetSize: 0 deInUse: 0 bcInUse: 0 deSending: 0
   19F8 21 5D 20           6593 	ld	hl,#__str_122
   19FB E5                 6594 	push	hl
                           6595 ;	genCall
   19FC CD 00 00           6596 	call	_printf
   19FF E8 02              6597 	lda	sp,2(sp)
                           6598 ;	IncludeCustom/MessageIntro.c 253
                           6599 ;	genIpush
                           6600 ; _saveRegsForCall: sendSetSize: 0 deInUse: 0 bcInUse: 0 deSending: 0
   1A01 21 64 00           6601 	ld	hl,#0x0064
   1A04 E5                 6602 	push	hl
                           6603 ;	genCall
   1A05 CD 00 00           6604 	call	_delay
   1A08 E8 02              6605 	lda	sp,2(sp)
                           6606 ;	IncludeCustom/MessageIntro.c 254
                           6607 ;	genIpush
                           6608 ; _saveRegsForCall: sendSetSize: 0 deInUse: 0 bcInUse: 0 deSending: 0
   1A0A 21 61 20           6609 	ld	hl,#__str_123
   1A0D E5                 6610 	push	hl
                           6611 ;	genCall
   1A0E CD 00 00           6612 	call	_printf
   1A11 E8 02              6613 	lda	sp,2(sp)
                           6614 ;	IncludeCustom/MessageIntro.c 255
                           6615 ;	genIpush
                           6616 ; _saveRegsForCall: sendSetSize: 0 deInUse: 0 bcInUse: 0 deSending: 0
   1A13 21 64 00           6617 	ld	hl,#0x0064
   1A16 E5                 6618 	push	hl
                           6619 ;	genCall
   1A17 CD 00 00           6620 	call	_delay
   1A1A E8 02              6621 	lda	sp,2(sp)
                           6622 ;	IncludeCustom/MessageIntro.c 256
                           6623 ;	genIpush
                           6624 ; _saveRegsForCall: sendSetSize: 0 deInUse: 0 bcInUse: 0 deSending: 0
   1A1C 21 63 20           6625 	ld	hl,#__str_124
   1A1F E5                 6626 	push	hl
                           6627 ;	genCall
   1A20 CD 00 00           6628 	call	_printf
   1A23 E8 02              6629 	lda	sp,2(sp)
                           6630 ;	IncludeCustom/MessageIntro.c 257
                           6631 ;	genIpush
                           6632 ; _saveRegsForCall: sendSetSize: 0 deInUse: 0 bcInUse: 0 deSending: 0
   1A25 21 64 00           6633 	ld	hl,#0x0064
   1A28 E5                 6634 	push	hl
                           6635 ;	genCall
   1A29 CD 00 00           6636 	call	_delay
   1A2C E8 02              6637 	lda	sp,2(sp)
                           6638 ;	IncludeCustom/MessageIntro.c 258
                           6639 ;	genIpush
                           6640 ; _saveRegsForCall: sendSetSize: 0 deInUse: 0 bcInUse: 0 deSending: 0
   1A2E 21 65 20           6641 	ld	hl,#__str_125
   1A31 E5                 6642 	push	hl
                           6643 ;	genCall
   1A32 CD 00 00           6644 	call	_printf
   1A35 E8 02              6645 	lda	sp,2(sp)
                           6646 ;	IncludeCustom/MessageIntro.c 259
                           6647 ;	genIpush
                           6648 ; _saveRegsForCall: sendSetSize: 0 deInUse: 0 bcInUse: 0 deSending: 0
   1A37 21 64 00           6649 	ld	hl,#0x0064
   1A3A E5                 6650 	push	hl
                           6651 ;	genCall
   1A3B CD 00 00           6652 	call	_delay
   1A3E E8 02              6653 	lda	sp,2(sp)
                           6654 ;	IncludeCustom/MessageIntro.c 260
                           6655 ;	genIpush
                           6656 ; _saveRegsForCall: sendSetSize: 0 deInUse: 0 bcInUse: 0 deSending: 0
   1A40 21 67 20           6657 	ld	hl,#__str_126
   1A43 E5                 6658 	push	hl
                           6659 ;	genCall
   1A44 CD 00 00           6660 	call	_printf
   1A47 E8 02              6661 	lda	sp,2(sp)
                           6662 ;	IncludeCustom/MessageIntro.c 261
                           6663 ;	genIpush
                           6664 ; _saveRegsForCall: sendSetSize: 0 deInUse: 0 bcInUse: 0 deSending: 0
   1A49 21 64 00           6665 	ld	hl,#0x0064
   1A4C E5                 6666 	push	hl
                           6667 ;	genCall
   1A4D CD 00 00           6668 	call	_delay
   1A50 E8 02              6669 	lda	sp,2(sp)
                           6670 ;	IncludeCustom/MessageIntro.c 262
                           6671 ;	genIpush
                           6672 ; _saveRegsForCall: sendSetSize: 0 deInUse: 0 bcInUse: 0 deSending: 0
   1A52 21 69 20           6673 	ld	hl,#__str_127
   1A55 E5                 6674 	push	hl
                           6675 ;	genCall
   1A56 CD 00 00           6676 	call	_printf
   1A59 E8 02              6677 	lda	sp,2(sp)
                           6678 ;	IncludeCustom/MessageIntro.c 263
                           6679 ;	genIpush
                           6680 ; _saveRegsForCall: sendSetSize: 0 deInUse: 0 bcInUse: 0 deSending: 0
   1A5B 21 64 00           6681 	ld	hl,#0x0064
   1A5E E5                 6682 	push	hl
                           6683 ;	genCall
   1A5F CD 00 00           6684 	call	_delay
   1A62 E8 02              6685 	lda	sp,2(sp)
                           6686 ;	IncludeCustom/MessageIntro.c 264
                           6687 ;	genIpush
                           6688 ; _saveRegsForCall: sendSetSize: 0 deInUse: 0 bcInUse: 0 deSending: 0
   1A64 21 6B 20           6689 	ld	hl,#__str_128
   1A67 E5                 6690 	push	hl
                           6691 ;	genCall
   1A68 CD 00 00           6692 	call	_printf
   1A6B E8 02              6693 	lda	sp,2(sp)
                           6694 ;	IncludeCustom/MessageIntro.c 265
                           6695 ;	genIpush
                           6696 ; _saveRegsForCall: sendSetSize: 0 deInUse: 0 bcInUse: 0 deSending: 0
   1A6D 21 64 00           6697 	ld	hl,#0x0064
   1A70 E5                 6698 	push	hl
                           6699 ;	genCall
   1A71 CD 00 00           6700 	call	_delay
   1A74 E8 02              6701 	lda	sp,2(sp)
                           6702 ;	IncludeCustom/MessageIntro.c 266
                           6703 ;	genIpush
                           6704 ; _saveRegsForCall: sendSetSize: 0 deInUse: 0 bcInUse: 0 deSending: 0
   1A76 21 6D 20           6705 	ld	hl,#__str_129
   1A79 E5                 6706 	push	hl
                           6707 ;	genCall
   1A7A CD 00 00           6708 	call	_printf
   1A7D E8 02              6709 	lda	sp,2(sp)
                           6710 ;	IncludeCustom/MessageIntro.c 267
                           6711 ;	genIpush
                           6712 ; _saveRegsForCall: sendSetSize: 0 deInUse: 0 bcInUse: 0 deSending: 0
   1A7F 21 64 00           6713 	ld	hl,#0x0064
   1A82 E5                 6714 	push	hl
                           6715 ;	genCall
   1A83 CD 00 00           6716 	call	_delay
   1A86 E8 02              6717 	lda	sp,2(sp)
                           6718 ;	IncludeCustom/MessageIntro.c 268
                           6719 ;	genIpush
                           6720 ; _saveRegsForCall: sendSetSize: 0 deInUse: 0 bcInUse: 0 deSending: 0
   1A88 21 6F 20           6721 	ld	hl,#__str_130
   1A8B E5                 6722 	push	hl
                           6723 ;	genCall
   1A8C CD 00 00           6724 	call	_printf
   1A8F E8 02              6725 	lda	sp,2(sp)
                           6726 ;	IncludeCustom/MessageIntro.c 269
                           6727 ;	genIpush
                           6728 ; _saveRegsForCall: sendSetSize: 0 deInUse: 0 bcInUse: 0 deSending: 0
   1A91 21 64 00           6729 	ld	hl,#0x0064
   1A94 E5                 6730 	push	hl
                           6731 ;	genCall
   1A95 CD 00 00           6732 	call	_delay
   1A98 E8 02              6733 	lda	sp,2(sp)
                           6734 ;	IncludeCustom/MessageIntro.c 270
                           6735 ;	genIpush
                           6736 ; _saveRegsForCall: sendSetSize: 0 deInUse: 0 bcInUse: 0 deSending: 0
   1A9A 21 71 20           6737 	ld	hl,#__str_131
   1A9D E5                 6738 	push	hl
                           6739 ;	genCall
   1A9E CD 00 00           6740 	call	_printf
   1AA1 E8 02              6741 	lda	sp,2(sp)
                           6742 ;	IncludeCustom/MessageIntro.c 271
                           6743 ;	genIpush
                           6744 ; _saveRegsForCall: sendSetSize: 0 deInUse: 0 bcInUse: 0 deSending: 0
   1AA3 21 64 00           6745 	ld	hl,#0x0064
   1AA6 E5                 6746 	push	hl
                           6747 ;	genCall
   1AA7 CD 00 00           6748 	call	_delay
   1AAA E8 02              6749 	lda	sp,2(sp)
                           6750 ;	IncludeCustom/MessageIntro.c 272
                           6751 ;	genIpush
                           6752 ; _saveRegsForCall: sendSetSize: 0 deInUse: 0 bcInUse: 0 deSending: 0
   1AAC 21 73 20           6753 	ld	hl,#__str_132
   1AAF E5                 6754 	push	hl
                           6755 ;	genCall
   1AB0 CD 00 00           6756 	call	_printf
   1AB3 E8 02              6757 	lda	sp,2(sp)
                           6758 ;	IncludeCustom/MessageIntro.c 273
                           6759 ;	genIpush
                           6760 ; _saveRegsForCall: sendSetSize: 0 deInUse: 0 bcInUse: 0 deSending: 0
   1AB5 21 64 00           6761 	ld	hl,#0x0064
   1AB8 E5                 6762 	push	hl
                           6763 ;	genCall
   1AB9 CD 00 00           6764 	call	_delay
   1ABC E8 02              6765 	lda	sp,2(sp)
                           6766 ;	IncludeCustom/MessageIntro.c 274
                           6767 ;	genIpush
                           6768 ; _saveRegsForCall: sendSetSize: 0 deInUse: 0 bcInUse: 0 deSending: 0
   1ABE 21 75 20           6769 	ld	hl,#__str_133
   1AC1 E5                 6770 	push	hl
                           6771 ;	genCall
   1AC2 CD 00 00           6772 	call	_printf
   1AC5 E8 02              6773 	lda	sp,2(sp)
                           6774 ;	IncludeCustom/MessageIntro.c 275
                           6775 ;	genIpush
                           6776 ; _saveRegsForCall: sendSetSize: 0 deInUse: 0 bcInUse: 0 deSending: 0
   1AC7 21 64 00           6777 	ld	hl,#0x0064
   1ACA E5                 6778 	push	hl
                           6779 ;	genCall
   1ACB CD 00 00           6780 	call	_delay
   1ACE E8 02              6781 	lda	sp,2(sp)
                           6782 ;	IncludeCustom/MessageIntro.c 276
                           6783 ;	genIpush
                           6784 ; _saveRegsForCall: sendSetSize: 0 deInUse: 0 bcInUse: 0 deSending: 0
   1AD0 21 77 20           6785 	ld	hl,#__str_134
   1AD3 E5                 6786 	push	hl
                           6787 ;	genCall
   1AD4 CD 00 00           6788 	call	_printf
   1AD7 E8 02              6789 	lda	sp,2(sp)
                           6790 ;	IncludeCustom/MessageIntro.c 277
                           6791 ;	genIpush
                           6792 ; _saveRegsForCall: sendSetSize: 0 deInUse: 0 bcInUse: 0 deSending: 0
   1AD9 21 64 00           6793 	ld	hl,#0x0064
   1ADC E5                 6794 	push	hl
                           6795 ;	genCall
   1ADD CD 00 00           6796 	call	_delay
   1AE0 E8 02              6797 	lda	sp,2(sp)
                           6798 ;	IncludeCustom/MessageIntro.c 278
                           6799 ;	genIpush
                           6800 ; _saveRegsForCall: sendSetSize: 0 deInUse: 0 bcInUse: 0 deSending: 0
   1AE2 21 79 20           6801 	ld	hl,#__str_135
   1AE5 E5                 6802 	push	hl
                           6803 ;	genCall
   1AE6 CD 00 00           6804 	call	_printf
   1AE9 E8 02              6805 	lda	sp,2(sp)
                           6806 ;	IncludeCustom/MessageIntro.c 279
                           6807 ;	genIpush
                           6808 ; _saveRegsForCall: sendSetSize: 0 deInUse: 0 bcInUse: 0 deSending: 0
   1AEB 21 64 00           6809 	ld	hl,#0x0064
   1AEE E5                 6810 	push	hl
                           6811 ;	genCall
   1AEF CD 00 00           6812 	call	_delay
   1AF2 E8 02              6813 	lda	sp,2(sp)
                           6814 ;	IncludeCustom/MessageIntro.c 280
                           6815 ;	genIpush
                           6816 ; _saveRegsForCall: sendSetSize: 0 deInUse: 0 bcInUse: 0 deSending: 0
   1AF4 21 7B 20           6817 	ld	hl,#__str_136
   1AF7 E5                 6818 	push	hl
                           6819 ;	genCall
   1AF8 CD 00 00           6820 	call	_printf
   1AFB E8 02              6821 	lda	sp,2(sp)
                           6822 ;	IncludeCustom/MessageIntro.c 281
                           6823 ;	genIpush
                           6824 ; _saveRegsForCall: sendSetSize: 0 deInUse: 0 bcInUse: 0 deSending: 0
   1AFD 21 64 00           6825 	ld	hl,#0x0064
   1B00 E5                 6826 	push	hl
                           6827 ;	genCall
   1B01 CD 00 00           6828 	call	_delay
   1B04 E8 02              6829 	lda	sp,2(sp)
                           6830 ;	IncludeCustom/MessageIntro.c 282
                           6831 ;	genIpush
                           6832 ; _saveRegsForCall: sendSetSize: 0 deInUse: 0 bcInUse: 0 deSending: 0
   1B06 21 7D 20           6833 	ld	hl,#__str_137
   1B09 E5                 6834 	push	hl
                           6835 ;	genCall
   1B0A CD 00 00           6836 	call	_printf
   1B0D E8 02              6837 	lda	sp,2(sp)
                           6838 ;	IncludeCustom/MessageIntro.c 283
                           6839 ;	genIpush
                           6840 ; _saveRegsForCall: sendSetSize: 0 deInUse: 0 bcInUse: 0 deSending: 0
   1B0F 21 64 00           6841 	ld	hl,#0x0064
   1B12 E5                 6842 	push	hl
                           6843 ;	genCall
   1B13 CD 00 00           6844 	call	_delay
   1B16 E8 02              6845 	lda	sp,2(sp)
                           6846 ;	IncludeCustom/MessageIntro.c 284
                           6847 ;	genIpush
                           6848 ; _saveRegsForCall: sendSetSize: 0 deInUse: 0 bcInUse: 0 deSending: 0
   1B18 21 7F 20           6849 	ld	hl,#__str_138
   1B1B E5                 6850 	push	hl
                           6851 ;	genCall
   1B1C CD 00 00           6852 	call	_printf
   1B1F E8 02              6853 	lda	sp,2(sp)
                           6854 ;	IncludeCustom/MessageIntro.c 285
                           6855 ;	genIpush
                           6856 ; _saveRegsForCall: sendSetSize: 0 deInUse: 0 bcInUse: 0 deSending: 0
   1B21 21 64 00           6857 	ld	hl,#0x0064
   1B24 E5                 6858 	push	hl
                           6859 ;	genCall
   1B25 CD 00 00           6860 	call	_delay
   1B28 E8 02              6861 	lda	sp,2(sp)
                           6862 ;	IncludeCustom/MessageIntro.c 286
                           6863 ;	genIpush
                           6864 ; _saveRegsForCall: sendSetSize: 0 deInUse: 0 bcInUse: 0 deSending: 0
   1B2A 21 81 20           6865 	ld	hl,#__str_139
   1B2D E5                 6866 	push	hl
                           6867 ;	genCall
   1B2E CD 00 00           6868 	call	_printf
   1B31 E8 02              6869 	lda	sp,2(sp)
                           6870 ;	IncludeCustom/MessageIntro.c 287
                           6871 ;	genIpush
                           6872 ; _saveRegsForCall: sendSetSize: 0 deInUse: 0 bcInUse: 0 deSending: 0
   1B33 21 83 20           6873 	ld	hl,#__str_140
   1B36 E5                 6874 	push	hl
                           6875 ;	genCall
   1B37 CD 00 00           6876 	call	_printf
   1B3A E8 02              6877 	lda	sp,2(sp)
                           6878 ;	IncludeCustom/MessageIntro.c 288
                           6879 ;	genIpush
                           6880 ; _saveRegsForCall: sendSetSize: 0 deInUse: 0 bcInUse: 0 deSending: 0
   1B3C 21 64 00           6881 	ld	hl,#0x0064
   1B3F E5                 6882 	push	hl
                           6883 ;	genCall
   1B40 CD 00 00           6884 	call	_delay
   1B43 E8 02              6885 	lda	sp,2(sp)
                           6886 ;	IncludeCustom/MessageIntro.c 289
                           6887 ;	genIpush
                           6888 ; _saveRegsForCall: sendSetSize: 0 deInUse: 0 bcInUse: 0 deSending: 0
   1B45 21 87 20           6889 	ld	hl,#__str_141
   1B48 E5                 6890 	push	hl
                           6891 ;	genCall
   1B49 CD 00 00           6892 	call	_printf
   1B4C E8 02              6893 	lda	sp,2(sp)
                           6894 ;	IncludeCustom/MessageIntro.c 290
                           6895 ;	genIpush
                           6896 ; _saveRegsForCall: sendSetSize: 0 deInUse: 0 bcInUse: 0 deSending: 0
   1B4E 21 64 00           6897 	ld	hl,#0x0064
   1B51 E5                 6898 	push	hl
                           6899 ;	genCall
   1B52 CD 00 00           6900 	call	_delay
   1B55 E8 02              6901 	lda	sp,2(sp)
                           6902 ;	IncludeCustom/MessageIntro.c 291
                           6903 ;	genIpush
                           6904 ; _saveRegsForCall: sendSetSize: 0 deInUse: 0 bcInUse: 0 deSending: 0
   1B57 21 89 20           6905 	ld	hl,#__str_142
   1B5A E5                 6906 	push	hl
                           6907 ;	genCall
   1B5B CD 00 00           6908 	call	_printf
   1B5E E8 02              6909 	lda	sp,2(sp)
                           6910 ;	IncludeCustom/MessageIntro.c 292
                           6911 ;	genIpush
                           6912 ; _saveRegsForCall: sendSetSize: 0 deInUse: 0 bcInUse: 0 deSending: 0
   1B60 21 64 00           6913 	ld	hl,#0x0064
   1B63 E5                 6914 	push	hl
                           6915 ;	genCall
   1B64 CD 00 00           6916 	call	_delay
   1B67 E8 02              6917 	lda	sp,2(sp)
                           6918 ;	IncludeCustom/MessageIntro.c 293
                           6919 ;	genIpush
                           6920 ; _saveRegsForCall: sendSetSize: 0 deInUse: 0 bcInUse: 0 deSending: 0
   1B69 21 8B 20           6921 	ld	hl,#__str_143
   1B6C E5                 6922 	push	hl
                           6923 ;	genCall
   1B6D CD 00 00           6924 	call	_printf
   1B70 E8 02              6925 	lda	sp,2(sp)
                           6926 ;	IncludeCustom/MessageIntro.c 294
                           6927 ;	genIpush
                           6928 ; _saveRegsForCall: sendSetSize: 0 deInUse: 0 bcInUse: 0 deSending: 0
   1B72 21 64 00           6929 	ld	hl,#0x0064
   1B75 E5                 6930 	push	hl
                           6931 ;	genCall
   1B76 CD 00 00           6932 	call	_delay
   1B79 E8 02              6933 	lda	sp,2(sp)
                           6934 ;	IncludeCustom/MessageIntro.c 295
                           6935 ;	genIpush
                           6936 ; _saveRegsForCall: sendSetSize: 0 deInUse: 0 bcInUse: 0 deSending: 0
   1B7B 21 8D 20           6937 	ld	hl,#__str_144
   1B7E E5                 6938 	push	hl
                           6939 ;	genCall
   1B7F CD 00 00           6940 	call	_printf
   1B82 E8 02              6941 	lda	sp,2(sp)
                           6942 ;	IncludeCustom/MessageIntro.c 296
                           6943 ;	genIpush
                           6944 ; _saveRegsForCall: sendSetSize: 0 deInUse: 0 bcInUse: 0 deSending: 0
   1B84 21 64 00           6945 	ld	hl,#0x0064
   1B87 E5                 6946 	push	hl
                           6947 ;	genCall
   1B88 CD 00 00           6948 	call	_delay
   1B8B E8 02              6949 	lda	sp,2(sp)
                           6950 ;	IncludeCustom/MessageIntro.c 297
                           6951 ;	genIpush
                           6952 ; _saveRegsForCall: sendSetSize: 0 deInUse: 0 bcInUse: 0 deSending: 0
   1B8D 21 8F 20           6953 	ld	hl,#__str_145
   1B90 E5                 6954 	push	hl
                           6955 ;	genCall
   1B91 CD 00 00           6956 	call	_printf
   1B94 E8 02              6957 	lda	sp,2(sp)
                           6958 ;	IncludeCustom/MessageIntro.c 298
                           6959 ;	genIpush
                           6960 ; _saveRegsForCall: sendSetSize: 0 deInUse: 0 bcInUse: 0 deSending: 0
   1B96 21 64 00           6961 	ld	hl,#0x0064
   1B99 E5                 6962 	push	hl
                           6963 ;	genCall
   1B9A CD 00 00           6964 	call	_delay
   1B9D E8 02              6965 	lda	sp,2(sp)
                           6966 ;	IncludeCustom/MessageIntro.c 299
                           6967 ;	genIpush
                           6968 ; _saveRegsForCall: sendSetSize: 0 deInUse: 0 bcInUse: 0 deSending: 0
   1B9F 21 91 20           6969 	ld	hl,#__str_146
   1BA2 E5                 6970 	push	hl
                           6971 ;	genCall
   1BA3 CD 00 00           6972 	call	_printf
   1BA6 E8 02              6973 	lda	sp,2(sp)
                           6974 ;	IncludeCustom/MessageIntro.c 300
                           6975 ;	genIpush
                           6976 ; _saveRegsForCall: sendSetSize: 0 deInUse: 0 bcInUse: 0 deSending: 0
   1BA8 21 64 00           6977 	ld	hl,#0x0064
   1BAB E5                 6978 	push	hl
                           6979 ;	genCall
   1BAC CD 00 00           6980 	call	_delay
   1BAF E8 02              6981 	lda	sp,2(sp)
                           6982 ;	IncludeCustom/MessageIntro.c 301
                           6983 ;	genIpush
                           6984 ; _saveRegsForCall: sendSetSize: 0 deInUse: 0 bcInUse: 0 deSending: 0
   1BB1 21 93 20           6985 	ld	hl,#__str_147
   1BB4 E5                 6986 	push	hl
                           6987 ;	genCall
   1BB5 CD 00 00           6988 	call	_printf
   1BB8 E8 02              6989 	lda	sp,2(sp)
                           6990 ;	IncludeCustom/MessageIntro.c 302
                           6991 ;	genIpush
                           6992 ; _saveRegsForCall: sendSetSize: 0 deInUse: 0 bcInUse: 0 deSending: 0
   1BBA 21 64 00           6993 	ld	hl,#0x0064
   1BBD E5                 6994 	push	hl
                           6995 ;	genCall
   1BBE CD 00 00           6996 	call	_delay
   1BC1 E8 02              6997 	lda	sp,2(sp)
                           6998 ;	IncludeCustom/MessageIntro.c 303
                           6999 ;	genIpush
                           7000 ; _saveRegsForCall: sendSetSize: 0 deInUse: 0 bcInUse: 0 deSending: 0
   1BC3 21 95 20           7001 	ld	hl,#__str_148
   1BC6 E5                 7002 	push	hl
                           7003 ;	genCall
   1BC7 CD 00 00           7004 	call	_printf
   1BCA E8 02              7005 	lda	sp,2(sp)
                           7006 ;	IncludeCustom/MessageIntro.c 304
                           7007 ;	genIpush
                           7008 ; _saveRegsForCall: sendSetSize: 0 deInUse: 0 bcInUse: 0 deSending: 0
   1BCC 21 F4 01           7009 	ld	hl,#0x01F4
   1BCF E5                 7010 	push	hl
                           7011 ;	genCall
   1BD0 CD 00 00           7012 	call	_delay
   1BD3 E8 02              7013 	lda	sp,2(sp)
                           7014 ;	IncludeCustom/MessageIntro.c 305
                           7015 ;	genIpush
                           7016 ; _saveRegsForCall: sendSetSize: 0 deInUse: 0 bcInUse: 0 deSending: 0
   1BD5 21 97 20           7017 	ld	hl,#__str_149
   1BD8 E5                 7018 	push	hl
                           7019 ;	genCall
   1BD9 CD 00 00           7020 	call	_printf
   1BDC E8 02              7021 	lda	sp,2(sp)
                           7022 ;	IncludeCustom/MessageIntro.c 306
                           7023 ;	genIpush
                           7024 ; _saveRegsForCall: sendSetSize: 0 deInUse: 0 bcInUse: 0 deSending: 0
   1BDE 21 64 00           7025 	ld	hl,#0x0064
   1BE1 E5                 7026 	push	hl
                           7027 ;	genCall
   1BE2 CD 00 00           7028 	call	_delay
   1BE5 E8 02              7029 	lda	sp,2(sp)
                           7030 ;	IncludeCustom/MessageIntro.c 307
                           7031 ;	genIpush
                           7032 ; _saveRegsForCall: sendSetSize: 0 deInUse: 0 bcInUse: 0 deSending: 0
   1BE7 21 9B 20           7033 	ld	hl,#__str_150
   1BEA E5                 7034 	push	hl
                           7035 ;	genCall
   1BEB CD 00 00           7036 	call	_printf
   1BEE E8 02              7037 	lda	sp,2(sp)
                           7038 ;	IncludeCustom/MessageIntro.c 308
                           7039 ;	genIpush
                           7040 ; _saveRegsForCall: sendSetSize: 0 deInUse: 0 bcInUse: 0 deSending: 0
   1BF0 21 64 00           7041 	ld	hl,#0x0064
   1BF3 E5                 7042 	push	hl
                           7043 ;	genCall
   1BF4 CD 00 00           7044 	call	_delay
   1BF7 E8 02              7045 	lda	sp,2(sp)
                           7046 ;	IncludeCustom/MessageIntro.c 309
                           7047 ;	genIpush
                           7048 ; _saveRegsForCall: sendSetSize: 0 deInUse: 0 bcInUse: 0 deSending: 0
   1BF9 21 9D 20           7049 	ld	hl,#__str_151
   1BFC E5                 7050 	push	hl
                           7051 ;	genCall
   1BFD CD 00 00           7052 	call	_printf
   1C00 E8 02              7053 	lda	sp,2(sp)
                           7054 ;	IncludeCustom/MessageIntro.c 310
                           7055 ;	genIpush
                           7056 ; _saveRegsForCall: sendSetSize: 0 deInUse: 0 bcInUse: 0 deSending: 0
   1C02 21 64 00           7057 	ld	hl,#0x0064
   1C05 E5                 7058 	push	hl
                           7059 ;	genCall
   1C06 CD 00 00           7060 	call	_delay
   1C09 E8 02              7061 	lda	sp,2(sp)
                           7062 ;	IncludeCustom/MessageIntro.c 311
                           7063 ;	genIpush
                           7064 ; _saveRegsForCall: sendSetSize: 0 deInUse: 0 bcInUse: 0 deSending: 0
   1C0B 21 9F 20           7065 	ld	hl,#__str_152
   1C0E E5                 7066 	push	hl
                           7067 ;	genCall
   1C0F CD 00 00           7068 	call	_printf
   1C12 E8 02              7069 	lda	sp,2(sp)
                           7070 ;	IncludeCustom/MessageIntro.c 312
                           7071 ;	genIpush
                           7072 ; _saveRegsForCall: sendSetSize: 0 deInUse: 0 bcInUse: 0 deSending: 0
   1C14 21 64 00           7073 	ld	hl,#0x0064
   1C17 E5                 7074 	push	hl
                           7075 ;	genCall
   1C18 CD 00 00           7076 	call	_delay
   1C1B E8 02              7077 	lda	sp,2(sp)
                           7078 ;	IncludeCustom/MessageIntro.c 313
                           7079 ;	genIpush
                           7080 ; _saveRegsForCall: sendSetSize: 0 deInUse: 0 bcInUse: 0 deSending: 0
   1C1D 21 A1 20           7081 	ld	hl,#__str_153
   1C20 E5                 7082 	push	hl
                           7083 ;	genCall
   1C21 CD 00 00           7084 	call	_printf
   1C24 E8 02              7085 	lda	sp,2(sp)
                           7086 ;	IncludeCustom/MessageIntro.c 314
                           7087 ;	genIpush
                           7088 ; _saveRegsForCall: sendSetSize: 0 deInUse: 0 bcInUse: 0 deSending: 0
   1C26 21 64 00           7089 	ld	hl,#0x0064
   1C29 E5                 7090 	push	hl
                           7091 ;	genCall
   1C2A CD 00 00           7092 	call	_delay
   1C2D E8 02              7093 	lda	sp,2(sp)
                           7094 ;	IncludeCustom/MessageIntro.c 315
                           7095 ;	genIpush
                           7096 ; _saveRegsForCall: sendSetSize: 0 deInUse: 0 bcInUse: 0 deSending: 0
   1C2F 21 A3 20           7097 	ld	hl,#__str_154
   1C32 E5                 7098 	push	hl
                           7099 ;	genCall
   1C33 CD 00 00           7100 	call	_printf
   1C36 E8 02              7101 	lda	sp,2(sp)
                           7102 ;	IncludeCustom/MessageIntro.c 316
                           7103 ;	genIpush
                           7104 ; _saveRegsForCall: sendSetSize: 0 deInUse: 0 bcInUse: 0 deSending: 0
   1C38 21 64 00           7105 	ld	hl,#0x0064
   1C3B E5                 7106 	push	hl
                           7107 ;	genCall
   1C3C CD 00 00           7108 	call	_delay
   1C3F E8 02              7109 	lda	sp,2(sp)
                           7110 ;	IncludeCustom/MessageIntro.c 317
                           7111 ;	genIpush
                           7112 ; _saveRegsForCall: sendSetSize: 0 deInUse: 0 bcInUse: 0 deSending: 0
   1C41 21 A5 20           7113 	ld	hl,#__str_155
   1C44 E5                 7114 	push	hl
                           7115 ;	genCall
   1C45 CD 00 00           7116 	call	_printf
   1C48 E8 02              7117 	lda	sp,2(sp)
                           7118 ;	IncludeCustom/MessageIntro.c 318
                           7119 ;	genIpush
                           7120 ; _saveRegsForCall: sendSetSize: 0 deInUse: 0 bcInUse: 0 deSending: 0
   1C4A 21 64 00           7121 	ld	hl,#0x0064
   1C4D E5                 7122 	push	hl
                           7123 ;	genCall
   1C4E CD 00 00           7124 	call	_delay
   1C51 E8 02              7125 	lda	sp,2(sp)
                           7126 ;	IncludeCustom/MessageIntro.c 319
                           7127 ;	genIpush
                           7128 ; _saveRegsForCall: sendSetSize: 0 deInUse: 0 bcInUse: 0 deSending: 0
   1C53 21 A7 20           7129 	ld	hl,#__str_156
   1C56 E5                 7130 	push	hl
                           7131 ;	genCall
   1C57 CD 00 00           7132 	call	_printf
   1C5A E8 02              7133 	lda	sp,2(sp)
                           7134 ;	IncludeCustom/MessageIntro.c 320
                           7135 ;	genIpush
                           7136 ; _saveRegsForCall: sendSetSize: 0 deInUse: 0 bcInUse: 0 deSending: 0
   1C5C 21 64 00           7137 	ld	hl,#0x0064
   1C5F E5                 7138 	push	hl
                           7139 ;	genCall
   1C60 CD 00 00           7140 	call	_delay
   1C63 E8 02              7141 	lda	sp,2(sp)
                           7142 ;	IncludeCustom/MessageIntro.c 321
                           7143 ;	genIpush
                           7144 ; _saveRegsForCall: sendSetSize: 0 deInUse: 0 bcInUse: 0 deSending: 0
   1C65 21 A9 20           7145 	ld	hl,#__str_157
   1C68 E5                 7146 	push	hl
                           7147 ;	genCall
   1C69 CD 00 00           7148 	call	_printf
   1C6C E8 02              7149 	lda	sp,2(sp)
                           7150 ;	IncludeCustom/MessageIntro.c 322
                           7151 ;	genIpush
                           7152 ; _saveRegsForCall: sendSetSize: 0 deInUse: 0 bcInUse: 0 deSending: 0
   1C6E 21 64 00           7153 	ld	hl,#0x0064
   1C71 E5                 7154 	push	hl
                           7155 ;	genCall
   1C72 CD 00 00           7156 	call	_delay
   1C75 E8 02              7157 	lda	sp,2(sp)
                           7158 ;	IncludeCustom/MessageIntro.c 323
                           7159 ;	genIpush
                           7160 ; _saveRegsForCall: sendSetSize: 0 deInUse: 0 bcInUse: 0 deSending: 0
   1C77 21 AB 20           7161 	ld	hl,#__str_158
   1C7A E5                 7162 	push	hl
                           7163 ;	genCall
   1C7B CD 00 00           7164 	call	_printf
   1C7E E8 02              7165 	lda	sp,2(sp)
                           7166 ;	IncludeCustom/MessageIntro.c 324
                           7167 ;	genIpush
                           7168 ; _saveRegsForCall: sendSetSize: 0 deInUse: 0 bcInUse: 0 deSending: 0
   1C80 21 64 00           7169 	ld	hl,#0x0064
   1C83 E5                 7170 	push	hl
                           7171 ;	genCall
   1C84 CD 00 00           7172 	call	_delay
   1C87 E8 02              7173 	lda	sp,2(sp)
                           7174 ;	IncludeCustom/MessageIntro.c 325
                           7175 ;	genIpush
                           7176 ; _saveRegsForCall: sendSetSize: 0 deInUse: 0 bcInUse: 0 deSending: 0
   1C89 21 AD 20           7177 	ld	hl,#__str_159
   1C8C E5                 7178 	push	hl
                           7179 ;	genCall
   1C8D CD 00 00           7180 	call	_printf
   1C90 E8 02              7181 	lda	sp,2(sp)
                           7182 ;	IncludeCustom/MessageIntro.c 326
                           7183 ;	genIpush
                           7184 ; _saveRegsForCall: sendSetSize: 0 deInUse: 0 bcInUse: 0 deSending: 0
   1C92 21 AF 20           7185 	ld	hl,#__str_160
   1C95 E5                 7186 	push	hl
                           7187 ;	genCall
   1C96 CD 00 00           7188 	call	_printf
   1C99 E8 02              7189 	lda	sp,2(sp)
                           7190 ;	IncludeCustom/MessageIntro.c 327
                           7191 ;	genIpush
                           7192 ; _saveRegsForCall: sendSetSize: 0 deInUse: 0 bcInUse: 0 deSending: 0
   1C9B 21 64 00           7193 	ld	hl,#0x0064
   1C9E E5                 7194 	push	hl
                           7195 ;	genCall
   1C9F CD 00 00           7196 	call	_delay
   1CA2 E8 02              7197 	lda	sp,2(sp)
                           7198 ;	IncludeCustom/MessageIntro.c 328
                           7199 ;	genIpush
                           7200 ; _saveRegsForCall: sendSetSize: 0 deInUse: 0 bcInUse: 0 deSending: 0
   1CA4 21 B3 20           7201 	ld	hl,#__str_161
   1CA7 E5                 7202 	push	hl
                           7203 ;	genCall
   1CA8 CD 00 00           7204 	call	_printf
   1CAB E8 02              7205 	lda	sp,2(sp)
                           7206 ;	IncludeCustom/MessageIntro.c 329
                           7207 ;	genIpush
                           7208 ; _saveRegsForCall: sendSetSize: 0 deInUse: 0 bcInUse: 0 deSending: 0
   1CAD 21 64 00           7209 	ld	hl,#0x0064
   1CB0 E5                 7210 	push	hl
                           7211 ;	genCall
   1CB1 CD 00 00           7212 	call	_delay
   1CB4 E8 02              7213 	lda	sp,2(sp)
                           7214 ;	IncludeCustom/MessageIntro.c 330
                           7215 ;	genIpush
                           7216 ; _saveRegsForCall: sendSetSize: 0 deInUse: 0 bcInUse: 0 deSending: 0
   1CB6 21 B5 20           7217 	ld	hl,#__str_162
   1CB9 E5                 7218 	push	hl
                           7219 ;	genCall
   1CBA CD 00 00           7220 	call	_printf
   1CBD E8 02              7221 	lda	sp,2(sp)
                           7222 ;	IncludeCustom/MessageIntro.c 331
                           7223 ;	genIpush
                           7224 ; _saveRegsForCall: sendSetSize: 0 deInUse: 0 bcInUse: 0 deSending: 0
   1CBF 21 64 00           7225 	ld	hl,#0x0064
   1CC2 E5                 7226 	push	hl
                           7227 ;	genCall
   1CC3 CD 00 00           7228 	call	_delay
   1CC6 E8 02              7229 	lda	sp,2(sp)
                           7230 ;	IncludeCustom/MessageIntro.c 332
                           7231 ;	genIpush
                           7232 ; _saveRegsForCall: sendSetSize: 0 deInUse: 0 bcInUse: 0 deSending: 0
   1CC8 21 B7 20           7233 	ld	hl,#__str_163
   1CCB E5                 7234 	push	hl
                           7235 ;	genCall
   1CCC CD 00 00           7236 	call	_printf
   1CCF E8 02              7237 	lda	sp,2(sp)
                           7238 ;	IncludeCustom/MessageIntro.c 333
                           7239 ;	genIpush
                           7240 ; _saveRegsForCall: sendSetSize: 0 deInUse: 0 bcInUse: 0 deSending: 0
   1CD1 21 64 00           7241 	ld	hl,#0x0064
   1CD4 E5                 7242 	push	hl
                           7243 ;	genCall
   1CD5 CD 00 00           7244 	call	_delay
   1CD8 E8 02              7245 	lda	sp,2(sp)
                           7246 ;	IncludeCustom/MessageIntro.c 334
                           7247 ;	genIpush
                           7248 ; _saveRegsForCall: sendSetSize: 0 deInUse: 0 bcInUse: 0 deSending: 0
   1CDA 21 B9 20           7249 	ld	hl,#__str_164
   1CDD E5                 7250 	push	hl
                           7251 ;	genCall
   1CDE CD 00 00           7252 	call	_printf
   1CE1 E8 02              7253 	lda	sp,2(sp)
                           7254 ;	IncludeCustom/MessageIntro.c 335
                           7255 ;	genIpush
                           7256 ; _saveRegsForCall: sendSetSize: 0 deInUse: 0 bcInUse: 0 deSending: 0
   1CE3 21 64 00           7257 	ld	hl,#0x0064
   1CE6 E5                 7258 	push	hl
                           7259 ;	genCall
   1CE7 CD 00 00           7260 	call	_delay
   1CEA E8 02              7261 	lda	sp,2(sp)
                           7262 ;	IncludeCustom/MessageIntro.c 336
                           7263 ;	genIpush
                           7264 ; _saveRegsForCall: sendSetSize: 0 deInUse: 0 bcInUse: 0 deSending: 0
   1CEC 21 BB 20           7265 	ld	hl,#__str_165
   1CEF E5                 7266 	push	hl
                           7267 ;	genCall
   1CF0 CD 00 00           7268 	call	_printf
   1CF3 E8 02              7269 	lda	sp,2(sp)
                           7270 ;	IncludeCustom/MessageIntro.c 337
                           7271 ;	genIpush
                           7272 ; _saveRegsForCall: sendSetSize: 0 deInUse: 0 bcInUse: 0 deSending: 0
   1CF5 21 64 00           7273 	ld	hl,#0x0064
   1CF8 E5                 7274 	push	hl
                           7275 ;	genCall
   1CF9 CD 00 00           7276 	call	_delay
   1CFC E8 02              7277 	lda	sp,2(sp)
                           7278 ;	IncludeCustom/MessageIntro.c 338
                           7279 ;	genIpush
                           7280 ; _saveRegsForCall: sendSetSize: 0 deInUse: 0 bcInUse: 0 deSending: 0
   1CFE 21 BD 20           7281 	ld	hl,#__str_166
   1D01 E5                 7282 	push	hl
                           7283 ;	genCall
   1D02 CD 00 00           7284 	call	_printf
   1D05 E8 02              7285 	lda	sp,2(sp)
                           7286 ;	IncludeCustom/MessageIntro.c 339
                           7287 ;	genIpush
                           7288 ; _saveRegsForCall: sendSetSize: 0 deInUse: 0 bcInUse: 0 deSending: 0
   1D07 21 64 00           7289 	ld	hl,#0x0064
   1D0A E5                 7290 	push	hl
                           7291 ;	genCall
   1D0B CD 00 00           7292 	call	_delay
   1D0E E8 02              7293 	lda	sp,2(sp)
                           7294 ;	IncludeCustom/MessageIntro.c 340
                           7295 ;	genIpush
                           7296 ; _saveRegsForCall: sendSetSize: 0 deInUse: 0 bcInUse: 0 deSending: 0
   1D10 21 BF 20           7297 	ld	hl,#__str_167
   1D13 E5                 7298 	push	hl
                           7299 ;	genCall
   1D14 CD 00 00           7300 	call	_printf
   1D17 E8 02              7301 	lda	sp,2(sp)
                           7302 ;	IncludeCustom/MessageIntro.c 341
                           7303 ;	genIpush
                           7304 ; _saveRegsForCall: sendSetSize: 0 deInUse: 0 bcInUse: 0 deSending: 0
   1D19 21 64 00           7305 	ld	hl,#0x0064
   1D1C E5                 7306 	push	hl
                           7307 ;	genCall
   1D1D CD 00 00           7308 	call	_delay
   1D20 E8 02              7309 	lda	sp,2(sp)
                           7310 ;	IncludeCustom/MessageIntro.c 342
                           7311 ;	genIpush
                           7312 ; _saveRegsForCall: sendSetSize: 0 deInUse: 0 bcInUse: 0 deSending: 0
   1D22 21 C1 20           7313 	ld	hl,#__str_168
   1D25 E5                 7314 	push	hl
                           7315 ;	genCall
   1D26 CD 00 00           7316 	call	_printf
   1D29 E8 02              7317 	lda	sp,2(sp)
                           7318 ;	IncludeCustom/MessageIntro.c 343
                           7319 ;	genIpush
                           7320 ; _saveRegsForCall: sendSetSize: 0 deInUse: 0 bcInUse: 0 deSending: 0
   1D2B 21 64 00           7321 	ld	hl,#0x0064
   1D2E E5                 7322 	push	hl
                           7323 ;	genCall
   1D2F CD 00 00           7324 	call	_delay
   1D32 E8 02              7325 	lda	sp,2(sp)
                           7326 ;	IncludeCustom/MessageIntro.c 344
                           7327 ;	genIpush
                           7328 ; _saveRegsForCall: sendSetSize: 0 deInUse: 0 bcInUse: 0 deSending: 0
   1D34 21 C3 20           7329 	ld	hl,#__str_169
   1D37 E5                 7330 	push	hl
                           7331 ;	genCall
   1D38 CD 00 00           7332 	call	_printf
   1D3B E8 02              7333 	lda	sp,2(sp)
                           7334 ;	IncludeCustom/MessageIntro.c 345
                           7335 ;	genIpush
                           7336 ; _saveRegsForCall: sendSetSize: 0 deInUse: 0 bcInUse: 0 deSending: 0
   1D3D 21 64 00           7337 	ld	hl,#0x0064
   1D40 E5                 7338 	push	hl
                           7339 ;	genCall
   1D41 CD 00 00           7340 	call	_delay
   1D44 E8 02              7341 	lda	sp,2(sp)
                           7342 ;	IncludeCustom/MessageIntro.c 346
                           7343 ;	genIpush
                           7344 ; _saveRegsForCall: sendSetSize: 0 deInUse: 0 bcInUse: 0 deSending: 0
   1D46 21 C5 20           7345 	ld	hl,#__str_170
   1D49 E5                 7346 	push	hl
                           7347 ;	genCall
   1D4A CD 00 00           7348 	call	_printf
   1D4D E8 02              7349 	lda	sp,2(sp)
                           7350 ;	IncludeCustom/MessageIntro.c 347
                           7351 ;	genIpush
                           7352 ; _saveRegsForCall: sendSetSize: 0 deInUse: 0 bcInUse: 0 deSending: 0
   1D4F 21 64 00           7353 	ld	hl,#0x0064
   1D52 E5                 7354 	push	hl
                           7355 ;	genCall
   1D53 CD 00 00           7356 	call	_delay
   1D56 E8 02              7357 	lda	sp,2(sp)
                           7358 ;	IncludeCustom/MessageIntro.c 348
                           7359 ;	genIpush
                           7360 ; _saveRegsForCall: sendSetSize: 0 deInUse: 0 bcInUse: 0 deSending: 0
   1D58 21 C7 20           7361 	ld	hl,#__str_171
   1D5B E5                 7362 	push	hl
                           7363 ;	genCall
   1D5C CD 00 00           7364 	call	_printf
   1D5F E8 02              7365 	lda	sp,2(sp)
                           7366 ;	IncludeCustom/MessageIntro.c 349
                           7367 ;	genIpush
                           7368 ; _saveRegsForCall: sendSetSize: 0 deInUse: 0 bcInUse: 0 deSending: 0
   1D61 21 64 00           7369 	ld	hl,#0x0064
   1D64 E5                 7370 	push	hl
                           7371 ;	genCall
   1D65 CD 00 00           7372 	call	_delay
   1D68 E8 02              7373 	lda	sp,2(sp)
                           7374 ;	IncludeCustom/MessageIntro.c 350
                           7375 ;	genIpush
                           7376 ; _saveRegsForCall: sendSetSize: 0 deInUse: 0 bcInUse: 0 deSending: 0
   1D6A 21 C9 20           7377 	ld	hl,#__str_172
   1D6D E5                 7378 	push	hl
                           7379 ;	genCall
   1D6E CD 00 00           7380 	call	_printf
   1D71 E8 02              7381 	lda	sp,2(sp)
                           7382 ;	IncludeCustom/MessageIntro.c 351
                           7383 ;	genIpush
                           7384 ; _saveRegsForCall: sendSetSize: 0 deInUse: 0 bcInUse: 0 deSending: 0
   1D73 21 64 00           7385 	ld	hl,#0x0064
   1D76 E5                 7386 	push	hl
                           7387 ;	genCall
   1D77 CD 00 00           7388 	call	_delay
   1D7A E8 02              7389 	lda	sp,2(sp)
                           7390 ;	IncludeCustom/MessageIntro.c 352
                           7391 ;	genIpush
                           7392 ; _saveRegsForCall: sendSetSize: 0 deInUse: 0 bcInUse: 0 deSending: 0
   1D7C 21 CB 20           7393 	ld	hl,#__str_173
   1D7F E5                 7394 	push	hl
                           7395 ;	genCall
   1D80 CD 00 00           7396 	call	_printf
   1D83 E8 02              7397 	lda	sp,2(sp)
                           7398 ;	IncludeCustom/MessageIntro.c 353
                           7399 ;	genIpush
                           7400 ; _saveRegsForCall: sendSetSize: 0 deInUse: 0 bcInUse: 0 deSending: 0
   1D85 21 F4 01           7401 	ld	hl,#0x01F4
   1D88 E5                 7402 	push	hl
                           7403 ;	genCall
   1D89 CD 00 00           7404 	call	_delay
   1D8C E8 02              7405 	lda	sp,2(sp)
                           7406 ;	IncludeCustom/MessageIntro.c 354
                           7407 ;	genIpush
                           7408 ; _saveRegsForCall: sendSetSize: 0 deInUse: 0 bcInUse: 0 deSending: 0
   1D8E 21 CD 20           7409 	ld	hl,#__str_174
   1D91 E5                 7410 	push	hl
                           7411 ;	genCall
   1D92 CD 00 00           7412 	call	_printf
   1D95 E8 02              7413 	lda	sp,2(sp)
                           7414 ;	IncludeCustom/MessageIntro.c 355
                           7415 ;	genIpush
                           7416 ; _saveRegsForCall: sendSetSize: 0 deInUse: 0 bcInUse: 0 deSending: 0
   1D97 21 64 00           7417 	ld	hl,#0x0064
   1D9A E5                 7418 	push	hl
                           7419 ;	genCall
   1D9B CD 00 00           7420 	call	_delay
   1D9E E8 02              7421 	lda	sp,2(sp)
                           7422 ;	IncludeCustom/MessageIntro.c 356
                           7423 ;	genIpush
                           7424 ; _saveRegsForCall: sendSetSize: 0 deInUse: 0 bcInUse: 0 deSending: 0
   1DA0 21 CF 20           7425 	ld	hl,#__str_175
   1DA3 E5                 7426 	push	hl
                           7427 ;	genCall
   1DA4 CD 00 00           7428 	call	_printf
   1DA7 E8 02              7429 	lda	sp,2(sp)
                           7430 ;	IncludeCustom/MessageIntro.c 357
                           7431 ;	genIpush
                           7432 ; _saveRegsForCall: sendSetSize: 0 deInUse: 0 bcInUse: 0 deSending: 0
   1DA9 21 64 00           7433 	ld	hl,#0x0064
   1DAC E5                 7434 	push	hl
                           7435 ;	genCall
   1DAD CD 00 00           7436 	call	_delay
   1DB0 E8 02              7437 	lda	sp,2(sp)
                           7438 ;	IncludeCustom/MessageIntro.c 358
                           7439 ;	genIpush
                           7440 ; _saveRegsForCall: sendSetSize: 0 deInUse: 0 bcInUse: 0 deSending: 0
   1DB2 21 D3 20           7441 	ld	hl,#__str_176
   1DB5 E5                 7442 	push	hl
                           7443 ;	genCall
   1DB6 CD 00 00           7444 	call	_printf
   1DB9 E8 02              7445 	lda	sp,2(sp)
                           7446 ;	IncludeCustom/MessageIntro.c 359
                           7447 ;	genIpush
                           7448 ; _saveRegsForCall: sendSetSize: 0 deInUse: 0 bcInUse: 0 deSending: 0
   1DBB 21 64 00           7449 	ld	hl,#0x0064
   1DBE E5                 7450 	push	hl
                           7451 ;	genCall
   1DBF CD 00 00           7452 	call	_delay
   1DC2 E8 02              7453 	lda	sp,2(sp)
                           7454 ;	IncludeCustom/MessageIntro.c 360
                           7455 ;	genIpush
                           7456 ; _saveRegsForCall: sendSetSize: 0 deInUse: 0 bcInUse: 0 deSending: 0
   1DC4 21 D5 20           7457 	ld	hl,#__str_177
   1DC7 E5                 7458 	push	hl
                           7459 ;	genCall
   1DC8 CD 00 00           7460 	call	_printf
   1DCB E8 02              7461 	lda	sp,2(sp)
                           7462 ;	IncludeCustom/MessageIntro.c 361
                           7463 ;	genIpush
                           7464 ; _saveRegsForCall: sendSetSize: 0 deInUse: 0 bcInUse: 0 deSending: 0
   1DCD 21 64 00           7465 	ld	hl,#0x0064
   1DD0 E5                 7466 	push	hl
                           7467 ;	genCall
   1DD1 CD 00 00           7468 	call	_delay
   1DD4 E8 02              7469 	lda	sp,2(sp)
                           7470 ;	IncludeCustom/MessageIntro.c 362
                           7471 ;	genIpush
                           7472 ; _saveRegsForCall: sendSetSize: 0 deInUse: 0 bcInUse: 0 deSending: 0
   1DD6 21 D7 20           7473 	ld	hl,#__str_178
   1DD9 E5                 7474 	push	hl
                           7475 ;	genCall
   1DDA CD 00 00           7476 	call	_printf
   1DDD E8 02              7477 	lda	sp,2(sp)
                           7478 ;	IncludeCustom/MessageIntro.c 363
                           7479 ;	genIpush
                           7480 ; _saveRegsForCall: sendSetSize: 0 deInUse: 0 bcInUse: 0 deSending: 0
   1DDF 21 64 00           7481 	ld	hl,#0x0064
   1DE2 E5                 7482 	push	hl
                           7483 ;	genCall
   1DE3 CD 00 00           7484 	call	_delay
   1DE6 E8 02              7485 	lda	sp,2(sp)
                           7486 ;	IncludeCustom/MessageIntro.c 364
                           7487 ;	genIpush
                           7488 ; _saveRegsForCall: sendSetSize: 0 deInUse: 0 bcInUse: 0 deSending: 0
   1DE8 21 D9 20           7489 	ld	hl,#__str_179
   1DEB E5                 7490 	push	hl
                           7491 ;	genCall
   1DEC CD 00 00           7492 	call	_printf
   1DEF E8 02              7493 	lda	sp,2(sp)
                           7494 ;	IncludeCustom/MessageIntro.c 365
                           7495 ;	genIpush
                           7496 ; _saveRegsForCall: sendSetSize: 0 deInUse: 0 bcInUse: 0 deSending: 0
   1DF1 21 64 00           7497 	ld	hl,#0x0064
   1DF4 E5                 7498 	push	hl
                           7499 ;	genCall
   1DF5 CD 00 00           7500 	call	_delay
   1DF8 E8 02              7501 	lda	sp,2(sp)
                           7502 ;	IncludeCustom/MessageIntro.c 366
                           7503 ;	genIpush
                           7504 ; _saveRegsForCall: sendSetSize: 0 deInUse: 0 bcInUse: 0 deSending: 0
   1DFA 21 DB 20           7505 	ld	hl,#__str_180
   1DFD E5                 7506 	push	hl
                           7507 ;	genCall
   1DFE CD 00 00           7508 	call	_printf
   1E01 E8 02              7509 	lda	sp,2(sp)
                           7510 ;	IncludeCustom/MessageIntro.c 367
                           7511 ;	genIpush
                           7512 ; _saveRegsForCall: sendSetSize: 0 deInUse: 0 bcInUse: 0 deSending: 0
   1E03 21 64 00           7513 	ld	hl,#0x0064
   1E06 E5                 7514 	push	hl
                           7515 ;	genCall
   1E07 CD 00 00           7516 	call	_delay
   1E0A E8 02              7517 	lda	sp,2(sp)
                           7518 ;	IncludeCustom/MessageIntro.c 368
                           7519 ;	genIpush
                           7520 ; _saveRegsForCall: sendSetSize: 0 deInUse: 0 bcInUse: 0 deSending: 0
   1E0C 21 DD 20           7521 	ld	hl,#__str_181
   1E0F E5                 7522 	push	hl
                           7523 ;	genCall
   1E10 CD 00 00           7524 	call	_printf
   1E13 E8 02              7525 	lda	sp,2(sp)
                           7526 ;	IncludeCustom/MessageIntro.c 369
                           7527 ;	genIpush
                           7528 ; _saveRegsForCall: sendSetSize: 0 deInUse: 0 bcInUse: 0 deSending: 0
   1E15 21 64 00           7529 	ld	hl,#0x0064
   1E18 E5                 7530 	push	hl
                           7531 ;	genCall
   1E19 CD 00 00           7532 	call	_delay
   1E1C E8 02              7533 	lda	sp,2(sp)
                           7534 ;	IncludeCustom/MessageIntro.c 370
                           7535 ;	genIpush
                           7536 ; _saveRegsForCall: sendSetSize: 0 deInUse: 0 bcInUse: 0 deSending: 0
   1E1E 21 DF 20           7537 	ld	hl,#__str_182
   1E21 E5                 7538 	push	hl
                           7539 ;	genCall
   1E22 CD 00 00           7540 	call	_printf
   1E25 E8 02              7541 	lda	sp,2(sp)
                           7542 ;	IncludeCustom/MessageIntro.c 371
                           7543 ;	genIpush
                           7544 ; _saveRegsForCall: sendSetSize: 0 deInUse: 0 bcInUse: 0 deSending: 0
   1E27 21 64 00           7545 	ld	hl,#0x0064
   1E2A E5                 7546 	push	hl
                           7547 ;	genCall
   1E2B CD 00 00           7548 	call	_delay
   1E2E E8 02              7549 	lda	sp,2(sp)
                           7550 ;	IncludeCustom/MessageIntro.c 372
                           7551 ;	genIpush
                           7552 ; _saveRegsForCall: sendSetSize: 0 deInUse: 0 bcInUse: 0 deSending: 0
   1E30 21 E1 20           7553 	ld	hl,#__str_183
   1E33 E5                 7554 	push	hl
                           7555 ;	genCall
   1E34 CD 00 00           7556 	call	_printf
   1E37 E8 02              7557 	lda	sp,2(sp)
                           7558 ;	IncludeCustom/MessageIntro.c 373
                           7559 ;	genIpush
                           7560 ; _saveRegsForCall: sendSetSize: 0 deInUse: 0 bcInUse: 0 deSending: 0
   1E39 21 F4 01           7561 	ld	hl,#0x01F4
   1E3C E5                 7562 	push	hl
                           7563 ;	genCall
   1E3D CD 00 00           7564 	call	_delay
   1E40 E8 02              7565 	lda	sp,2(sp)
                           7566 ;	IncludeCustom/MessageIntro.c 374
                           7567 ;	genIpush
                           7568 ; _saveRegsForCall: sendSetSize: 0 deInUse: 0 bcInUse: 0 deSending: 0
   1E42 21 E3 20           7569 	ld	hl,#__str_184
   1E45 E5                 7570 	push	hl
                           7571 ;	genCall
   1E46 CD 00 00           7572 	call	_printf
   1E49 E8 02              7573 	lda	sp,2(sp)
                           7574 ;	IncludeCustom/MessageIntro.c 375
                           7575 ;	genIpush
                           7576 ; _saveRegsForCall: sendSetSize: 0 deInUse: 0 bcInUse: 0 deSending: 0
   1E4B 21 64 00           7577 	ld	hl,#0x0064
   1E4E E5                 7578 	push	hl
                           7579 ;	genCall
   1E4F CD 00 00           7580 	call	_delay
   1E52 E8 02              7581 	lda	sp,2(sp)
                           7582 ;	IncludeCustom/MessageIntro.c 376
                           7583 ;	genIpush
                           7584 ; _saveRegsForCall: sendSetSize: 0 deInUse: 0 bcInUse: 0 deSending: 0
   1E54 21 E5 20           7585 	ld	hl,#__str_185
   1E57 E5                 7586 	push	hl
                           7587 ;	genCall
   1E58 CD 00 00           7588 	call	_printf
   1E5B E8 02              7589 	lda	sp,2(sp)
                           7590 ;	IncludeCustom/MessageIntro.c 377
                           7591 ;	genIpush
                           7592 ; _saveRegsForCall: sendSetSize: 0 deInUse: 0 bcInUse: 0 deSending: 0
   1E5D 21 64 00           7593 	ld	hl,#0x0064
   1E60 E5                 7594 	push	hl
                           7595 ;	genCall
   1E61 CD 00 00           7596 	call	_delay
   1E64 E8 02              7597 	lda	sp,2(sp)
                           7598 ;	IncludeCustom/MessageIntro.c 378
                           7599 ;	genIpush
                           7600 ; _saveRegsForCall: sendSetSize: 0 deInUse: 0 bcInUse: 0 deSending: 0
   1E66 21 E7 20           7601 	ld	hl,#__str_186
   1E69 E5                 7602 	push	hl
                           7603 ;	genCall
   1E6A CD 00 00           7604 	call	_printf
   1E6D E8 02              7605 	lda	sp,2(sp)
                           7606 ;	IncludeCustom/MessageIntro.c 379
                           7607 ;	genIpush
                           7608 ; _saveRegsForCall: sendSetSize: 0 deInUse: 0 bcInUse: 0 deSending: 0
   1E6F 21 64 00           7609 	ld	hl,#0x0064
   1E72 E5                 7610 	push	hl
                           7611 ;	genCall
   1E73 CD 00 00           7612 	call	_delay
   1E76 E8 02              7613 	lda	sp,2(sp)
                           7614 ;	IncludeCustom/MessageIntro.c 380
                           7615 ;	genIpush
                           7616 ; _saveRegsForCall: sendSetSize: 0 deInUse: 0 bcInUse: 0 deSending: 0
   1E78 21 E9 20           7617 	ld	hl,#__str_187
   1E7B E5                 7618 	push	hl
                           7619 ;	genCall
   1E7C CD 00 00           7620 	call	_printf
   1E7F E8 02              7621 	lda	sp,2(sp)
                           7622 ;	IncludeCustom/MessageIntro.c 381
                           7623 ;	genIpush
                           7624 ; _saveRegsForCall: sendSetSize: 0 deInUse: 0 bcInUse: 0 deSending: 0
   1E81 21 64 00           7625 	ld	hl,#0x0064
   1E84 E5                 7626 	push	hl
                           7627 ;	genCall
   1E85 CD 00 00           7628 	call	_delay
   1E88 E8 02              7629 	lda	sp,2(sp)
                           7630 ;	IncludeCustom/MessageIntro.c 382
                           7631 ;	genIpush
                           7632 ; _saveRegsForCall: sendSetSize: 0 deInUse: 0 bcInUse: 0 deSending: 0
   1E8A 21 EB 20           7633 	ld	hl,#__str_188
   1E8D E5                 7634 	push	hl
                           7635 ;	genCall
   1E8E CD 00 00           7636 	call	_printf
   1E91 E8 02              7637 	lda	sp,2(sp)
                           7638 ;	IncludeCustom/MessageIntro.c 383
                           7639 ;	genIpush
                           7640 ; _saveRegsForCall: sendSetSize: 0 deInUse: 0 bcInUse: 0 deSending: 0
   1E93 21 64 00           7641 	ld	hl,#0x0064
   1E96 E5                 7642 	push	hl
                           7643 ;	genCall
   1E97 CD 00 00           7644 	call	_delay
   1E9A E8 02              7645 	lda	sp,2(sp)
                           7646 ;	IncludeCustom/MessageIntro.c 384
                           7647 ;	genIpush
                           7648 ; _saveRegsForCall: sendSetSize: 0 deInUse: 0 bcInUse: 0 deSending: 0
   1E9C 21 ED 20           7649 	ld	hl,#__str_189
   1E9F E5                 7650 	push	hl
                           7651 ;	genCall
   1EA0 CD 00 00           7652 	call	_printf
   1EA3 E8 02              7653 	lda	sp,2(sp)
                           7654 ;	IncludeCustom/MessageIntro.c 385
                           7655 ;	genIpush
                           7656 ; _saveRegsForCall: sendSetSize: 0 deInUse: 0 bcInUse: 0 deSending: 0
   1EA5 21 64 00           7657 	ld	hl,#0x0064
   1EA8 E5                 7658 	push	hl
                           7659 ;	genCall
   1EA9 CD 00 00           7660 	call	_delay
   1EAC E8 02              7661 	lda	sp,2(sp)
                           7662 ;	IncludeCustom/MessageIntro.c 386
                           7663 ;	genIpush
                           7664 ; _saveRegsForCall: sendSetSize: 0 deInUse: 0 bcInUse: 0 deSending: 0
   1EAE 21 EF 20           7665 	ld	hl,#__str_190
   1EB1 E5                 7666 	push	hl
                           7667 ;	genCall
   1EB2 CD 00 00           7668 	call	_printf
   1EB5 E8 02              7669 	lda	sp,2(sp)
                           7670 ;	IncludeCustom/MessageIntro.c 387
                           7671 ;	genIpush
                           7672 ; _saveRegsForCall: sendSetSize: 0 deInUse: 0 bcInUse: 0 deSending: 0
   1EB7 21 64 00           7673 	ld	hl,#0x0064
   1EBA E5                 7674 	push	hl
                           7675 ;	genCall
   1EBB CD 00 00           7676 	call	_delay
   1EBE E8 02              7677 	lda	sp,2(sp)
                           7678 ;	IncludeCustom/MessageIntro.c 388
                           7679 ;	genIpush
                           7680 ; _saveRegsForCall: sendSetSize: 0 deInUse: 0 bcInUse: 0 deSending: 0
   1EC0 21 F1 20           7681 	ld	hl,#__str_191
   1EC3 E5                 7682 	push	hl
                           7683 ;	genCall
   1EC4 CD 00 00           7684 	call	_printf
   1EC7 E8 02              7685 	lda	sp,2(sp)
                           7686 ;	IncludeCustom/MessageIntro.c 389
                           7687 ;	genIpush
                           7688 ; _saveRegsForCall: sendSetSize: 0 deInUse: 0 bcInUse: 0 deSending: 0
   1EC9 21 F3 20           7689 	ld	hl,#__str_192
   1ECC E5                 7690 	push	hl
                           7691 ;	genCall
   1ECD CD 00 00           7692 	call	_printf
   1ED0 E8 02              7693 	lda	sp,2(sp)
                           7694 ;	IncludeCustom/MessageIntro.c 390
                           7695 ;	genIpush
                           7696 ; _saveRegsForCall: sendSetSize: 0 deInUse: 0 bcInUse: 0 deSending: 0
   1ED2 21 64 00           7697 	ld	hl,#0x0064
   1ED5 E5                 7698 	push	hl
                           7699 ;	genCall
   1ED6 CD 00 00           7700 	call	_delay
   1ED9 E8 02              7701 	lda	sp,2(sp)
                           7702 ;	IncludeCustom/MessageIntro.c 391
                           7703 ;	genIpush
                           7704 ; _saveRegsForCall: sendSetSize: 0 deInUse: 0 bcInUse: 0 deSending: 0
   1EDB 21 F7 20           7705 	ld	hl,#__str_193
   1EDE E5                 7706 	push	hl
                           7707 ;	genCall
   1EDF CD 00 00           7708 	call	_printf
   1EE2 E8 02              7709 	lda	sp,2(sp)
                           7710 ;	IncludeCustom/MessageIntro.c 392
                           7711 ;	genIpush
                           7712 ; _saveRegsForCall: sendSetSize: 0 deInUse: 0 bcInUse: 0 deSending: 0
   1EE4 21 64 00           7713 	ld	hl,#0x0064
   1EE7 E5                 7714 	push	hl
                           7715 ;	genCall
   1EE8 CD 00 00           7716 	call	_delay
   1EEB E8 02              7717 	lda	sp,2(sp)
                           7718 ;	IncludeCustom/MessageIntro.c 393
                           7719 ;	genIpush
                           7720 ; _saveRegsForCall: sendSetSize: 0 deInUse: 0 bcInUse: 0 deSending: 0
   1EED 21 F9 20           7721 	ld	hl,#__str_194
   1EF0 E5                 7722 	push	hl
                           7723 ;	genCall
   1EF1 CD 00 00           7724 	call	_printf
   1EF4 E8 02              7725 	lda	sp,2(sp)
                           7726 ;	IncludeCustom/MessageIntro.c 394
                           7727 ;	genIpush
                           7728 ; _saveRegsForCall: sendSetSize: 0 deInUse: 0 bcInUse: 0 deSending: 0
   1EF6 21 64 00           7729 	ld	hl,#0x0064
   1EF9 E5                 7730 	push	hl
                           7731 ;	genCall
   1EFA CD 00 00           7732 	call	_delay
   1EFD E8 02              7733 	lda	sp,2(sp)
                           7734 ;	IncludeCustom/MessageIntro.c 395
                           7735 ;	genIpush
                           7736 ; _saveRegsForCall: sendSetSize: 0 deInUse: 0 bcInUse: 0 deSending: 0
   1EFF 21 FB 20           7737 	ld	hl,#__str_195
   1F02 E5                 7738 	push	hl
                           7739 ;	genCall
   1F03 CD 00 00           7740 	call	_printf
   1F06 E8 02              7741 	lda	sp,2(sp)
                           7742 ;	IncludeCustom/MessageIntro.c 396
                           7743 ;	genIpush
                           7744 ; _saveRegsForCall: sendSetSize: 0 deInUse: 0 bcInUse: 0 deSending: 0
   1F08 21 64 00           7745 	ld	hl,#0x0064
   1F0B E5                 7746 	push	hl
                           7747 ;	genCall
   1F0C CD 00 00           7748 	call	_delay
   1F0F E8 02              7749 	lda	sp,2(sp)
                           7750 ;	IncludeCustom/MessageIntro.c 397
                           7751 ;	genIpush
                           7752 ; _saveRegsForCall: sendSetSize: 0 deInUse: 0 bcInUse: 0 deSending: 0
   1F11 21 FD 20           7753 	ld	hl,#__str_196
   1F14 E5                 7754 	push	hl
                           7755 ;	genCall
   1F15 CD 00 00           7756 	call	_printf
   1F18 E8 02              7757 	lda	sp,2(sp)
                           7758 ;	IncludeCustom/MessageIntro.c 398
                           7759 ;	genIpush
                           7760 ; _saveRegsForCall: sendSetSize: 0 deInUse: 0 bcInUse: 0 deSending: 0
   1F1A 21 64 00           7761 	ld	hl,#0x0064
   1F1D E5                 7762 	push	hl
                           7763 ;	genCall
   1F1E CD 00 00           7764 	call	_delay
   1F21 E8 02              7765 	lda	sp,2(sp)
                           7766 ;	IncludeCustom/MessageIntro.c 399
                           7767 ;	genIpush
                           7768 ; _saveRegsForCall: sendSetSize: 0 deInUse: 0 bcInUse: 0 deSending: 0
   1F23 21 FF 20           7769 	ld	hl,#__str_197
   1F26 E5                 7770 	push	hl
                           7771 ;	genCall
   1F27 CD 00 00           7772 	call	_printf
   1F2A E8 02              7773 	lda	sp,2(sp)
                           7774 ;	IncludeCustom/MessageIntro.c 400
                           7775 ;	genIpush
                           7776 ; _saveRegsForCall: sendSetSize: 0 deInUse: 0 bcInUse: 0 deSending: 0
   1F2C 21 64 00           7777 	ld	hl,#0x0064
   1F2F E5                 7778 	push	hl
                           7779 ;	genCall
   1F30 CD 00 00           7780 	call	_delay
   1F33 E8 02              7781 	lda	sp,2(sp)
                           7782 ;	IncludeCustom/MessageIntro.c 401
                           7783 ;	genIpush
                           7784 ; _saveRegsForCall: sendSetSize: 0 deInUse: 0 bcInUse: 0 deSending: 0
   1F35 21 01 21           7785 	ld	hl,#__str_198
   1F38 E5                 7786 	push	hl
                           7787 ;	genCall
   1F39 CD 00 00           7788 	call	_printf
   1F3C E8 02              7789 	lda	sp,2(sp)
                           7790 ;	IncludeCustom/MessageIntro.c 402
                           7791 ;	genIpush
                           7792 ; _saveRegsForCall: sendSetSize: 0 deInUse: 0 bcInUse: 0 deSending: 0
   1F3E 21 64 00           7793 	ld	hl,#0x0064
   1F41 E5                 7794 	push	hl
                           7795 ;	genCall
   1F42 CD 00 00           7796 	call	_delay
   1F45 E8 02              7797 	lda	sp,2(sp)
                           7798 ;	IncludeCustom/MessageIntro.c 403
                           7799 ;	genIpush
                           7800 ; _saveRegsForCall: sendSetSize: 0 deInUse: 0 bcInUse: 0 deSending: 0
   1F47 21 03 21           7801 	ld	hl,#__str_199
   1F4A E5                 7802 	push	hl
                           7803 ;	genCall
   1F4B CD 00 00           7804 	call	_printf
   1F4E E8 02              7805 	lda	sp,2(sp)
                           7806 ;	IncludeCustom/MessageIntro.c 404
                           7807 ;	genIpush
                           7808 ; _saveRegsForCall: sendSetSize: 0 deInUse: 0 bcInUse: 0 deSending: 0
   1F50 21 64 00           7809 	ld	hl,#0x0064
   1F53 E5                 7810 	push	hl
                           7811 ;	genCall
   1F54 CD 00 00           7812 	call	_delay
   1F57 E8 02              7813 	lda	sp,2(sp)
                           7814 ;	IncludeCustom/MessageIntro.c 405
                           7815 ;	genIpush
                           7816 ; _saveRegsForCall: sendSetSize: 0 deInUse: 0 bcInUse: 0 deSending: 0
   1F59 21 05 21           7817 	ld	hl,#__str_200
   1F5C E5                 7818 	push	hl
                           7819 ;	genCall
   1F5D CD 00 00           7820 	call	_printf
   1F60 E8 02              7821 	lda	sp,2(sp)
                           7822 ;	IncludeCustom/MessageIntro.c 406
                           7823 ;	genIpush
                           7824 ; _saveRegsForCall: sendSetSize: 0 deInUse: 0 bcInUse: 0 deSending: 0
   1F62 21 64 00           7825 	ld	hl,#0x0064
   1F65 E5                 7826 	push	hl
                           7827 ;	genCall
   1F66 CD 00 00           7828 	call	_delay
   1F69 E8 02              7829 	lda	sp,2(sp)
                           7830 ;	IncludeCustom/MessageIntro.c 407
                           7831 ;	genIpush
                           7832 ; _saveRegsForCall: sendSetSize: 0 deInUse: 0 bcInUse: 0 deSending: 0
   1F6B 21 07 21           7833 	ld	hl,#__str_201
   1F6E E5                 7834 	push	hl
                           7835 ;	genCall
   1F6F CD 00 00           7836 	call	_printf
   1F72 E8 02              7837 	lda	sp,2(sp)
                           7838 ;	IncludeCustom/MessageIntro.c 408
                           7839 ;	genIpush
                           7840 ; _saveRegsForCall: sendSetSize: 0 deInUse: 0 bcInUse: 0 deSending: 0
   1F74 21 64 00           7841 	ld	hl,#0x0064
   1F77 E5                 7842 	push	hl
                           7843 ;	genCall
   1F78 CD 00 00           7844 	call	_delay
   1F7B E8 02              7845 	lda	sp,2(sp)
                           7846 ;	IncludeCustom/MessageIntro.c 409
                           7847 ;	genIpush
                           7848 ; _saveRegsForCall: sendSetSize: 0 deInUse: 0 bcInUse: 0 deSending: 0
   1F7D 21 09 21           7849 	ld	hl,#__str_202
   1F80 E5                 7850 	push	hl
                           7851 ;	genCall
   1F81 CD 00 00           7852 	call	_printf
   1F84 E8 02              7853 	lda	sp,2(sp)
                           7854 ;	IncludeCustom/MessageIntro.c 410
                           7855 ;	genIpush
                           7856 ; _saveRegsForCall: sendSetSize: 0 deInUse: 0 bcInUse: 0 deSending: 0
   1F86 21 64 00           7857 	ld	hl,#0x0064
   1F89 E5                 7858 	push	hl
                           7859 ;	genCall
   1F8A CD 00 00           7860 	call	_delay
   1F8D E8 02              7861 	lda	sp,2(sp)
                           7862 ;	IncludeCustom/MessageIntro.c 411
                           7863 ;	genIpush
                           7864 ; _saveRegsForCall: sendSetSize: 0 deInUse: 0 bcInUse: 0 deSending: 0
   1F8F 21 0B 21           7865 	ld	hl,#__str_203
   1F92 E5                 7866 	push	hl
                           7867 ;	genCall
   1F93 CD 00 00           7868 	call	_printf
   1F96 E8 02              7869 	lda	sp,2(sp)
                           7870 ;	IncludeCustom/MessageIntro.c 412
                           7871 ;	genIpush
                           7872 ; _saveRegsForCall: sendSetSize: 0 deInUse: 0 bcInUse: 0 deSending: 0
   1F98 21 64 00           7873 	ld	hl,#0x0064
   1F9B E5                 7874 	push	hl
                           7875 ;	genCall
   1F9C CD 00 00           7876 	call	_delay
   1F9F E8 02              7877 	lda	sp,2(sp)
                           7878 ;	IncludeCustom/MessageIntro.c 413
                           7879 ;	genIpush
                           7880 ; _saveRegsForCall: sendSetSize: 0 deInUse: 0 bcInUse: 0 deSending: 0
   1FA1 21 0D 21           7881 	ld	hl,#__str_204
   1FA4 E5                 7882 	push	hl
                           7883 ;	genCall
   1FA5 CD 00 00           7884 	call	_printf
   1FA8 E8 02              7885 	lda	sp,2(sp)
                           7886 ;	IncludeCustom/MessageIntro.c 414
                           7887 ;	genIpush
                           7888 ; _saveRegsForCall: sendSetSize: 0 deInUse: 0 bcInUse: 0 deSending: 0
   1FAA 21 64 00           7889 	ld	hl,#0x0064
   1FAD E5                 7890 	push	hl
                           7891 ;	genCall
   1FAE CD 00 00           7892 	call	_delay
   1FB1 E8 02              7893 	lda	sp,2(sp)
                           7894 ;	IncludeCustom/MessageIntro.c 415
                           7895 ;	genIpush
                           7896 ; _saveRegsForCall: sendSetSize: 0 deInUse: 0 bcInUse: 0 deSending: 0
   1FB3 21 0F 21           7897 	ld	hl,#__str_205
   1FB6 E5                 7898 	push	hl
                           7899 ;	genCall
   1FB7 CD 00 00           7900 	call	_printf
   1FBA E8 02              7901 	lda	sp,2(sp)
                           7902 ;	IncludeCustom/MessageIntro.c 416
                           7903 ;	genIpush
                           7904 ; _saveRegsForCall: sendSetSize: 0 deInUse: 0 bcInUse: 0 deSending: 0
   1FBC 21 64 00           7905 	ld	hl,#0x0064
   1FBF E5                 7906 	push	hl
                           7907 ;	genCall
   1FC0 CD 00 00           7908 	call	_delay
   1FC3 E8 02              7909 	lda	sp,2(sp)
                           7910 ;	IncludeCustom/MessageIntro.c 417
                           7911 ;	genIpush
                           7912 ; _saveRegsForCall: sendSetSize: 0 deInUse: 0 bcInUse: 0 deSending: 0
   1FC5 21 11 21           7913 	ld	hl,#__str_206
   1FC8 E5                 7914 	push	hl
                           7915 ;	genCall
   1FC9 CD 00 00           7916 	call	_printf
   1FCC E8 02              7917 	lda	sp,2(sp)
                           7918 ;	IncludeCustom/MessageIntro.c 418
                           7919 ;	genIpush
                           7920 ; _saveRegsForCall: sendSetSize: 0 deInUse: 0 bcInUse: 0 deSending: 0
   1FCE 21 64 00           7921 	ld	hl,#0x0064
   1FD1 E5                 7922 	push	hl
                           7923 ;	genCall
   1FD2 CD 00 00           7924 	call	_delay
   1FD5 E8 02              7925 	lda	sp,2(sp)
                           7926 ;	IncludeCustom/MessageIntro.c 419
                           7927 ;	genIpush
                           7928 ; _saveRegsForCall: sendSetSize: 0 deInUse: 0 bcInUse: 0 deSending: 0
   1FD7 21 13 21           7929 	ld	hl,#__str_207
   1FDA E5                 7930 	push	hl
                           7931 ;	genCall
   1FDB CD 00 00           7932 	call	_printf
   1FDE E8 02              7933 	lda	sp,2(sp)
                           7934 ;	IncludeCustom/MessageIntro.c 420
                           7935 ;	genIpush
                           7936 ; _saveRegsForCall: sendSetSize: 0 deInUse: 0 bcInUse: 0 deSending: 0
   1FE0 21 64 00           7937 	ld	hl,#0x0064
   1FE3 E5                 7938 	push	hl
                           7939 ;	genCall
   1FE4 CD 00 00           7940 	call	_delay
   1FE7 E8 02              7941 	lda	sp,2(sp)
                           7942 ;	IncludeCustom/MessageIntro.c 421
                           7943 ;	genIpush
                           7944 ; _saveRegsForCall: sendSetSize: 0 deInUse: 0 bcInUse: 0 deSending: 0
   1FE9 21 15 21           7945 	ld	hl,#__str_208
   1FEC E5                 7946 	push	hl
                           7947 ;	genCall
   1FED CD 00 00           7948 	call	_printf
   1FF0 E8 02              7949 	lda	sp,2(sp)
                           7950 ;	IncludeCustom/MessageIntro.c 422
                           7951 ;	genIpush
                           7952 ; _saveRegsForCall: sendSetSize: 0 deInUse: 0 bcInUse: 0 deSending: 0
   1FF2 21 64 00           7953 	ld	hl,#0x0064
   1FF5 E5                 7954 	push	hl
                           7955 ;	genCall
   1FF6 CD 00 00           7956 	call	_delay
   1FF9 E8 02              7957 	lda	sp,2(sp)
                           7958 ;	IncludeCustom/MessageIntro.c 423
                           7959 ;	genIpush
                           7960 ; _saveRegsForCall: sendSetSize: 0 deInUse: 0 bcInUse: 0 deSending: 0
   1FFB 21 17 21           7961 	ld	hl,#__str_209
   1FFE E5                 7962 	push	hl
                           7963 ;	genCall
   1FFF CD 00 00           7964 	call	_printf
   2002 E8 02              7965 	lda	sp,2(sp)
                           7966 ;	IncludeCustom/MessageIntro.c 424
                           7967 ;	genIpush
                           7968 ; _saveRegsForCall: sendSetSize: 0 deInUse: 0 bcInUse: 0 deSending: 0
   2004 21 64 00           7969 	ld	hl,#0x0064
   2007 E5                 7970 	push	hl
                           7971 ;	genCall
   2008 CD 00 00           7972 	call	_delay
   200B E8 02              7973 	lda	sp,2(sp)
                           7974 ;	IncludeCustom/MessageIntro.c 425
                           7975 ;	genIpush
                           7976 ; _saveRegsForCall: sendSetSize: 0 deInUse: 0 bcInUse: 0 deSending: 0
   200D 21 19 21           7977 	ld	hl,#__str_210
   2010 E5                 7978 	push	hl
                           7979 ;	genCall
   2011 CD 00 00           7980 	call	_printf
   2014 E8 02              7981 	lda	sp,2(sp)
                           7982 ;	genLabel
   2016                    7983 00101$:
                           7984 ;	genEndFunction
                           7985 	
   2016 C9                 7986 	ret
   2017                    7987 ___messageIntroPart2_end:
   2017                    7988 __str_89:
   2017 0A                 7989 	.db 0x0A
   2018 20 4C              7990 	.ascii " L"
   201A 00                 7991 	.db 0x00
   201B                    7992 __str_90:
   201B 65                 7993 	.ascii "e"
   201C 00                 7994 	.db 0x00
   201D                    7995 __str_91:
   201D 20                 7996 	.ascii " "
   201E 00                 7997 	.db 0x00
   201F                    7998 __str_92:
   201F 70                 7999 	.ascii "p"
   2020 00                 8000 	.db 0x00
   2021                    8001 __str_93:
   2021 65                 8002 	.ascii "e"
   2022 00                 8003 	.db 0x00
   2023                    8004 __str_94:
   2023 74                 8005 	.ascii "t"
   2024 00                 8006 	.db 0x00
   2025                    8007 __str_95:
   2025 69                 8008 	.ascii "i"
   2026 00                 8009 	.db 0x00
   2027                    8010 __str_96:
   2027 74                 8011 	.ascii "t"
   2028 00                 8012 	.db 0x00
   2029                    8013 __str_97:
   2029 20                 8014 	.ascii " "
   202A 00                 8015 	.db 0x00
   202B                    8016 __str_98:
   202B 72                 8017 	.ascii "r"
   202C 00                 8018 	.db 0x00
   202D                    8019 __str_99:
   202D 6F                 8020 	.ascii "o"
   202E 00                 8021 	.db 0x00
   202F                    8022 __str_100:
   202F 62                 8023 	.ascii "b"
   2030 00                 8024 	.db 0x00
   2031                    8025 __str_101:
   2031 6F                 8026 	.ascii "o"
   2032 00                 8027 	.db 0x00
   2033                    8028 __str_102:
   2033 74                 8029 	.ascii "t"
   2034 00                 8030 	.db 0x00
   2035                    8031 __str_103:
   2035 20                 8032 	.ascii " "
   2036 00                 8033 	.db 0x00
   2037                    8034 __str_104:
   2037 73                 8035 	.ascii "s"
   2038 00                 8036 	.db 0x00
   2039                    8037 __str_105:
   2039 65                 8038 	.ascii "e"
   203A 00                 8039 	.db 0x00
   203B                    8040 __str_106:
   203B 0A                 8041 	.db 0x0A
   203C 0A                 8042 	.db 0x0A
   203D 20                 8043 	.ascii " "
   203E 00                 8044 	.db 0x00
   203F                    8045 __str_107:
   203F 6C                 8046 	.ascii "l"
   2040 00                 8047 	.db 0x00
   2041                    8048 __str_108:
   2041 65                 8049 	.ascii "e"
   2042 00                 8050 	.db 0x00
   2043                    8051 __str_109:
   2043 76                 8052 	.ascii "v"
   2044 00                 8053 	.db 0x00
   2045                    8054 __str_110:
   2045 61                 8055 	.ascii "a"
   2046 00                 8056 	.db 0x00
   2047                    8057 __str_111:
   2047 20                 8058 	.ascii " "
   2048 00                 8059 	.db 0x00
   2049                    8060 __str_112:
   2049 63                 8061 	.ascii "c"
   204A 00                 8062 	.db 0x00
   204B                    8063 __str_113:
   204B 6F                 8064 	.ascii "o"
   204C 00                 8065 	.db 0x00
   204D                    8066 __str_114:
   204D 6D                 8067 	.ascii "m"
   204E 00                 8068 	.db 0x00
   204F                    8069 __str_115:
   204F 6D                 8070 	.ascii "m"
   2050 00                 8071 	.db 0x00
   2051                    8072 __str_116:
   2051 65                 8073 	.ascii "e"
   2052 00                 8074 	.db 0x00
   2053                    8075 __str_117:
   2053 20                 8076 	.ascii " "
   2054 00                 8077 	.db 0x00
   2055                    8078 __str_118:
   2055 73                 8079 	.ascii "s"
   2056 00                 8080 	.db 0x00
   2057                    8081 __str_119:
   2057 27                 8082 	.ascii "'"
   2058 00                 8083 	.db 0x00
   2059                    8084 __str_120:
   2059 69                 8085 	.ascii "i"
   205A 00                 8086 	.db 0x00
   205B                    8087 __str_121:
   205B 6C                 8088 	.ascii "l"
   205C 00                 8089 	.db 0x00
   205D                    8090 __str_122:
   205D 0A                 8091 	.db 0x0A
   205E 0A                 8092 	.db 0x0A
   205F 20                 8093 	.ascii " "
   2060 00                 8094 	.db 0x00
   2061                    8095 __str_123:
   2061 73                 8096 	.ascii "s"
   2062 00                 8097 	.db 0x00
   2063                    8098 __str_124:
   2063 6F                 8099 	.ascii "o"
   2064 00                 8100 	.db 0x00
   2065                    8101 __str_125:
   2065 72                 8102 	.ascii "r"
   2066 00                 8103 	.db 0x00
   2067                    8104 __str_126:
   2067 74                 8105 	.ascii "t"
   2068 00                 8106 	.db 0x00
   2069                    8107 __str_127:
   2069 61                 8108 	.ascii "a"
   206A 00                 8109 	.db 0x00
   206B                    8110 __str_128:
   206B 69                 8111 	.ascii "i"
   206C 00                 8112 	.db 0x00
   206D                    8113 __str_129:
   206D 74                 8114 	.ascii "t"
   206E 00                 8115 	.db 0x00
   206F                    8116 __str_130:
   206F 20                 8117 	.ascii " "
   2070 00                 8118 	.db 0x00
   2071                    8119 __str_131:
   2071 64                 8120 	.ascii "d"
   2072 00                 8121 	.db 0x00
   2073                    8122 __str_132:
   2073 27                 8123 	.ascii "'"
   2074 00                 8124 	.db 0x00
   2075                    8125 __str_133:
   2075 75                 8126 	.ascii "u"
   2076 00                 8127 	.db 0x00
   2077                    8128 __str_134:
   2077 6E                 8129 	.ascii "n"
   2078 00                 8130 	.db 0x00
   2079                    8131 __str_135:
   2079 20                 8132 	.ascii " "
   207A 00                 8133 	.db 0x00
   207B                    8134 __str_136:
   207B 6C                 8135 	.ascii "l"
   207C 00                 8136 	.db 0x00
   207D                    8137 __str_137:
   207D 6F                 8138 	.ascii "o"
   207E 00                 8139 	.db 0x00
   207F                    8140 __str_138:
   207F 6E                 8141 	.ascii "n"
   2080 00                 8142 	.db 0x00
   2081                    8143 __str_139:
   2081 67                 8144 	.ascii "g"
   2082 00                 8145 	.db 0x00
   2083                    8146 __str_140:
   2083 0A                 8147 	.db 0x0A
   2084 0A                 8148 	.db 0x0A
   2085 20                 8149 	.ascii " "
   2086 00                 8150 	.db 0x00
   2087                    8151 __str_141:
   2087 73                 8152 	.ascii "s"
   2088 00                 8153 	.db 0x00
   2089                    8154 __str_142:
   2089 6F                 8155 	.ascii "o"
   208A 00                 8156 	.db 0x00
   208B                    8157 __str_143:
   208B 6D                 8158 	.ascii "m"
   208C 00                 8159 	.db 0x00
   208D                    8160 __str_144:
   208D 6D                 8161 	.ascii "m"
   208E 00                 8162 	.db 0x00
   208F                    8163 __str_145:
   208F 65                 8164 	.ascii "e"
   2090 00                 8165 	.db 0x00
   2091                    8166 __str_146:
   2091 69                 8167 	.ascii "i"
   2092 00                 8168 	.db 0x00
   2093                    8169 __str_147:
   2093 6C                 8170 	.ascii "l"
   2094 00                 8171 	.db 0x00
   2095                    8172 __str_148:
   2095 2C                 8173 	.ascii ","
   2096 00                 8174 	.db 0x00
   2097                    8175 __str_149:
   2097 0A                 8176 	.db 0x0A
   2098 0A                 8177 	.db 0x0A
   2099 20                 8178 	.ascii " "
   209A 00                 8179 	.db 0x00
   209B                    8180 __str_150:
   209B 65                 8181 	.ascii "e"
   209C 00                 8182 	.db 0x00
   209D                    8183 __str_151:
   209D 74                 8184 	.ascii "t"
   209E 00                 8185 	.db 0x00
   209F                    8186 __str_152:
   209F 20                 8187 	.ascii " "
   20A0 00                 8188 	.db 0x00
   20A1                    8189 __str_153:
   20A1 63                 8190 	.ascii "c"
   20A2 00                 8191 	.db 0x00
   20A3                    8192 __str_154:
   20A3 68                 8193 	.ascii "h"
   20A4 00                 8194 	.db 0x00
   20A5                    8195 __str_155:
   20A5 65                 8196 	.ascii "e"
   20A6 00                 8197 	.db 0x00
   20A7                    8198 __str_156:
   20A7 72                 8199 	.ascii "r"
   20A8 00                 8200 	.db 0x00
   20A9                    8201 __str_157:
   20A9 63                 8202 	.ascii "c"
   20AA 00                 8203 	.db 0x00
   20AB                    8204 __str_158:
   20AB 68                 8205 	.ascii "h"
   20AC 00                 8206 	.db 0x00
   20AD                    8207 __str_159:
   20AD 61                 8208 	.ascii "a"
   20AE 00                 8209 	.db 0x00
   20AF                    8210 __str_160:
   20AF 0A                 8211 	.db 0x0A
   20B0 0A                 8212 	.db 0x0A
   20B1 20                 8213 	.ascii " "
   20B2 00                 8214 	.db 0x00
   20B3                    8215 __str_161:
   20B3 73                 8216 	.ascii "s"
   20B4 00                 8217 	.db 0x00
   20B5                    8218 __str_162:
   20B5 6F                 8219 	.ascii "o"
   20B6 00                 8220 	.db 0x00
   20B7                    8221 __str_163:
   20B7 6E                 8222 	.ascii "n"
   20B8 00                 8223 	.db 0x00
   20B9                    8224 __str_164:
   20B9 20                 8225 	.ascii " "
   20BA 00                 8226 	.db 0x00
   20BB                    8227 __str_165:
   20BB 63                 8228 	.ascii "c"
   20BC 00                 8229 	.db 0x00
   20BD                    8230 __str_166:
   20BD 72                 8231 	.ascii "r"
   20BE 00                 8232 	.db 0x00
   20BF                    8233 __str_167:
   20BF 65                 8234 	.ascii "e"
   20C0 00                 8235 	.db 0x00
   20C1                    8236 __str_168:
   20C1 61                 8237 	.ascii "a"
   20C2 00                 8238 	.db 0x00
   20C3                    8239 __str_169:
   20C3 74                 8240 	.ascii "t"
   20C4 00                 8241 	.db 0x00
   20C5                    8242 __str_170:
   20C5 65                 8243 	.ascii "e"
   20C6 00                 8244 	.db 0x00
   20C7                    8245 __str_171:
   20C7 75                 8246 	.ascii "u"
   20C8 00                 8247 	.db 0x00
   20C9                    8248 __str_172:
   20C9 72                 8249 	.ascii "r"
   20CA 00                 8250 	.db 0x00
   20CB                    8251 __str_173:
   20CB 2C                 8252 	.ascii ","
   20CC 00                 8253 	.db 0x00
   20CD                    8254 __str_174:
   20CD 20                 8255 	.ascii " "
   20CE 00                 8256 	.db 0x00
   20CF                    8257 __str_175:
   20CF 0A                 8258 	.db 0x0A
   20D0 0A                 8259 	.db 0x0A
   20D1 20                 8260 	.ascii " "
   20D2 00                 8261 	.db 0x00
   20D3                    8262 __str_176:
   20D3 73                 8263 	.ascii "s"
   20D4 00                 8264 	.db 0x00
   20D5                    8265 __str_177:
   20D5 6F                 8266 	.ascii "o"
   20D6 00                 8267 	.db 0x00
   20D7                    8268 __str_178:
   20D7 6E                 8269 	.ascii "n"
   20D8 00                 8270 	.db 0x00
   20D9                    8271 __str_179:
   20D9 20                 8272 	.ascii " "
   20DA 00                 8273 	.db 0x00
   20DB                    8274 __str_180:
   20DB 61                 8275 	.ascii "a"
   20DC 00                 8276 	.db 0x00
   20DD                    8277 __str_181:
   20DD 6D                 8278 	.ascii "m"
   20DE 00                 8279 	.db 0x00
   20DF                    8280 __str_182:
   20DF 69                 8281 	.ascii "i"
   20E0 00                 8282 	.db 0x00
   20E1                    8283 __str_183:
   20E1 2C                 8284 	.ascii ","
   20E2 00                 8285 	.db 0x00
   20E3                    8286 __str_184:
   20E3 20                 8287 	.ascii " "
   20E4 00                 8288 	.db 0x00
   20E5                    8289 __str_185:
   20E5 6D                 8290 	.ascii "m"
   20E6 00                 8291 	.db 0x00
   20E7                    8292 __str_186:
   20E7 61                 8293 	.ascii "a"
   20E8 00                 8294 	.db 0x00
   20E9                    8295 __str_187:
   20E9 69                 8296 	.ascii "i"
   20EA 00                 8297 	.db 0x00
   20EB                    8298 __str_188:
   20EB 73                 8299 	.ascii "s"
   20EC 00                 8300 	.db 0x00
   20ED                    8301 __str_189:
   20ED 20                 8302 	.ascii " "
   20EE 00                 8303 	.db 0x00
   20EF                    8304 __str_190:
   20EF 6C                 8305 	.ascii "l"
   20F0 00                 8306 	.db 0x00
   20F1                    8307 __str_191:
   20F1 61                 8308 	.ascii "a"
   20F2 00                 8309 	.db 0x00
   20F3                    8310 __str_192:
   20F3 0A                 8311 	.db 0x0A
   20F4 0A                 8312 	.db 0x0A
   20F5 20                 8313 	.ascii " "
   20F6 00                 8314 	.db 0x00
   20F7                    8315 __str_193:
   20F7 6D                 8316 	.ascii "m"
   20F8 00                 8317 	.db 0x00
   20F9                    8318 __str_194:
   20F9 61                 8319 	.ascii "a"
   20FA 00                 8320 	.db 0x00
   20FB                    8321 __str_195:
   20FB 69                 8322 	.ascii "i"
   20FC 00                 8323 	.db 0x00
   20FD                    8324 __str_196:
   20FD 73                 8325 	.ascii "s"
   20FE 00                 8326 	.db 0x00
   20FF                    8327 __str_197:
   20FF 6F                 8328 	.ascii "o"
   2100 00                 8329 	.db 0x00
   2101                    8330 __str_198:
   2101 6E                 8331 	.ascii "n"
   2102 00                 8332 	.db 0x00
   2103                    8333 __str_199:
   2103 20                 8334 	.ascii " "
   2104 00                 8335 	.db 0x00
   2105                    8336 __str_200:
   2105 66                 8337 	.ascii "f"
   2106 00                 8338 	.db 0x00
   2107                    8339 __str_201:
   2107 75                 8340 	.ascii "u"
   2108 00                 8341 	.db 0x00
   2109                    8342 __str_202:
   2109 74                 8343 	.ascii "t"
   210A 00                 8344 	.db 0x00
   210B                    8345 __str_203:
   210B 20                 8346 	.ascii " "
   210C 00                 8347 	.db 0x00
   210D                    8348 __str_204:
   210D 76                 8349 	.ascii "v"
   210E 00                 8350 	.db 0x00
   210F                    8351 __str_205:
   210F 69                 8352 	.ascii "i"
   2110 00                 8353 	.db 0x00
   2111                    8354 __str_206:
   2111 64                 8355 	.ascii "d"
   2112 00                 8356 	.db 0x00
   2113                    8357 __str_207:
   2113 65                 8358 	.ascii "e"
   2114 00                 8359 	.db 0x00
   2115                    8360 __str_208:
   2115 2E                 8361 	.ascii "."
   2116 00                 8362 	.db 0x00
   2117                    8363 __str_209:
   2117 2E                 8364 	.ascii "."
   2118 00                 8365 	.db 0x00
   2119                    8366 __str_210:
   2119 2E                 8367 	.ascii "."
   211A 00                 8368 	.db 0x00
                           8369 ;	BANK2.c 26
                           8370 ;	genLabel
                           8371 ;	genFunction
                           8372 ;	---------------------------------
                           8373 ; Function textNext
                           8374 ; ---------------------------------
   211B                    8375 ___textNext_start:
   211B                    8376 _textNext:
   211B E8 EA              8377 	lda	sp,-22(sp)
                           8378 ;	BANK2.c 28
                           8379 ;	genAssign
                           8380 ;	AOP_STK for _textNext_A_PressedA_1_1
   211D F8 14              8381 	lda	hl,20(sp)
   211F 36 00              8382 	ld	(hl),#0x00
   2121 23                 8383 	inc	hl
   2122 36 00              8384 	ld	(hl),#0x00
                           8385 ;	BANK2.c 29
                           8386 ;	genAssign
                           8387 ;	AOP_STK for _textNext_delayVerifA_1_1
   2124 F8 12              8388 	lda	hl,18(sp)
   2126 36 00              8389 	ld	(hl),#0x00
   2128 23                 8390 	inc	hl
   2129 36 00              8391 	ld	(hl),#0x00
                           8392 ;	BANK2.c 30
                           8393 ;	genLabel
   212B                    8394 00111$:
                           8395 ;	genCmpEq
                           8396 ;	AOP_STK for _textNext_A_PressedA_1_1
                           8397 ; genCmpEq: left 2, right 2, result 0
   212B F8 14              8398 	lda	hl,20(sp)
   212D 2A                 8399 	ld	a,(hl+)
   212E B6                 8400 	or	a,(hl)
   212F C2 D8 22           8401 	jp	nz,00114$
   2132 18 03              8402 	jr	00125$
   2134                    8403 00124$:
   2134 C3 D8 22           8404 	jp	00114$
   2137                    8405 00125$:
                           8406 ;	BANK2.c 32
                           8407 ;	genIpush
                           8408 ; _saveRegsForCall: sendSetSize: 0 deInUse: 0 bcInUse: 0 deSending: 0
   2137 21 9B 8E           8409 	ld	hl,#0x8E9B
   213A E5                 8410 	push	hl
                           8411 ;	genIpush
   213B 3E 00              8412 	ld	a,#0x00
   213D F5                 8413 	push	af
   213E 33                 8414 	inc	sp
                           8415 ;	genCall
   213F CD 00 00           8416 	call	_move_sprite
   2142 E8 03              8417 	lda	sp,3(sp)
                           8418 ;	BANK2.c 33
                           8419 ;	genLabel
   2144                    8420 00103$:
                           8421 ;	genCmpEq
                           8422 ;	AOP_STK for _textNext_delayVerifA_1_1
                           8423 ; genCmpEq: left 2, right 2, result 1
   2144 F8 12              8424 	lda	hl,18(sp)
   2146 7E                 8425 	ld	a,(hl)
   2147 FE A0              8426 	cp	a,#0xA0
   2149 C2 57 21           8427 	jp	nz,00126$
   214C 23                 8428 	inc	hl
   214D 7E                 8429 	ld	a,(hl)
   214E FE 0F              8430 	cp	a,#0x0F
   2150 C2 57 21           8431 	jp	nz,00126$
   2153 3E 01              8432 	ld	a,#0x01
   2155 18 01              8433 	jr	00127$
   2157                    8434 00126$:
   2157 AF                 8435 	xor	a,a
   2158                    8436 00127$:
                           8437 ;	genIfx
   2158 B7                 8438 	or	a,a
   2159 C2 05 22           8439 	jp	nz,00105$
                           8440 ;	BANK2.c 34
                           8441 ;	genPlus
                           8442 ;	AOP_STK for _textNext_delayVerifA_1_1
                           8443 ;	AOP_STK for _textNext_sloc0_1_0
                           8444 ;	genPlusIncr
                           8445 ;	Can't optimise plus by inc, falling back to the normal way
   215C F8 12              8446 	lda	hl,18(sp)
   215E 5E                 8447 	ld	e,(hl)
   215F 23                 8448 	inc	hl
   2160 56                 8449 	ld	d,(hl)
   2161 21 01 00           8450 	ld	hl,#0x0001
   2164 19                 8451 	add	hl,de
   2165 7D                 8452 	ld	a,l
   2166 54                 8453 	ld	d,h
   2167 F8 10              8454 	lda	hl,16(sp)
   2169 22                 8455 	ld	(hl+),a
   216A 72                 8456 	ld	(hl),d
                           8457 ;	genAssign
                           8458 ;	AOP_STK for _textNext_sloc0_1_0
                           8459 ;	AOP_STK for _textNext_delayVerifA_1_1
   216B 2B                 8460 	dec	hl
   216C 2A                 8461 	ld	a,(hl+)
   216D 5E                 8462 	ld	e,(hl)
   216E 23                 8463 	inc	hl
   216F 22                 8464 	ld	(hl+),a
   2170 73                 8465 	ld	(hl),e
                           8466 ;	BANK2.c 35
                           8467 ;	genCall
                           8468 ; _saveRegsForCall: sendSetSize: 0 deInUse: 0 bcInUse: 0 deSending: 0
   2171 CD 00 00           8469 	call	_joypad
   2174 4B                 8470 	ld	c,e
                           8471 ;	genCmpEq
                           8472 ; genCmpEq: left 1, right 1, result 1
   2175 79                 8473 	ld	a,c
   2176 FE 10              8474 	cp	a,#0x10
   2178 C2 7F 21           8475 	jp	nz,00128$
   217B 3E 01              8476 	ld	a,#0x01
   217D 18 01              8477 	jr	00129$
   217F                    8478 00128$:
   217F AF                 8479 	xor	a,a
   2180                    8480 00129$:
                           8481 ;	genIfx
   2180 B7                 8482 	or	a,a
   2181 CA 44 21           8483 	jp	z,00103$
                           8484 ;	BANK2.c 36
                           8485 ;	genAssign
                           8486 ;	AOP_STK for _textNext_A_PressedA_1_1
   2184 F8 14              8487 	lda	hl,20(sp)
   2186 36 01              8488 	ld	(hl),#0x01
   2188 23                 8489 	inc	hl
   2189 36 00              8490 	ld	(hl),#0x00
                           8491 ;	BANK2.c 37
                           8492 ;	genAssign
                           8493 ;	AOP_STK for _textNext_delayVerifA_1_1
   218B F8 12              8494 	lda	hl,18(sp)
   218D 36 A0              8495 	ld	(hl),#0xA0
   218F 23                 8496 	inc	hl
   2190 36 0F              8497 	ld	(hl),#0x0F
                           8498 ;	BANK2.c 38
                           8499 ;	genAssign
                           8500 ;	AOP_STK for _textNext_sloc1_1_0
   2192 F8 0E              8501 	lda	hl,14(sp)
   2194 36 26              8502 	ld	(hl),#0x26
   2196 23                 8503 	inc	hl
   2197 36 FF              8504 	ld	(hl),#0xFF
                           8505 ;	genAssign (pointer)
                           8506 ;	AOP_STK for _textNext_sloc1_1_0
   2199 2B                 8507 	dec	hl
   219A 5E                 8508 	ld	e,(hl)
   219B 23                 8509 	inc	hl
   219C 56                 8510 	ld	d,(hl)
   219D 3E 80              8511 	ld	a,#0x80
   219F 12                 8512 	ld	(de),a
                           8513 ;	BANK2.c 39
                           8514 ;	genAssign
                           8515 ;	AOP_STK for _textNext_sloc2_1_0
   21A0 F8 0C              8516 	lda	hl,12(sp)
   21A2 36 25              8517 	ld	(hl),#0x25
   21A4 23                 8518 	inc	hl
   21A5 36 FF              8519 	ld	(hl),#0xFF
                           8520 ;	genAssign (pointer)
                           8521 ;	AOP_STK for _textNext_sloc2_1_0
   21A7 2B                 8522 	dec	hl
   21A8 5E                 8523 	ld	e,(hl)
   21A9 23                 8524 	inc	hl
   21AA 56                 8525 	ld	d,(hl)
   21AB 3E 11              8526 	ld	a,#0x11
   21AD 12                 8527 	ld	(de),a
                           8528 ;	BANK2.c 40
                           8529 ;	genAssign
                           8530 ;	AOP_STK for _textNext_sloc3_1_0
   21AE F8 0A              8531 	lda	hl,10(sp)
   21B0 36 24              8532 	ld	(hl),#0x24
   21B2 23                 8533 	inc	hl
   21B3 36 FF              8534 	ld	(hl),#0xFF
                           8535 ;	genAssign (pointer)
                           8536 ;	AOP_STK for _textNext_sloc3_1_0
   21B5 2B                 8537 	dec	hl
   21B6 5E                 8538 	ld	e,(hl)
   21B7 23                 8539 	inc	hl
   21B8 56                 8540 	ld	d,(hl)
   21B9 3E 55              8541 	ld	a,#0x55
   21BB 12                 8542 	ld	(de),a
                           8543 ;	BANK2.c 42
                           8544 ;	genAssign
                           8545 ;	AOP_STK for _textNext_sloc4_1_0
   21BC F8 08              8546 	lda	hl,8(sp)
   21BE 36 10              8547 	ld	(hl),#0x10
   21C0 23                 8548 	inc	hl
   21C1 36 FF              8549 	ld	(hl),#0xFF
                           8550 ;	genAssign (pointer)
                           8551 ;	AOP_STK for _textNext_sloc4_1_0
   21C3 2B                 8552 	dec	hl
   21C4 5E                 8553 	ld	e,(hl)
   21C5 23                 8554 	inc	hl
   21C6 56                 8555 	ld	d,(hl)
   21C7 3E 09              8556 	ld	a,#0x09
   21C9 12                 8557 	ld	(de),a
                           8558 ;	BANK2.c 43
                           8559 ;	genAssign
                           8560 ;	AOP_STK for _textNext_sloc5_1_0
   21CA F8 06              8561 	lda	hl,6(sp)
   21CC 36 11              8562 	ld	(hl),#0x11
   21CE 23                 8563 	inc	hl
   21CF 36 FF              8564 	ld	(hl),#0xFF
                           8565 ;	genAssign (pointer)
                           8566 ;	AOP_STK for _textNext_sloc5_1_0
   21D1 2B                 8567 	dec	hl
   21D2 5E                 8568 	ld	e,(hl)
   21D3 23                 8569 	inc	hl
   21D4 56                 8570 	ld	d,(hl)
   21D5 3E 5A              8571 	ld	a,#0x5A
   21D7 12                 8572 	ld	(de),a
                           8573 ;	BANK2.c 44
                           8574 ;	genAssign
                           8575 ;	AOP_STK for _textNext_sloc6_1_0
   21D8 F8 04              8576 	lda	hl,4(sp)
   21DA 36 12              8577 	ld	(hl),#0x12
   21DC 23                 8578 	inc	hl
   21DD 36 FF              8579 	ld	(hl),#0xFF
                           8580 ;	genAssign (pointer)
                           8581 ;	AOP_STK for _textNext_sloc6_1_0
   21DF 2B                 8582 	dec	hl
   21E0 5E                 8583 	ld	e,(hl)
   21E1 23                 8584 	inc	hl
   21E2 56                 8585 	ld	d,(hl)
   21E3 3E 41              8586 	ld	a,#0x41
   21E5 12                 8587 	ld	(de),a
                           8588 ;	BANK2.c 45
                           8589 ;	genAssign
                           8590 ;	AOP_STK for _textNext_sloc7_1_0
   21E6 F8 02              8591 	lda	hl,2(sp)
   21E8 36 13              8592 	ld	(hl),#0x13
   21EA 23                 8593 	inc	hl
   21EB 36 FF              8594 	ld	(hl),#0xFF
                           8595 ;	genAssign (pointer)
                           8596 ;	AOP_STK for _textNext_sloc7_1_0
   21ED 2B                 8597 	dec	hl
   21EE 5E                 8598 	ld	e,(hl)
   21EF 23                 8599 	inc	hl
   21F0 56                 8600 	ld	d,(hl)
   21F1 3E 00              8601 	ld	a,#0x00
   21F3 12                 8602 	ld	(de),a
                           8603 ;	BANK2.c 46
                           8604 ;	genAssign
                           8605 ;	AOP_STK for _textNext_sloc8_1_0
   21F4 F8 00              8606 	lda	hl,0(sp)
   21F6 36 14              8607 	ld	(hl),#0x14
   21F8 23                 8608 	inc	hl
   21F9 36 FF              8609 	ld	(hl),#0xFF
                           8610 ;	genAssign (pointer)
                           8611 ;	AOP_STK for _textNext_sloc8_1_0
   21FB 2B                 8612 	dec	hl
   21FC 5E                 8613 	ld	e,(hl)
   21FD 23                 8614 	inc	hl
   21FE 56                 8615 	ld	d,(hl)
   21FF 3E 8A              8616 	ld	a,#0x8A
   2201 12                 8617 	ld	(de),a
                           8618 ;	genGoto
   2202 C3 44 21           8619 	jp	00103$
                           8620 ;	genLabel
   2205                    8621 00105$:
                           8622 ;	BANK2.c 49
                           8623 ;	genAssign
                           8624 ;	AOP_STK for _textNext_delayVerifA_1_1
   2205 F8 12              8625 	lda	hl,18(sp)
   2207 36 00              8626 	ld	(hl),#0x00
   2209 23                 8627 	inc	hl
   220A 36 00              8628 	ld	(hl),#0x00
                           8629 ;	BANK2.c 50
                           8630 ;	genIpush
                           8631 ; _saveRegsForCall: sendSetSize: 0 deInUse: 0 bcInUse: 0 deSending: 0
   220C 21 C8 C8           8632 	ld	hl,#0xC8C8
   220F E5                 8633 	push	hl
                           8634 ;	genIpush
   2210 3E 00              8635 	ld	a,#0x00
   2212 F5                 8636 	push	af
   2213 33                 8637 	inc	sp
                           8638 ;	genCall
   2214 CD 00 00           8639 	call	_move_sprite
   2217 E8 03              8640 	lda	sp,3(sp)
                           8641 ;	BANK2.c 51
                           8642 ;	genLabel
   2219                    8643 00108$:
                           8644 ;	genCmpEq
                           8645 ;	AOP_STK for _textNext_delayVerifA_1_1
                           8646 ; genCmpEq: left 2, right 2, result 1
   2219 F8 12              8647 	lda	hl,18(sp)
   221B 7E                 8648 	ld	a,(hl)
   221C FE A0              8649 	cp	a,#0xA0
   221E C2 2C 22           8650 	jp	nz,00130$
   2221 23                 8651 	inc	hl
   2222 7E                 8652 	ld	a,(hl)
   2223 FE 0F              8653 	cp	a,#0x0F
   2225 C2 2C 22           8654 	jp	nz,00130$
   2228 3E 01              8655 	ld	a,#0x01
   222A 18 01              8656 	jr	00131$
   222C                    8657 00130$:
   222C AF                 8658 	xor	a,a
   222D                    8659 00131$:
                           8660 ;	genIfx
   222D B7                 8661 	or	a,a
   222E C2 CE 22           8662 	jp	nz,00110$
                           8663 ;	BANK2.c 52
                           8664 ;	genPlus
                           8665 ;	AOP_STK for _textNext_delayVerifA_1_1
                           8666 ;	genPlusIncr
   2231 F8 12              8667 	lda	hl,18(sp)
   2233 4E                 8668 	ld	c,(hl)
   2234 23                 8669 	inc	hl
   2235 46                 8670 	ld	b,(hl)
   2236 03                 8671 	inc	bc
                           8672 ;	genAssign
                           8673 ;	AOP_STK for _textNext_delayVerifA_1_1
   2237 2B                 8674 	dec	hl
   2238 71                 8675 	ld	(hl),c
   2239 23                 8676 	inc	hl
   223A 70                 8677 	ld	(hl),b
                           8678 ;	BANK2.c 53
                           8679 ;	genCall
                           8680 ; _saveRegsForCall: sendSetSize: 0 deInUse: 0 bcInUse: 1 deSending: 0
   223B C5                 8681 	push	bc
   223C CD 00 00           8682 	call	_joypad
                           8683 ;	AOP_STK for _textNext_sloc8_1_0
   223F F8 02              8684 	lda	hl,2(sp)
   2241 73                 8685 	ld	(hl),e
   2242 C1                 8686 	pop	bc
                           8687 ;	genCmpEq
                           8688 ;	AOP_STK for _textNext_sloc8_1_0
                           8689 ; genCmpEq: left 1, right 1, result 1
   2243 F8 00              8690 	lda	hl,0(sp)
   2245 7E                 8691 	ld	a,(hl)
   2246 FE 10              8692 	cp	a,#0x10
   2248 C2 4F 22           8693 	jp	nz,00132$
   224B 3E 01              8694 	ld	a,#0x01
   224D 18 01              8695 	jr	00133$
   224F                    8696 00132$:
   224F AF                 8697 	xor	a,a
   2250                    8698 00133$:
                           8699 ;	genIfx
   2250 B7                 8700 	or	a,a
   2251 CA 19 22           8701 	jp	z,00108$
                           8702 ;	BANK2.c 54
                           8703 ;	genAssign
                           8704 ;	AOP_STK for _textNext_A_PressedA_1_1
   2254 F8 14              8705 	lda	hl,20(sp)
   2256 36 01              8706 	ld	(hl),#0x01
   2258 23                 8707 	inc	hl
   2259 36 00              8708 	ld	(hl),#0x00
                           8709 ;	BANK2.c 55
                           8710 ;	genAssign
                           8711 ;	AOP_STK for _textNext_delayVerifA_1_1
   225B F8 12              8712 	lda	hl,18(sp)
   225D 36 A0              8713 	ld	(hl),#0xA0
   225F 23                 8714 	inc	hl
   2260 36 0F              8715 	ld	(hl),#0x0F
                           8716 ;	BANK2.c 56
                           8717 ;	genAssign
                           8718 ;	AOP_STK for _textNext_sloc7_1_0
   2262 F8 02              8719 	lda	hl,2(sp)
   2264 36 26              8720 	ld	(hl),#0x26
   2266 23                 8721 	inc	hl
   2267 36 FF              8722 	ld	(hl),#0xFF
                           8723 ;	genAssign (pointer)
                           8724 ;	AOP_STK for _textNext_sloc7_1_0
   2269 2B                 8725 	dec	hl
   226A 5E                 8726 	ld	e,(hl)
   226B 23                 8727 	inc	hl
   226C 56                 8728 	ld	d,(hl)
   226D 3E 80              8729 	ld	a,#0x80
   226F 12                 8730 	ld	(de),a
                           8731 ;	BANK2.c 57
                           8732 ;	genAssign
                           8733 ;	AOP_STK for _textNext_sloc6_1_0
   2270 23                 8734 	inc	hl
   2271 36 25              8735 	ld	(hl),#0x25
   2273 23                 8736 	inc	hl
   2274 36 FF              8737 	ld	(hl),#0xFF
                           8738 ;	genAssign (pointer)
                           8739 ;	AOP_STK for _textNext_sloc6_1_0
   2276 2B                 8740 	dec	hl
   2277 5E                 8741 	ld	e,(hl)
   2278 23                 8742 	inc	hl
   2279 56                 8743 	ld	d,(hl)
   227A 3E 11              8744 	ld	a,#0x11
   227C 12                 8745 	ld	(de),a
                           8746 ;	BANK2.c 58
                           8747 ;	genAssign
                           8748 ;	AOP_STK for _textNext_sloc5_1_0
   227D 23                 8749 	inc	hl
   227E 36 24              8750 	ld	(hl),#0x24
   2280 23                 8751 	inc	hl
   2281 36 FF              8752 	ld	(hl),#0xFF
                           8753 ;	genAssign (pointer)
                           8754 ;	AOP_STK for _textNext_sloc5_1_0
   2283 2B                 8755 	dec	hl
   2284 5E                 8756 	ld	e,(hl)
   2285 23                 8757 	inc	hl
   2286 56                 8758 	ld	d,(hl)
   2287 3E 55              8759 	ld	a,#0x55
   2289 12                 8760 	ld	(de),a
                           8761 ;	BANK2.c 60
                           8762 ;	genAssign
                           8763 ;	AOP_STK for _textNext_sloc4_1_0
   228A 23                 8764 	inc	hl
   228B 36 10              8765 	ld	(hl),#0x10
   228D 23                 8766 	inc	hl
   228E 36 FF              8767 	ld	(hl),#0xFF
                           8768 ;	genAssign (pointer)
                           8769 ;	AOP_STK for _textNext_sloc4_1_0
   2290 2B                 8770 	dec	hl
   2291 5E                 8771 	ld	e,(hl)
   2292 23                 8772 	inc	hl
   2293 56                 8773 	ld	d,(hl)
   2294 3E 09              8774 	ld	a,#0x09
   2296 12                 8775 	ld	(de),a
                           8776 ;	BANK2.c 61
                           8777 ;	genAssign
                           8778 ;	AOP_STK for _textNext_sloc3_1_0
   2297 23                 8779 	inc	hl
   2298 36 11              8780 	ld	(hl),#0x11
   229A 23                 8781 	inc	hl
   229B 36 FF              8782 	ld	(hl),#0xFF
                           8783 ;	genAssign (pointer)
                           8784 ;	AOP_STK for _textNext_sloc3_1_0
   229D 2B                 8785 	dec	hl
   229E 5E                 8786 	ld	e,(hl)
   229F 23                 8787 	inc	hl
   22A0 56                 8788 	ld	d,(hl)
   22A1 3E 09              8789 	ld	a,#0x09
   22A3 12                 8790 	ld	(de),a
                           8791 ;	BANK2.c 62
                           8792 ;	genAssign
                           8793 ;	AOP_STK for _textNext_sloc2_1_0
   22A4 23                 8794 	inc	hl
   22A5 36 12              8795 	ld	(hl),#0x12
   22A7 23                 8796 	inc	hl
   22A8 36 FF              8797 	ld	(hl),#0xFF
                           8798 ;	genAssign (pointer)
                           8799 ;	AOP_STK for _textNext_sloc2_1_0
   22AA 2B                 8800 	dec	hl
   22AB 5E                 8801 	ld	e,(hl)
   22AC 23                 8802 	inc	hl
   22AD 56                 8803 	ld	d,(hl)
   22AE 3E 41              8804 	ld	a,#0x41
   22B0 12                 8805 	ld	(de),a
                           8806 ;	BANK2.c 63
                           8807 ;	genAssign
                           8808 ;	AOP_STK for _textNext_sloc1_1_0
   22B1 23                 8809 	inc	hl
   22B2 36 13              8810 	ld	(hl),#0x13
   22B4 23                 8811 	inc	hl
   22B5 36 FF              8812 	ld	(hl),#0xFF
                           8813 ;	genAssign (pointer)
                           8814 ;	AOP_STK for _textNext_sloc1_1_0
   22B7 2B                 8815 	dec	hl
   22B8 5E                 8816 	ld	e,(hl)
   22B9 23                 8817 	inc	hl
   22BA 56                 8818 	ld	d,(hl)
   22BB 3E 00              8819 	ld	a,#0x00
   22BD 12                 8820 	ld	(de),a
                           8821 ;	BANK2.c 64
                           8822 ;	genAssign
                           8823 ;	AOP_STK for _textNext_sloc0_1_0
   22BE 23                 8824 	inc	hl
   22BF 36 14              8825 	ld	(hl),#0x14
   22C1 23                 8826 	inc	hl
   22C2 36 FF              8827 	ld	(hl),#0xFF
                           8828 ;	genAssign (pointer)
                           8829 ;	AOP_STK for _textNext_sloc0_1_0
   22C4 2B                 8830 	dec	hl
   22C5 5E                 8831 	ld	e,(hl)
   22C6 23                 8832 	inc	hl
   22C7 56                 8833 	ld	d,(hl)
   22C8 3E 8A              8834 	ld	a,#0x8A
   22CA 12                 8835 	ld	(de),a
                           8836 ;	genGoto
   22CB C3 19 22           8837 	jp	00108$
                           8838 ;	genLabel
   22CE                    8839 00110$:
                           8840 ;	BANK2.c 67
                           8841 ;	genAssign
                           8842 ;	AOP_STK for _textNext_delayVerifA_1_1
   22CE F8 12              8843 	lda	hl,18(sp)
   22D0 36 00              8844 	ld	(hl),#0x00
   22D2 23                 8845 	inc	hl
   22D3 36 00              8846 	ld	(hl),#0x00
                           8847 ;	genGoto
   22D5 C3 2B 21           8848 	jp	00111$
                           8849 ;	genLabel
   22D8                    8850 00114$:
                           8851 ;	genEndFunction
   22D8 E8 16              8852 	lda	sp,22(sp)
   22DA C9                 8853 	ret
   22DB                    8854 ___textNext_end:
                           8855 ;	BANK2.c 75
                           8856 ;	genLabel
                           8857 ;	genFunction
                           8858 ;	---------------------------------
                           8859 ; Function Intro
                           8860 ; ---------------------------------
   22DB                    8861 ___Intro_start:
   22DB                    8862 _Intro:
   22DB E8 ED              8863 	lda	sp,-19(sp)
                           8864 ;	BANK2.c 79
                           8865 ;	genCall
                           8866 ; _saveRegsForCall: sendSetSize: 0 deInUse: 0 bcInUse: 0 deSending: 0
   22DD CD 00 00           8867 	call	_wait_vbl_done
                           8868 ;	BANK2.c 80
                           8869 ;	genCall
                           8870 ; _saveRegsForCall: sendSetSize: 0 deInUse: 0 bcInUse: 0 deSending: 0
   22E0 CD 00 00           8871 	call	_display_off
                           8872 ;	BANK2.c 81
                           8873 ;	genIpush
                           8874 ; _saveRegsForCall: sendSetSize: 0 deInUse: 0 bcInUse: 0 deSending: 0
   22E3 21 3A 06           8875 	ld	hl,#_TitleScreenTiles
   22E6 E5                 8876 	push	hl
                           8877 ;	genIpush
   22E7 21 00 DB           8878 	ld	hl,#0xDB00
   22EA E5                 8879 	push	hl
                           8880 ;	genCall
   22EB CD 00 00           8881 	call	_set_bkg_data
   22EE E8 04              8882 	lda	sp,4(sp)
                           8883 ;	BANK2.c 82
                           8884 ;	genIpush
                           8885 ; _saveRegsForCall: sendSetSize: 0 deInUse: 0 bcInUse: 0 deSending: 0
   22F0 21 EA 13           8886 	ld	hl,#_TitleScreenMap
   22F3 E5                 8887 	push	hl
                           8888 ;	genIpush
   22F4 21 14 12           8889 	ld	hl,#0x1214
   22F7 E5                 8890 	push	hl
                           8891 ;	genIpush
   22F8 21 00 00           8892 	ld	hl,#0x0000
   22FB E5                 8893 	push	hl
                           8894 ;	genCall
   22FC CD 00 00           8895 	call	_set_bkg_tiles
   22FF E8 06              8896 	lda	sp,6(sp)
                           8897 ;	BANK2.c 83
                           8898 ;	genAssign
   2301 01 40 FF           8899 	ld	bc,#0xFF40
                           8900 ;	genAssign
                           8901 ;	AOP_STK for _Intro_sloc0_1_0
   2304 F8 11              8902 	lda	hl,17(sp)
   2306 36 40              8903 	ld	(hl),#0x40
   2308 23                 8904 	inc	hl
   2309 36 FF              8905 	ld	(hl),#0xFF
                           8906 ;	genPointerGet
                           8907 ;	AOP_STK for _Intro_sloc0_1_0
                           8908 ;	AOP_STK for _Intro_sloc1_1_0
   230B 2B                 8909 	dec	hl
   230C 5E                 8910 	ld	e,(hl)
   230D 23                 8911 	inc	hl
   230E 56                 8912 	ld	d,(hl)
   230F 1A                 8913 	ld	a,(de)
   2310 2B                 8914 	dec	hl
   2311 2B                 8915 	dec	hl
                           8916 ;	genOr
                           8917 ;	AOP_STK for _Intro_sloc1_1_0
   2312 77                 8918 	ld      (hl),a
                           8919 ; Removed redundent load
   2313 F6 01              8920 	or	a,#0x01
                           8921 ;	genAssign (pointer)
   2315 02                 8922 	ld	(bc),a
                           8923 ;	BANK2.c 85
                           8924 ;	genAssign
   2316 01 40 FF           8925 	ld	bc,#0xFF40
                           8926 ;	genAssign
                           8927 ;	AOP_STK for _Intro_sloc0_1_0
   2319 23                 8928 	inc	hl
   231A 36 40              8929 	ld	(hl),#0x40
   231C 23                 8930 	inc	hl
   231D 36 FF              8931 	ld	(hl),#0xFF
                           8932 ;	genPointerGet
                           8933 ;	AOP_STK for _Intro_sloc0_1_0
                           8934 ;	AOP_STK for _Intro_sloc1_1_0
   231F 2B                 8935 	dec	hl
   2320 5E                 8936 	ld	e,(hl)
   2321 23                 8937 	inc	hl
   2322 56                 8938 	ld	d,(hl)
   2323 1A                 8939 	ld	a,(de)
   2324 2B                 8940 	dec	hl
   2325 2B                 8941 	dec	hl
                           8942 ;	genAnd
                           8943 ;	AOP_STK for _Intro_sloc1_1_0
   2326 77                 8944 	ld      (hl),a
                           8945 ; Removed redundent load
   2327 E6 FB              8946 	and	a,#0xFB
                           8947 ;	genAssign (pointer)
   2329 02                 8948 	ld	(bc),a
                           8949 ;	BANK2.c 86
                           8950 ;	genIpush
                           8951 ; _saveRegsForCall: sendSetSize: 0 deInUse: 0 bcInUse: 0 deSending: 0
   232A 21 52 15           8952 	ld	hl,#_PressStart
   232D E5                 8953 	push	hl
                           8954 ;	genIpush
   232E 21 00 0A           8955 	ld	hl,#0x0A00
   2331 E5                 8956 	push	hl
                           8957 ;	genCall
   2332 CD 00 00           8958 	call	_set_sprite_data
   2335 E8 04              8959 	lda	sp,4(sp)
                           8960 ;	BANK2.c 88
                           8961 ;	genAssign
                           8962 ;	AOP_HL for _tileInc
   2337 21 00 00           8963 	ld	hl,#_tileInc
   233A 36 00              8964 	ld	(hl),#0x00
   233C 23                 8965 	inc	hl
   233D 36 00              8966 	ld	(hl),#0x00
                           8967 ;	genLabel
   233F                    8968 00116$:
                           8969 ;	genCmpGt
                           8970 ;	AOP_HL for _tileInc
   233F 1E 80              8971 	ld	e,#0x80
   2341 21 01 00           8972 	ld	hl,#_tileInc + 1
   2344 7E                 8973 	ld	a,(hl)
   2345 EE 80              8974 	xor	a,#0x80
   2347 57                 8975 	ld	d,a
   2348 3E 09              8976 	ld	a,#0x09
   234A 2B                 8977 	dec	hl
   234B 96                 8978 	sub	a,(hl)
   234C 7B                 8979 	ld	a,e
   234D 9A                 8980 	sbc	a,d
   234E DA 68 23           8981 	jp	c,00119$
                           8982 ;	BANK2.c 89
                           8983 ;	genCast
                           8984 ;	AOP_HL for _tileInc
   2351 4E                 8985 	ld	c,(hl)
                           8986 ;	genIpush
                           8987 ; _saveRegsForCall: sendSetSize: 0 deInUse: 0 bcInUse: 0 deSending: 0
   2352 79                 8988 	ld	a,c
   2353 F5                 8989 	push	af
   2354 33                 8990 	inc	sp
                           8991 ;	genIpush
   2355 79                 8992 	ld	a,c
   2356 F5                 8993 	push	af
   2357 33                 8994 	inc	sp
                           8995 ;	genCall
   2358 CD 00 00           8996 	call	_set_sprite_tile
   235B E8 02              8997 	lda	sp,2(sp)
                           8998 ;	BANK2.c 88
                           8999 ;	genPlus
                           9000 ;	AOP_HL for _tileInc
                           9001 ;	genPlusIncr
   235D 21 00 00           9002 	ld	hl,#_tileInc
   2360 34                 9003 	inc	(hl)
   2361 20 02              9004 	jr	nz,00145$
   2363 23                 9005 	inc	hl
   2364 34                 9006 	inc	(hl)
   2365                    9007 00145$:
                           9008 ;	genGoto
   2365 C3 3F 23           9009 	jp	00116$
                           9010 ;	genLabel
   2368                    9011 00119$:
                           9012 ;	BANK2.c 92
                           9013 ;	genIpush
                           9014 ; _saveRegsForCall: sendSetSize: 0 deInUse: 0 bcInUse: 0 deSending: 0
   2368 21 2D 6E           9015 	ld	hl,#0x6E2D
   236B E5                 9016 	push	hl
                           9017 ;	genIpush
   236C 3E 00              9018 	ld	a,#0x00
   236E F5                 9019 	push	af
   236F 33                 9020 	inc	sp
                           9021 ;	genCall
   2370 CD 00 00           9022 	call	_move_sprite
   2373 E8 03              9023 	lda	sp,3(sp)
                           9024 ;	BANK2.c 93
                           9025 ;	genIpush
                           9026 ; _saveRegsForCall: sendSetSize: 0 deInUse: 0 bcInUse: 0 deSending: 0
   2375 21 35 6E           9027 	ld	hl,#0x6E35
   2378 E5                 9028 	push	hl
                           9029 ;	genIpush
   2379 3E 01              9030 	ld	a,#0x01
   237B F5                 9031 	push	af
   237C 33                 9032 	inc	sp
                           9033 ;	genCall
   237D CD 00 00           9034 	call	_move_sprite
   2380 E8 03              9035 	lda	sp,3(sp)
                           9036 ;	BANK2.c 94
                           9037 ;	genIpush
                           9038 ; _saveRegsForCall: sendSetSize: 0 deInUse: 0 bcInUse: 0 deSending: 0
   2382 21 3D 6E           9039 	ld	hl,#0x6E3D
   2385 E5                 9040 	push	hl
                           9041 ;	genIpush
   2386 3E 02              9042 	ld	a,#0x02
   2388 F5                 9043 	push	af
   2389 33                 9044 	inc	sp
                           9045 ;	genCall
   238A CD 00 00           9046 	call	_move_sprite
   238D E8 03              9047 	lda	sp,3(sp)
                           9048 ;	BANK2.c 95
                           9049 ;	genIpush
                           9050 ; _saveRegsForCall: sendSetSize: 0 deInUse: 0 bcInUse: 0 deSending: 0
   238F 21 45 6E           9051 	ld	hl,#0x6E45
   2392 E5                 9052 	push	hl
                           9053 ;	genIpush
   2393 3E 03              9054 	ld	a,#0x03
   2395 F5                 9055 	push	af
   2396 33                 9056 	inc	sp
                           9057 ;	genCall
   2397 CD 00 00           9058 	call	_move_sprite
   239A E8 03              9059 	lda	sp,3(sp)
                           9060 ;	BANK2.c 96
                           9061 ;	genIpush
                           9062 ; _saveRegsForCall: sendSetSize: 0 deInUse: 0 bcInUse: 0 deSending: 0
   239C 21 4D 6E           9063 	ld	hl,#0x6E4D
   239F E5                 9064 	push	hl
                           9065 ;	genIpush
   23A0 3E 04              9066 	ld	a,#0x04
   23A2 F5                 9067 	push	af
   23A3 33                 9068 	inc	sp
                           9069 ;	genCall
   23A4 CD 00 00           9070 	call	_move_sprite
   23A7 E8 03              9071 	lda	sp,3(sp)
                           9072 ;	BANK2.c 97
                           9073 ;	genIpush
                           9074 ; _saveRegsForCall: sendSetSize: 0 deInUse: 0 bcInUse: 0 deSending: 0
   23A9 21 5D 6E           9075 	ld	hl,#0x6E5D
   23AC E5                 9076 	push	hl
                           9077 ;	genIpush
   23AD 3E 05              9078 	ld	a,#0x05
   23AF F5                 9079 	push	af
   23B0 33                 9080 	inc	sp
                           9081 ;	genCall
   23B1 CD 00 00           9082 	call	_move_sprite
   23B4 E8 03              9083 	lda	sp,3(sp)
                           9084 ;	BANK2.c 98
                           9085 ;	genIpush
                           9086 ; _saveRegsForCall: sendSetSize: 0 deInUse: 0 bcInUse: 0 deSending: 0
   23B6 21 65 6E           9087 	ld	hl,#0x6E65
   23B9 E5                 9088 	push	hl
                           9089 ;	genIpush
   23BA 3E 06              9090 	ld	a,#0x06
   23BC F5                 9091 	push	af
   23BD 33                 9092 	inc	sp
                           9093 ;	genCall
   23BE CD 00 00           9094 	call	_move_sprite
   23C1 E8 03              9095 	lda	sp,3(sp)
                           9096 ;	BANK2.c 99
                           9097 ;	genIpush
                           9098 ; _saveRegsForCall: sendSetSize: 0 deInUse: 0 bcInUse: 0 deSending: 0
   23C3 21 6D 6E           9099 	ld	hl,#0x6E6D
   23C6 E5                 9100 	push	hl
                           9101 ;	genIpush
   23C7 3E 07              9102 	ld	a,#0x07
   23C9 F5                 9103 	push	af
   23CA 33                 9104 	inc	sp
                           9105 ;	genCall
   23CB CD 00 00           9106 	call	_move_sprite
   23CE E8 03              9107 	lda	sp,3(sp)
                           9108 ;	BANK2.c 100
                           9109 ;	genIpush
                           9110 ; _saveRegsForCall: sendSetSize: 0 deInUse: 0 bcInUse: 0 deSending: 0
   23D0 21 75 6E           9111 	ld	hl,#0x6E75
   23D3 E5                 9112 	push	hl
                           9113 ;	genIpush
   23D4 3E 08              9114 	ld	a,#0x08
   23D6 F5                 9115 	push	af
   23D7 33                 9116 	inc	sp
                           9117 ;	genCall
   23D8 CD 00 00           9118 	call	_move_sprite
   23DB E8 03              9119 	lda	sp,3(sp)
                           9120 ;	BANK2.c 101
                           9121 ;	genIpush
                           9122 ; _saveRegsForCall: sendSetSize: 0 deInUse: 0 bcInUse: 0 deSending: 0
   23DD 21 7D 6E           9123 	ld	hl,#0x6E7D
   23E0 E5                 9124 	push	hl
                           9125 ;	genIpush
   23E1 3E 09              9126 	ld	a,#0x09
   23E3 F5                 9127 	push	af
   23E4 33                 9128 	inc	sp
                           9129 ;	genCall
   23E5 CD 00 00           9130 	call	_move_sprite
   23E8 E8 03              9131 	lda	sp,3(sp)
                           9132 ;	BANK2.c 103
                           9133 ;	genIpush
                           9134 ; _saveRegsForCall: sendSetSize: 0 deInUse: 0 bcInUse: 0 deSending: 0
   23EA 21 F2 15           9135 	ld	hl,#_By
   23ED E5                 9136 	push	hl
                           9137 ;	genIpush
   23EE 21 0A 10           9138 	ld	hl,#0x100A
   23F1 E5                 9139 	push	hl
                           9140 ;	genCall
   23F2 CD 00 00           9141 	call	_set_sprite_data
   23F5 E8 04              9142 	lda	sp,4(sp)
                           9143 ;	BANK2.c 105
                           9144 ;	genAssign
                           9145 ;	AOP_HL for _tileInc
   23F7 21 00 00           9146 	ld	hl,#_tileInc
   23FA 36 0A              9147 	ld	(hl),#0x0A
   23FC 23                 9148 	inc	hl
   23FD 36 00              9149 	ld	(hl),#0x00
                           9150 ;	genLabel
   23FF                    9151 00120$:
                           9152 ;	genCmpGt
                           9153 ;	AOP_HL for _tileInc
   23FF 1E 80              9154 	ld	e,#0x80
   2401 21 01 00           9155 	ld	hl,#_tileInc + 1
   2404 7E                 9156 	ld	a,(hl)
   2405 EE 80              9157 	xor	a,#0x80
   2407 57                 9158 	ld	d,a
   2408 3E 19              9159 	ld	a,#0x19
   240A 2B                 9160 	dec	hl
   240B 96                 9161 	sub	a,(hl)
   240C 7B                 9162 	ld	a,e
   240D 9A                 9163 	sbc	a,d
   240E DA 28 24           9164 	jp	c,00123$
                           9165 ;	BANK2.c 106
                           9166 ;	genCast
                           9167 ;	AOP_HL for _tileInc
   2411 4E                 9168 	ld	c,(hl)
                           9169 ;	genIpush
                           9170 ; _saveRegsForCall: sendSetSize: 0 deInUse: 0 bcInUse: 0 deSending: 0
   2412 79                 9171 	ld	a,c
   2413 F5                 9172 	push	af
   2414 33                 9173 	inc	sp
                           9174 ;	genIpush
   2415 79                 9175 	ld	a,c
   2416 F5                 9176 	push	af
   2417 33                 9177 	inc	sp
                           9178 ;	genCall
   2418 CD 00 00           9179 	call	_set_sprite_tile
   241B E8 02              9180 	lda	sp,2(sp)
                           9181 ;	BANK2.c 105
                           9182 ;	genPlus
                           9183 ;	AOP_HL for _tileInc
                           9184 ;	genPlusIncr
   241D 21 00 00           9185 	ld	hl,#_tileInc
   2420 34                 9186 	inc	(hl)
   2421 20 02              9187 	jr	nz,00146$
   2423 23                 9188 	inc	hl
   2424 34                 9189 	inc	(hl)
   2425                    9190 00146$:
                           9191 ;	genGoto
   2425 C3 FF 23           9192 	jp	00120$
                           9193 ;	genLabel
   2428                    9194 00123$:
                           9195 ;	BANK2.c 109
                           9196 ;	genIpush
                           9197 ; _saveRegsForCall: sendSetSize: 0 deInUse: 0 bcInUse: 0 deSending: 0
   2428 21 08 90           9198 	ld	hl,#0x9008
   242B E5                 9199 	push	hl
                           9200 ;	genIpush
   242C 3E 0A              9201 	ld	a,#0x0A
   242E F5                 9202 	push	af
   242F 33                 9203 	inc	sp
                           9204 ;	genCall
   2430 CD 00 00           9205 	call	_move_sprite
   2433 E8 03              9206 	lda	sp,3(sp)
                           9207 ;	BANK2.c 110
                           9208 ;	genIpush
                           9209 ; _saveRegsForCall: sendSetSize: 0 deInUse: 0 bcInUse: 0 deSending: 0
   2435 21 10 90           9210 	ld	hl,#0x9010
   2438 E5                 9211 	push	hl
                           9212 ;	genIpush
   2439 3E 0B              9213 	ld	a,#0x0B
   243B F5                 9214 	push	af
   243C 33                 9215 	inc	sp
                           9216 ;	genCall
   243D CD 00 00           9217 	call	_move_sprite
   2440 E8 03              9218 	lda	sp,3(sp)
                           9219 ;	BANK2.c 111
                           9220 ;	genIpush
                           9221 ; _saveRegsForCall: sendSetSize: 0 deInUse: 0 bcInUse: 0 deSending: 0
   2442 21 18 90           9222 	ld	hl,#0x9018
   2445 E5                 9223 	push	hl
                           9224 ;	genIpush
   2446 3E 0C              9225 	ld	a,#0x0C
   2448 F5                 9226 	push	af
   2449 33                 9227 	inc	sp
                           9228 ;	genCall
   244A CD 00 00           9229 	call	_move_sprite
   244D E8 03              9230 	lda	sp,3(sp)
                           9231 ;	BANK2.c 112
                           9232 ;	genIpush
                           9233 ; _saveRegsForCall: sendSetSize: 0 deInUse: 0 bcInUse: 0 deSending: 0
   244F 21 20 90           9234 	ld	hl,#0x9020
   2452 E5                 9235 	push	hl
                           9236 ;	genIpush
   2453 3E 0D              9237 	ld	a,#0x0D
   2455 F5                 9238 	push	af
   2456 33                 9239 	inc	sp
                           9240 ;	genCall
   2457 CD 00 00           9241 	call	_move_sprite
   245A E8 03              9242 	lda	sp,3(sp)
                           9243 ;	BANK2.c 113
                           9244 ;	genIpush
                           9245 ; _saveRegsForCall: sendSetSize: 0 deInUse: 0 bcInUse: 0 deSending: 0
   245C 21 78 90           9246 	ld	hl,#0x9078
   245F E5                 9247 	push	hl
                           9248 ;	genIpush
   2460 3E 14              9249 	ld	a,#0x14
   2462 F5                 9250 	push	af
   2463 33                 9251 	inc	sp
                           9252 ;	genCall
   2464 CD 00 00           9253 	call	_move_sprite
   2467 E8 03              9254 	lda	sp,3(sp)
                           9255 ;	BANK2.c 114
                           9256 ;	genIpush
                           9257 ; _saveRegsForCall: sendSetSize: 0 deInUse: 0 bcInUse: 0 deSending: 0
   2469 21 80 90           9258 	ld	hl,#0x9080
   246C E5                 9259 	push	hl
                           9260 ;	genIpush
   246D 3E 15              9261 	ld	a,#0x15
   246F F5                 9262 	push	af
   2470 33                 9263 	inc	sp
                           9264 ;	genCall
   2471 CD 00 00           9265 	call	_move_sprite
   2474 E8 03              9266 	lda	sp,3(sp)
                           9267 ;	BANK2.c 115
                           9268 ;	genIpush
                           9269 ; _saveRegsForCall: sendSetSize: 0 deInUse: 0 bcInUse: 0 deSending: 0
   2476 21 88 90           9270 	ld	hl,#0x9088
   2479 E5                 9271 	push	hl
                           9272 ;	genIpush
   247A 3E 16              9273 	ld	a,#0x16
   247C F5                 9274 	push	af
   247D 33                 9275 	inc	sp
                           9276 ;	genCall
   247E CD 00 00           9277 	call	_move_sprite
   2481 E8 03              9278 	lda	sp,3(sp)
                           9279 ;	BANK2.c 116
                           9280 ;	genIpush
                           9281 ; _saveRegsForCall: sendSetSize: 0 deInUse: 0 bcInUse: 0 deSending: 0
   2483 21 90 90           9282 	ld	hl,#0x9090
   2486 E5                 9283 	push	hl
                           9284 ;	genIpush
   2487 3E 17              9285 	ld	a,#0x17
   2489 F5                 9286 	push	af
   248A 33                 9287 	inc	sp
                           9288 ;	genCall
   248B CD 00 00           9289 	call	_move_sprite
   248E E8 03              9290 	lda	sp,3(sp)
                           9291 ;	BANK2.c 117
                           9292 ;	genIpush
                           9293 ; _saveRegsForCall: sendSetSize: 0 deInUse: 0 bcInUse: 0 deSending: 0
   2490 21 98 90           9294 	ld	hl,#0x9098
   2493 E5                 9295 	push	hl
                           9296 ;	genIpush
   2494 3E 18              9297 	ld	a,#0x18
   2496 F5                 9298 	push	af
   2497 33                 9299 	inc	sp
                           9300 ;	genCall
   2498 CD 00 00           9301 	call	_move_sprite
   249B E8 03              9302 	lda	sp,3(sp)
                           9303 ;	BANK2.c 118
                           9304 ;	genIpush
                           9305 ; _saveRegsForCall: sendSetSize: 0 deInUse: 0 bcInUse: 0 deSending: 0
   249D 21 A0 90           9306 	ld	hl,#0x90A0
   24A0 E5                 9307 	push	hl
                           9308 ;	genIpush
   24A1 3E 19              9309 	ld	a,#0x19
   24A3 F5                 9310 	push	af
   24A4 33                 9311 	inc	sp
                           9312 ;	genCall
   24A5 CD 00 00           9313 	call	_move_sprite
   24A8 E8 03              9314 	lda	sp,3(sp)
                           9315 ;	BANK2.c 120
                           9316 ;	genAssign
   24AA 01 40 FF           9317 	ld	bc,#0xFF40
                           9318 ;	genAssign
                           9319 ;	AOP_STK for _Intro_sloc0_1_0
   24AD F8 11              9320 	lda	hl,17(sp)
   24AF 36 40              9321 	ld	(hl),#0x40
   24B1 23                 9322 	inc	hl
   24B2 36 FF              9323 	ld	(hl),#0xFF
                           9324 ;	genPointerGet
                           9325 ;	AOP_STK for _Intro_sloc0_1_0
                           9326 ;	AOP_STK for _Intro_sloc1_1_0
   24B4 2B                 9327 	dec	hl
   24B5 5E                 9328 	ld	e,(hl)
   24B6 23                 9329 	inc	hl
   24B7 56                 9330 	ld	d,(hl)
   24B8 1A                 9331 	ld	a,(de)
   24B9 2B                 9332 	dec	hl
   24BA 2B                 9333 	dec	hl
                           9334 ;	genOr
                           9335 ;	AOP_STK for _Intro_sloc1_1_0
   24BB 77                 9336 	ld      (hl),a
                           9337 ; Removed redundent load
   24BC F6 02              9338 	or	a,#0x02
                           9339 ;	genAssign (pointer)
   24BE 02                 9340 	ld	(bc),a
                           9341 ;	BANK2.c 121
                           9342 ;	genCall
                           9343 ; _saveRegsForCall: sendSetSize: 0 deInUse: 0 bcInUse: 0 deSending: 0
   24BF CD 00 00           9344 	call	_wait_vbl_done
                           9345 ;	BANK2.c 122
                           9346 ;	genAssign
   24C2 01 40 FF           9347 	ld	bc,#0xFF40
                           9348 ;	genAssign
                           9349 ;	AOP_STK for _Intro_sloc0_1_0
   24C5 F8 11              9350 	lda	hl,17(sp)
   24C7 36 40              9351 	ld	(hl),#0x40
   24C9 23                 9352 	inc	hl
   24CA 36 FF              9353 	ld	(hl),#0xFF
                           9354 ;	genPointerGet
                           9355 ;	AOP_STK for _Intro_sloc0_1_0
                           9356 ;	AOP_STK for _Intro_sloc1_1_0
   24CC 2B                 9357 	dec	hl
   24CD 5E                 9358 	ld	e,(hl)
   24CE 23                 9359 	inc	hl
   24CF 56                 9360 	ld	d,(hl)
   24D0 1A                 9361 	ld	a,(de)
   24D1 2B                 9362 	dec	hl
   24D2 2B                 9363 	dec	hl
                           9364 ;	genOr
                           9365 ;	AOP_STK for _Intro_sloc1_1_0
   24D3 77                 9366 	ld      (hl),a
                           9367 ; Removed redundent load
   24D4 F6 80              9368 	or	a,#0x80
                           9369 ;	genAssign (pointer)
   24D6 02                 9370 	ld	(bc),a
                           9371 ;	BANK2.c 124
                           9372 ;	genLabel
   24D7                    9373 00111$:
                           9374 ;	genCmpEq
                           9375 ;	AOP_HL for _StartPressed
                           9376 ; genCmpEq: left 2, right 2, result 0
   24D7 21 00 00           9377 	ld	hl,#_StartPressed
   24DA 2A                 9378 	ld	a,(hl+)
   24DB B6                 9379 	or	a,(hl)
   24DC C2 76 27           9380 	jp	nz,00113$
   24DF 18 03              9381 	jr	00148$
   24E1                    9382 00147$:
   24E1 C3 76 27           9383 	jp	00113$
   24E4                    9384 00148$:
                           9385 ;	BANK2.c 126
                           9386 ;	genIpush
                           9387 ; _saveRegsForCall: sendSetSize: 0 deInUse: 0 bcInUse: 0 deSending: 0
   24E4 21 2D DC           9388 	ld	hl,#0xDC2D
   24E7 E5                 9389 	push	hl
                           9390 ;	genIpush
   24E8 3E 00              9391 	ld	a,#0x00
   24EA F5                 9392 	push	af
   24EB 33                 9393 	inc	sp
                           9394 ;	genCall
   24EC CD 00 00           9395 	call	_move_sprite
   24EF E8 03              9396 	lda	sp,3(sp)
                           9397 ;	BANK2.c 127
                           9398 ;	genIpush
                           9399 ; _saveRegsForCall: sendSetSize: 0 deInUse: 0 bcInUse: 0 deSending: 0
   24F1 21 35 DC           9400 	ld	hl,#0xDC35
   24F4 E5                 9401 	push	hl
                           9402 ;	genIpush
   24F5 3E 01              9403 	ld	a,#0x01
   24F7 F5                 9404 	push	af
   24F8 33                 9405 	inc	sp
                           9406 ;	genCall
   24F9 CD 00 00           9407 	call	_move_sprite
   24FC E8 03              9408 	lda	sp,3(sp)
                           9409 ;	BANK2.c 128
                           9410 ;	genIpush
                           9411 ; _saveRegsForCall: sendSetSize: 0 deInUse: 0 bcInUse: 0 deSending: 0
   24FE 21 3D DC           9412 	ld	hl,#0xDC3D
   2501 E5                 9413 	push	hl
                           9414 ;	genIpush
   2502 3E 02              9415 	ld	a,#0x02
   2504 F5                 9416 	push	af
   2505 33                 9417 	inc	sp
                           9418 ;	genCall
   2506 CD 00 00           9419 	call	_move_sprite
   2509 E8 03              9420 	lda	sp,3(sp)
                           9421 ;	BANK2.c 129
                           9422 ;	genIpush
                           9423 ; _saveRegsForCall: sendSetSize: 0 deInUse: 0 bcInUse: 0 deSending: 0
   250B 21 45 DC           9424 	ld	hl,#0xDC45
   250E E5                 9425 	push	hl
                           9426 ;	genIpush
   250F 3E 03              9427 	ld	a,#0x03
   2511 F5                 9428 	push	af
   2512 33                 9429 	inc	sp
                           9430 ;	genCall
   2513 CD 00 00           9431 	call	_move_sprite
   2516 E8 03              9432 	lda	sp,3(sp)
                           9433 ;	BANK2.c 130
                           9434 ;	genIpush
                           9435 ; _saveRegsForCall: sendSetSize: 0 deInUse: 0 bcInUse: 0 deSending: 0
   2518 21 4D DC           9436 	ld	hl,#0xDC4D
   251B E5                 9437 	push	hl
                           9438 ;	genIpush
   251C 3E 04              9439 	ld	a,#0x04
   251E F5                 9440 	push	af
   251F 33                 9441 	inc	sp
                           9442 ;	genCall
   2520 CD 00 00           9443 	call	_move_sprite
   2523 E8 03              9444 	lda	sp,3(sp)
                           9445 ;	BANK2.c 131
                           9446 ;	genIpush
                           9447 ; _saveRegsForCall: sendSetSize: 0 deInUse: 0 bcInUse: 0 deSending: 0
   2525 21 5D DC           9448 	ld	hl,#0xDC5D
   2528 E5                 9449 	push	hl
                           9450 ;	genIpush
   2529 3E 05              9451 	ld	a,#0x05
   252B F5                 9452 	push	af
   252C 33                 9453 	inc	sp
                           9454 ;	genCall
   252D CD 00 00           9455 	call	_move_sprite
   2530 E8 03              9456 	lda	sp,3(sp)
                           9457 ;	BANK2.c 132
                           9458 ;	genIpush
                           9459 ; _saveRegsForCall: sendSetSize: 0 deInUse: 0 bcInUse: 0 deSending: 0
   2532 21 65 DC           9460 	ld	hl,#0xDC65
   2535 E5                 9461 	push	hl
                           9462 ;	genIpush
   2536 3E 06              9463 	ld	a,#0x06
   2538 F5                 9464 	push	af
   2539 33                 9465 	inc	sp
                           9466 ;	genCall
   253A CD 00 00           9467 	call	_move_sprite
   253D E8 03              9468 	lda	sp,3(sp)
                           9469 ;	BANK2.c 133
                           9470 ;	genIpush
                           9471 ; _saveRegsForCall: sendSetSize: 0 deInUse: 0 bcInUse: 0 deSending: 0
   253F 21 6D DC           9472 	ld	hl,#0xDC6D
   2542 E5                 9473 	push	hl
                           9474 ;	genIpush
   2543 3E 07              9475 	ld	a,#0x07
   2545 F5                 9476 	push	af
   2546 33                 9477 	inc	sp
                           9478 ;	genCall
   2547 CD 00 00           9479 	call	_move_sprite
   254A E8 03              9480 	lda	sp,3(sp)
                           9481 ;	BANK2.c 134
                           9482 ;	genIpush
                           9483 ; _saveRegsForCall: sendSetSize: 0 deInUse: 0 bcInUse: 0 deSending: 0
   254C 21 75 DC           9484 	ld	hl,#0xDC75
   254F E5                 9485 	push	hl
                           9486 ;	genIpush
   2550 3E 08              9487 	ld	a,#0x08
   2552 F5                 9488 	push	af
   2553 33                 9489 	inc	sp
                           9490 ;	genCall
   2554 CD 00 00           9491 	call	_move_sprite
   2557 E8 03              9492 	lda	sp,3(sp)
                           9493 ;	BANK2.c 135
                           9494 ;	genIpush
                           9495 ; _saveRegsForCall: sendSetSize: 0 deInUse: 0 bcInUse: 0 deSending: 0
   2559 21 7D DC           9496 	ld	hl,#0xDC7D
   255C E5                 9497 	push	hl
                           9498 ;	genIpush
   255D 3E 09              9499 	ld	a,#0x09
   255F F5                 9500 	push	af
   2560 33                 9501 	inc	sp
                           9502 ;	genCall
   2561 CD 00 00           9503 	call	_move_sprite
   2564 E8 03              9504 	lda	sp,3(sp)
                           9505 ;	BANK2.c 136
                           9506 ;	genLabel
   2566                    9507 00103$:
                           9508 ;	genCmpEq
                           9509 ;	AOP_HL for _delayVerif
                           9510 ; genCmpEq: left 2, right 2, result 1
   2566 21 00 00           9511 	ld	hl,#_delayVerif
   2569 7E                 9512 	ld	a,(hl)
   256A FE A0              9513 	cp	a,#0xA0
   256C C2 7A 25           9514 	jp	nz,00149$
   256F 23                 9515 	inc	hl
   2570 7E                 9516 	ld	a,(hl)
   2571 FE 0F              9517 	cp	a,#0x0F
   2573 C2 7A 25           9518 	jp	nz,00149$
   2576 3E 01              9519 	ld	a,#0x01
   2578 18 01              9520 	jr	00150$
   257A                    9521 00149$:
   257A AF                 9522 	xor	a,a
   257B                    9523 00150$:
                           9524 ;	genIfx
   257B B7                 9525 	or	a,a
   257C C2 26 26           9526 	jp	nz,00105$
                           9527 ;	BANK2.c 137
                           9528 ;	genPlus
                           9529 ;	AOP_HL for _delayVerif
                           9530 ;	genPlusIncr
   257F 21 00 00           9531 	ld	hl,#_delayVerif
   2582 4E                 9532 	ld	c,(hl)
   2583 23                 9533 	inc	hl
   2584 46                 9534 	ld	b,(hl)
   2585 03                 9535 	inc	bc
                           9536 ;	genAssign
                           9537 ;	AOP_HL for _delayVerif
   2586 2B                 9538 	dec	hl
   2587 71                 9539 	ld	(hl),c
   2588 23                 9540 	inc	hl
   2589 70                 9541 	ld	(hl),b
                           9542 ;	genAssign
                           9543 ;	AOP_HL for _delayVerif
                           9544 ;	(registers are the same)
                           9545 ;	BANK2.c 138
                           9546 ;	genCall
                           9547 ; _saveRegsForCall: sendSetSize: 0 deInUse: 0 bcInUse: 1 deSending: 0
   258A C5                 9548 	push	bc
   258B CD 00 00           9549 	call	_joypad
                           9550 ;	AOP_STK for _Intro_sloc1_1_0
   258E F8 12              9551 	lda	hl,18(sp)
   2590 73                 9552 	ld	(hl),e
   2591 C1                 9553 	pop	bc
                           9554 ;	genCmpEq
                           9555 ;	AOP_STK for _Intro_sloc1_1_0
                           9556 ; genCmpEq: left 1, right 1, result 1
   2592 F8 10              9557 	lda	hl,16(sp)
   2594 7E                 9558 	ld	a,(hl)
   2595 FE 80              9559 	cp	a,#0x80
   2597 C2 9E 25           9560 	jp	nz,00151$
   259A 3E 01              9561 	ld	a,#0x01
   259C 18 01              9562 	jr	00152$
   259E                    9563 00151$:
   259E AF                 9564 	xor	a,a
   259F                    9565 00152$:
                           9566 ;	genIfx
   259F B7                 9567 	or	a,a
   25A0 CA 66 25           9568 	jp	z,00103$
                           9569 ;	BANK2.c 139
                           9570 ;	genAssign
                           9571 ;	AOP_HL for _StartPressed
   25A3 21 00 00           9572 	ld	hl,#_StartPressed
   25A6 36 01              9573 	ld	(hl),#0x01
   25A8 23                 9574 	inc	hl
   25A9 36 00              9575 	ld	(hl),#0x00
                           9576 ;	BANK2.c 140
                           9577 ;	genAssign
                           9578 ;	AOP_HL for _delayVerif
   25AB 21 00 00           9579 	ld	hl,#_delayVerif
   25AE 36 A0              9580 	ld	(hl),#0xA0
   25B0 23                 9581 	inc	hl
   25B1 36 0F              9582 	ld	(hl),#0x0F
                           9583 ;	BANK2.c 142
                           9584 ;	genAssign
                           9585 ;	AOP_STK for _Intro_sloc0_1_0
   25B3 F8 11              9586 	lda	hl,17(sp)
   25B5 36 26              9587 	ld	(hl),#0x26
   25B7 23                 9588 	inc	hl
   25B8 36 FF              9589 	ld	(hl),#0xFF
                           9590 ;	genAssign (pointer)
                           9591 ;	AOP_STK for _Intro_sloc0_1_0
   25BA 2B                 9592 	dec	hl
   25BB 5E                 9593 	ld	e,(hl)
   25BC 23                 9594 	inc	hl
   25BD 56                 9595 	ld	d,(hl)
   25BE 3E 80              9596 	ld	a,#0x80
   25C0 12                 9597 	ld	(de),a
                           9598 ;	BANK2.c 143
                           9599 ;	genAssign
                           9600 ;	AOP_STK for _Intro_sloc2_1_0
   25C1 F8 0E              9601 	lda	hl,14(sp)
   25C3 36 25              9602 	ld	(hl),#0x25
   25C5 23                 9603 	inc	hl
   25C6 36 FF              9604 	ld	(hl),#0xFF
                           9605 ;	genAssign (pointer)
                           9606 ;	AOP_STK for _Intro_sloc2_1_0
   25C8 2B                 9607 	dec	hl
   25C9 5E                 9608 	ld	e,(hl)
   25CA 23                 9609 	inc	hl
   25CB 56                 9610 	ld	d,(hl)
   25CC 3E 11              9611 	ld	a,#0x11
   25CE 12                 9612 	ld	(de),a
                           9613 ;	BANK2.c 144
                           9614 ;	genAssign
                           9615 ;	AOP_STK for _Intro_sloc3_1_0
   25CF F8 0C              9616 	lda	hl,12(sp)
   25D1 36 24              9617 	ld	(hl),#0x24
   25D3 23                 9618 	inc	hl
   25D4 36 FF              9619 	ld	(hl),#0xFF
                           9620 ;	genAssign (pointer)
                           9621 ;	AOP_STK for _Intro_sloc3_1_0
   25D6 2B                 9622 	dec	hl
   25D7 5E                 9623 	ld	e,(hl)
   25D8 23                 9624 	inc	hl
   25D9 56                 9625 	ld	d,(hl)
   25DA 3E 77              9626 	ld	a,#0x77
   25DC 12                 9627 	ld	(de),a
                           9628 ;	BANK2.c 146
                           9629 ;	genAssign
                           9630 ;	AOP_STK for _Intro_sloc4_1_0
   25DD F8 0A              9631 	lda	hl,10(sp)
   25DF 36 10              9632 	ld	(hl),#0x10
   25E1 23                 9633 	inc	hl
   25E2 36 FF              9634 	ld	(hl),#0xFF
                           9635 ;	genAssign (pointer)
                           9636 ;	AOP_STK for _Intro_sloc4_1_0
   25E4 2B                 9637 	dec	hl
   25E5 5E                 9638 	ld	e,(hl)
   25E6 23                 9639 	inc	hl
   25E7 56                 9640 	ld	d,(hl)
   25E8 3E 40              9641 	ld	a,#0x40
   25EA 12                 9642 	ld	(de),a
                           9643 ;	BANK2.c 147
                           9644 ;	genAssign
                           9645 ;	AOP_STK for _Intro_sloc5_1_0
   25EB F8 08              9646 	lda	hl,8(sp)
   25ED 36 11              9647 	ld	(hl),#0x11
   25EF 23                 9648 	inc	hl
   25F0 36 FF              9649 	ld	(hl),#0xFF
                           9650 ;	genAssign (pointer)
                           9651 ;	AOP_STK for _Intro_sloc5_1_0
   25F2 2B                 9652 	dec	hl
   25F3 5E                 9653 	ld	e,(hl)
   25F4 23                 9654 	inc	hl
   25F5 56                 9655 	ld	d,(hl)
   25F6 3E 9A              9656 	ld	a,#0x9A
   25F8 12                 9657 	ld	(de),a
                           9658 ;	BANK2.c 148
                           9659 ;	genAssign
                           9660 ;	AOP_STK for _Intro_sloc6_1_0
   25F9 F8 06              9661 	lda	hl,6(sp)
   25FB 36 12              9662 	ld	(hl),#0x12
   25FD 23                 9663 	inc	hl
   25FE 36 FF              9664 	ld	(hl),#0xFF
                           9665 ;	genAssign (pointer)
                           9666 ;	AOP_STK for _Intro_sloc6_1_0
   2600 2B                 9667 	dec	hl
   2601 5E                 9668 	ld	e,(hl)
   2602 23                 9669 	inc	hl
   2603 56                 9670 	ld	d,(hl)
   2604 3E 41              9671 	ld	a,#0x41
   2606 12                 9672 	ld	(de),a
                           9673 ;	BANK2.c 149
                           9674 ;	genAssign
                           9675 ;	AOP_STK for _Intro_sloc7_1_0
   2607 F8 04              9676 	lda	hl,4(sp)
   2609 36 13              9677 	ld	(hl),#0x13
   260B 23                 9678 	inc	hl
   260C 36 FF              9679 	ld	(hl),#0xFF
                           9680 ;	genAssign (pointer)
                           9681 ;	AOP_STK for _Intro_sloc7_1_0
   260E 2B                 9682 	dec	hl
   260F 5E                 9683 	ld	e,(hl)
   2610 23                 9684 	inc	hl
   2611 56                 9685 	ld	d,(hl)
   2612 3E 9A              9686 	ld	a,#0x9A
   2614 12                 9687 	ld	(de),a
                           9688 ;	BANK2.c 150
                           9689 ;	genAssign
                           9690 ;	AOP_STK for _Intro_sloc8_1_0
   2615 F8 02              9691 	lda	hl,2(sp)
   2617 36 14              9692 	ld	(hl),#0x14
   2619 23                 9693 	inc	hl
   261A 36 FF              9694 	ld	(hl),#0xFF
                           9695 ;	genAssign (pointer)
                           9696 ;	AOP_STK for _Intro_sloc8_1_0
   261C 2B                 9697 	dec	hl
   261D 5E                 9698 	ld	e,(hl)
   261E 23                 9699 	inc	hl
   261F 56                 9700 	ld	d,(hl)
   2620 3E 98              9701 	ld	a,#0x98
   2622 12                 9702 	ld	(de),a
                           9703 ;	genGoto
   2623 C3 66 25           9704 	jp	00103$
                           9705 ;	genLabel
   2626                    9706 00105$:
                           9707 ;	BANK2.c 154
                           9708 ;	genAssign
                           9709 ;	AOP_HL for _delayVerif
   2626 21 00 00           9710 	ld	hl,#_delayVerif
   2629 36 00              9711 	ld	(hl),#0x00
   262B 23                 9712 	inc	hl
   262C 36 00              9713 	ld	(hl),#0x00
                           9714 ;	BANK2.c 156
                           9715 ;	genIpush
                           9716 ; _saveRegsForCall: sendSetSize: 0 deInUse: 0 bcInUse: 0 deSending: 0
   262E 21 2D 6E           9717 	ld	hl,#0x6E2D
   2631 E5                 9718 	push	hl
                           9719 ;	genIpush
   2632 3E 00              9720 	ld	a,#0x00
   2634 F5                 9721 	push	af
   2635 33                 9722 	inc	sp
                           9723 ;	genCall
   2636 CD 00 00           9724 	call	_move_sprite
   2639 E8 03              9725 	lda	sp,3(sp)
                           9726 ;	BANK2.c 157
                           9727 ;	genIpush
                           9728 ; _saveRegsForCall: sendSetSize: 0 deInUse: 0 bcInUse: 0 deSending: 0
   263B 21 35 6E           9729 	ld	hl,#0x6E35
   263E E5                 9730 	push	hl
                           9731 ;	genIpush
   263F 3E 01              9732 	ld	a,#0x01
   2641 F5                 9733 	push	af
   2642 33                 9734 	inc	sp
                           9735 ;	genCall
   2643 CD 00 00           9736 	call	_move_sprite
   2646 E8 03              9737 	lda	sp,3(sp)
                           9738 ;	BANK2.c 158
                           9739 ;	genIpush
                           9740 ; _saveRegsForCall: sendSetSize: 0 deInUse: 0 bcInUse: 0 deSending: 0
   2648 21 3D 6E           9741 	ld	hl,#0x6E3D
   264B E5                 9742 	push	hl
                           9743 ;	genIpush
   264C 3E 02              9744 	ld	a,#0x02
   264E F5                 9745 	push	af
   264F 33                 9746 	inc	sp
                           9747 ;	genCall
   2650 CD 00 00           9748 	call	_move_sprite
   2653 E8 03              9749 	lda	sp,3(sp)
                           9750 ;	BANK2.c 159
                           9751 ;	genIpush
                           9752 ; _saveRegsForCall: sendSetSize: 0 deInUse: 0 bcInUse: 0 deSending: 0
   2655 21 45 6E           9753 	ld	hl,#0x6E45
   2658 E5                 9754 	push	hl
                           9755 ;	genIpush
   2659 3E 03              9756 	ld	a,#0x03
   265B F5                 9757 	push	af
   265C 33                 9758 	inc	sp
                           9759 ;	genCall
   265D CD 00 00           9760 	call	_move_sprite
   2660 E8 03              9761 	lda	sp,3(sp)
                           9762 ;	BANK2.c 160
                           9763 ;	genIpush
                           9764 ; _saveRegsForCall: sendSetSize: 0 deInUse: 0 bcInUse: 0 deSending: 0
   2662 21 4D 6E           9765 	ld	hl,#0x6E4D
   2665 E5                 9766 	push	hl
                           9767 ;	genIpush
   2666 3E 04              9768 	ld	a,#0x04
   2668 F5                 9769 	push	af
   2669 33                 9770 	inc	sp
                           9771 ;	genCall
   266A CD 00 00           9772 	call	_move_sprite
   266D E8 03              9773 	lda	sp,3(sp)
                           9774 ;	BANK2.c 161
                           9775 ;	genIpush
                           9776 ; _saveRegsForCall: sendSetSize: 0 deInUse: 0 bcInUse: 0 deSending: 0
   266F 21 5D 6E           9777 	ld	hl,#0x6E5D
   2672 E5                 9778 	push	hl
                           9779 ;	genIpush
   2673 3E 05              9780 	ld	a,#0x05
   2675 F5                 9781 	push	af
   2676 33                 9782 	inc	sp
                           9783 ;	genCall
   2677 CD 00 00           9784 	call	_move_sprite
   267A E8 03              9785 	lda	sp,3(sp)
                           9786 ;	BANK2.c 162
                           9787 ;	genIpush
                           9788 ; _saveRegsForCall: sendSetSize: 0 deInUse: 0 bcInUse: 0 deSending: 0
   267C 21 65 6E           9789 	ld	hl,#0x6E65
   267F E5                 9790 	push	hl
                           9791 ;	genIpush
   2680 3E 06              9792 	ld	a,#0x06
   2682 F5                 9793 	push	af
   2683 33                 9794 	inc	sp
                           9795 ;	genCall
   2684 CD 00 00           9796 	call	_move_sprite
   2687 E8 03              9797 	lda	sp,3(sp)
                           9798 ;	BANK2.c 163
                           9799 ;	genIpush
                           9800 ; _saveRegsForCall: sendSetSize: 0 deInUse: 0 bcInUse: 0 deSending: 0
   2689 21 6D 6E           9801 	ld	hl,#0x6E6D
   268C E5                 9802 	push	hl
                           9803 ;	genIpush
   268D 3E 07              9804 	ld	a,#0x07
   268F F5                 9805 	push	af
   2690 33                 9806 	inc	sp
                           9807 ;	genCall
   2691 CD 00 00           9808 	call	_move_sprite
   2694 E8 03              9809 	lda	sp,3(sp)
                           9810 ;	BANK2.c 164
                           9811 ;	genIpush
                           9812 ; _saveRegsForCall: sendSetSize: 0 deInUse: 0 bcInUse: 0 deSending: 0
   2696 21 75 6E           9813 	ld	hl,#0x6E75
   2699 E5                 9814 	push	hl
                           9815 ;	genIpush
   269A 3E 08              9816 	ld	a,#0x08
   269C F5                 9817 	push	af
   269D 33                 9818 	inc	sp
                           9819 ;	genCall
   269E CD 00 00           9820 	call	_move_sprite
   26A1 E8 03              9821 	lda	sp,3(sp)
                           9822 ;	BANK2.c 165
                           9823 ;	genIpush
                           9824 ; _saveRegsForCall: sendSetSize: 0 deInUse: 0 bcInUse: 0 deSending: 0
   26A3 21 7D 6E           9825 	ld	hl,#0x6E7D
   26A6 E5                 9826 	push	hl
                           9827 ;	genIpush
   26A7 3E 09              9828 	ld	a,#0x09
   26A9 F5                 9829 	push	af
   26AA 33                 9830 	inc	sp
                           9831 ;	genCall
   26AB CD 00 00           9832 	call	_move_sprite
   26AE E8 03              9833 	lda	sp,3(sp)
                           9834 ;	BANK2.c 166
                           9835 ;	genLabel
   26B0                    9836 00108$:
                           9837 ;	genCmpEq
                           9838 ;	AOP_HL for _delayVerif
                           9839 ; genCmpEq: left 2, right 2, result 1
   26B0 21 00 00           9840 	ld	hl,#_delayVerif
   26B3 7E                 9841 	ld	a,(hl)
   26B4 FE A0              9842 	cp	a,#0xA0
   26B6 C2 C4 26           9843 	jp	nz,00153$
   26B9 23                 9844 	inc	hl
   26BA 7E                 9845 	ld	a,(hl)
   26BB FE 0F              9846 	cp	a,#0x0F
   26BD C2 C4 26           9847 	jp	nz,00153$
   26C0 3E 01              9848 	ld	a,#0x01
   26C2 18 01              9849 	jr	00154$
   26C4                    9850 00153$:
   26C4 AF                 9851 	xor	a,a
   26C5                    9852 00154$:
                           9853 ;	genIfx
   26C5 B7                 9854 	or	a,a
   26C6 C2 6B 27           9855 	jp	nz,00110$
                           9856 ;	BANK2.c 167
                           9857 ;	genPlus
                           9858 ;	AOP_HL for _delayVerif
                           9859 ;	genPlusIncr
   26C9 21 00 00           9860 	ld	hl,#_delayVerif
   26CC 4E                 9861 	ld	c,(hl)
   26CD 23                 9862 	inc	hl
   26CE 46                 9863 	ld	b,(hl)
   26CF 03                 9864 	inc	bc
                           9865 ;	genAssign
                           9866 ;	AOP_HL for _delayVerif
   26D0 2B                 9867 	dec	hl
   26D1 71                 9868 	ld	(hl),c
   26D2 23                 9869 	inc	hl
   26D3 70                 9870 	ld	(hl),b
                           9871 ;	genAssign
                           9872 ;	AOP_HL for _delayVerif
                           9873 ;	(registers are the same)
                           9874 ;	BANK2.c 168
                           9875 ;	genCall
                           9876 ; _saveRegsForCall: sendSetSize: 0 deInUse: 0 bcInUse: 1 deSending: 0
   26D4 C5                 9877 	push	bc
   26D5 CD 00 00           9878 	call	_joypad
                           9879 ;	AOP_STK for _Intro_sloc8_1_0
   26D8 F8 04              9880 	lda	hl,4(sp)
   26DA 73                 9881 	ld	(hl),e
   26DB C1                 9882 	pop	bc
                           9883 ;	genCmpEq
                           9884 ;	AOP_STK for _Intro_sloc8_1_0
                           9885 ; genCmpEq: left 1, right 1, result 1
   26DC F8 02              9886 	lda	hl,2(sp)
   26DE 7E                 9887 	ld	a,(hl)
   26DF FE 80              9888 	cp	a,#0x80
   26E1 C2 E8 26           9889 	jp	nz,00155$
   26E4 3E 01              9890 	ld	a,#0x01
   26E6 18 01              9891 	jr	00156$
   26E8                    9892 00155$:
   26E8 AF                 9893 	xor	a,a
   26E9                    9894 00156$:
                           9895 ;	genIfx
   26E9 B7                 9896 	or	a,a
   26EA CA B0 26           9897 	jp	z,00108$
                           9898 ;	BANK2.c 169
                           9899 ;	genAssign
                           9900 ;	AOP_HL for _StartPressed
   26ED 21 00 00           9901 	ld	hl,#_StartPressed
   26F0 36 01              9902 	ld	(hl),#0x01
   26F2 23                 9903 	inc	hl
   26F3 36 00              9904 	ld	(hl),#0x00
                           9905 ;	BANK2.c 170
                           9906 ;	genAssign
                           9907 ;	AOP_HL for _delayVerif
   26F5 21 00 00           9908 	ld	hl,#_delayVerif
   26F8 36 A0              9909 	ld	(hl),#0xA0
   26FA 23                 9910 	inc	hl
   26FB 36 0F              9911 	ld	(hl),#0x0F
                           9912 ;	BANK2.c 172
                           9913 ;	genAssign
                           9914 ;	AOP_STK for _Intro_sloc7_1_0
   26FD F8 04              9915 	lda	hl,4(sp)
   26FF 36 26              9916 	ld	(hl),#0x26
   2701 23                 9917 	inc	hl
   2702 36 FF              9918 	ld	(hl),#0xFF
                           9919 ;	genAssign (pointer)
                           9920 ;	AOP_STK for _Intro_sloc7_1_0
   2704 2B                 9921 	dec	hl
   2705 5E                 9922 	ld	e,(hl)
   2706 23                 9923 	inc	hl
   2707 56                 9924 	ld	d,(hl)
   2708 3E 80              9925 	ld	a,#0x80
   270A 12                 9926 	ld	(de),a
                           9927 ;	BANK2.c 173
                           9928 ;	genAssign
                           9929 ;	AOP_STK for _Intro_sloc6_1_0
   270B 23                 9930 	inc	hl
   270C 36 25              9931 	ld	(hl),#0x25
   270E 23                 9932 	inc	hl
   270F 36 FF              9933 	ld	(hl),#0xFF
                           9934 ;	genAssign (pointer)
                           9935 ;	AOP_STK for _Intro_sloc6_1_0
   2711 2B                 9936 	dec	hl
   2712 5E                 9937 	ld	e,(hl)
   2713 23                 9938 	inc	hl
   2714 56                 9939 	ld	d,(hl)
   2715 3E 11              9940 	ld	a,#0x11
   2717 12                 9941 	ld	(de),a
                           9942 ;	BANK2.c 174
                           9943 ;	genAssign
                           9944 ;	AOP_STK for _Intro_sloc5_1_0
   2718 23                 9945 	inc	hl
   2719 36 24              9946 	ld	(hl),#0x24
   271B 23                 9947 	inc	hl
   271C 36 FF              9948 	ld	(hl),#0xFF
                           9949 ;	genAssign (pointer)
                           9950 ;	AOP_STK for _Intro_sloc5_1_0
   271E 2B                 9951 	dec	hl
   271F 5E                 9952 	ld	e,(hl)
   2720 23                 9953 	inc	hl
   2721 56                 9954 	ld	d,(hl)
   2722 3E 77              9955 	ld	a,#0x77
   2724 12                 9956 	ld	(de),a
                           9957 ;	BANK2.c 176
                           9958 ;	genAssign
                           9959 ;	AOP_STK for _Intro_sloc4_1_0
   2725 23                 9960 	inc	hl
   2726 36 10              9961 	ld	(hl),#0x10
   2728 23                 9962 	inc	hl
   2729 36 FF              9963 	ld	(hl),#0xFF
                           9964 ;	genAssign (pointer)
                           9965 ;	AOP_STK for _Intro_sloc4_1_0
   272B 2B                 9966 	dec	hl
   272C 5E                 9967 	ld	e,(hl)
   272D 23                 9968 	inc	hl
   272E 56                 9969 	ld	d,(hl)
   272F 3E 40              9970 	ld	a,#0x40
   2731 12                 9971 	ld	(de),a
                           9972 ;	BANK2.c 177
                           9973 ;	genAssign
                           9974 ;	AOP_STK for _Intro_sloc3_1_0
   2732 23                 9975 	inc	hl
   2733 36 11              9976 	ld	(hl),#0x11
   2735 23                 9977 	inc	hl
   2736 36 FF              9978 	ld	(hl),#0xFF
                           9979 ;	genAssign (pointer)
                           9980 ;	AOP_STK for _Intro_sloc3_1_0
   2738 2B                 9981 	dec	hl
   2739 5E                 9982 	ld	e,(hl)
   273A 23                 9983 	inc	hl
   273B 56                 9984 	ld	d,(hl)
   273C 3E 9A              9985 	ld	a,#0x9A
   273E 12                 9986 	ld	(de),a
                           9987 ;	BANK2.c 178
                           9988 ;	genAssign
                           9989 ;	AOP_STK for _Intro_sloc2_1_0
   273F 23                 9990 	inc	hl
   2740 36 12              9991 	ld	(hl),#0x12
   2742 23                 9992 	inc	hl
   2743 36 FF              9993 	ld	(hl),#0xFF
                           9994 ;	genAssign (pointer)
                           9995 ;	AOP_STK for _Intro_sloc2_1_0
   2745 2B                 9996 	dec	hl
   2746 5E                 9997 	ld	e,(hl)
   2747 23                 9998 	inc	hl
   2748 56                 9999 	ld	d,(hl)
   2749 3E 41             10000 	ld	a,#0x41
   274B 12                10001 	ld	(de),a
                          10002 ;	BANK2.c 179
                          10003 ;	genAssign
                          10004 ;	AOP_STK for _Intro_sloc0_1_0
   274C 23                10005 	inc	hl
   274D 23                10006 	inc	hl
   274E 36 13             10007 	ld	(hl),#0x13
   2750 23                10008 	inc	hl
   2751 36 FF             10009 	ld	(hl),#0xFF
                          10010 ;	genAssign (pointer)
                          10011 ;	AOP_STK for _Intro_sloc0_1_0
   2753 2B                10012 	dec	hl
   2754 5E                10013 	ld	e,(hl)
   2755 23                10014 	inc	hl
   2756 56                10015 	ld	d,(hl)
   2757 3E 9A             10016 	ld	a,#0x9A
   2759 12                10017 	ld	(de),a
                          10018 ;	BANK2.c 180
                          10019 ;	genAssign
                          10020 ;	AOP_STK for _Intro_sloc9_1_0
   275A F8 00             10021 	lda	hl,0(sp)
   275C 36 14             10022 	ld	(hl),#0x14
   275E 23                10023 	inc	hl
   275F 36 FF             10024 	ld	(hl),#0xFF
                          10025 ;	genAssign (pointer)
                          10026 ;	AOP_STK for _Intro_sloc9_1_0
   2761 2B                10027 	dec	hl
   2762 5E                10028 	ld	e,(hl)
   2763 23                10029 	inc	hl
   2764 56                10030 	ld	d,(hl)
   2765 3E 98             10031 	ld	a,#0x98
   2767 12                10032 	ld	(de),a
                          10033 ;	genGoto
   2768 C3 B0 26          10034 	jp	00108$
                          10035 ;	genLabel
   276B                   10036 00110$:
                          10037 ;	BANK2.c 184
                          10038 ;	genAssign
                          10039 ;	AOP_HL for _delayVerif
   276B 21 00 00          10040 	ld	hl,#_delayVerif
   276E 36 00             10041 	ld	(hl),#0x00
   2770 23                10042 	inc	hl
   2771 36 00             10043 	ld	(hl),#0x00
                          10044 ;	genGoto
   2773 C3 D7 24          10045 	jp	00111$
                          10046 ;	genLabel
   2776                   10047 00113$:
                          10048 ;	BANK2.c 187
                          10049 ;	genCmpEq
                          10050 ;	AOP_HL for _StartPressed
                          10051 ; genCmpEq: left 2, right 2, result 0
   2776 21 00 00          10052 	ld	hl,#_StartPressed
   2779 7E                10053 	ld	a,(hl)
   277A FE 01             10054 	cp	a,#0x01
   277C C2 87 27          10055 	jp	nz,00157$
   277F 23                10056 	inc	hl
   2780 7E                10057 	ld	a,(hl)
   2781 B7                10058 	or	a,a
   2782 C2 D0 27          10059 	jp	nz,00128$
   2785 18 03             10060 	jr	00158$
   2787                   10061 00157$:
   2787 C3 D0 27          10062 	jp	00128$
   278A                   10063 00158$:
                          10064 ;	BANK2.c 189
                          10065 ;	genAssign
   278A 01 40 FF          10066 	ld	bc,#0xFF40
                          10067 ;	genAssign
                          10068 ;	AOP_STK for _Intro_sloc9_1_0
   278D F8 00             10069 	lda	hl,0(sp)
   278F 36 40             10070 	ld	(hl),#0x40
   2791 23                10071 	inc	hl
   2792 36 FF             10072 	ld	(hl),#0xFF
                          10073 ;	genPointerGet
                          10074 ;	AOP_STK for _Intro_sloc9_1_0
                          10075 ;	AOP_STK for _Intro_sloc8_1_0
   2794 2B                10076 	dec	hl
   2795 5E                10077 	ld	e,(hl)
   2796 23                10078 	inc	hl
   2797 56                10079 	ld	d,(hl)
   2798 1A                10080 	ld	a,(de)
   2799 23                10081 	inc	hl
                          10082 ;	genAnd
                          10083 ;	AOP_STK for _Intro_sloc8_1_0
   279A 77                10084 	ld      (hl),a
                          10085 ; Removed redundent load
   279B E6 FD             10086 	and	a,#0xFD
                          10087 ;	genAssign (pointer)
   279D 02                10088 	ld	(bc),a
                          10089 ;	BANK2.c 191
                          10090 ;	genAssign
                          10091 ;	AOP_HL for _tileInc
   279E 21 00 00          10092 	ld	hl,#_tileInc
   27A1 36 01             10093 	ld	(hl),#0x01
   27A3 23                10094 	inc	hl
   27A4 36 00             10095 	ld	(hl),#0x00
                          10096 ;	genLabel
   27A6                   10097 00124$:
                          10098 ;	genCmpGt
                          10099 ;	AOP_HL for _tileInc
   27A6 1E 80             10100 	ld	e,#0x80
   27A8 21 01 00          10101 	ld	hl,#_tileInc + 1
   27AB 7E                10102 	ld	a,(hl)
   27AC EE 80             10103 	xor	a,#0x80
   27AE 57                10104 	ld	d,a
   27AF 3E 19             10105 	ld	a,#0x19
   27B1 2B                10106 	dec	hl
   27B2 96                10107 	sub	a,(hl)
   27B3 7B                10108 	ld	a,e
   27B4 9A                10109 	sbc	a,d
   27B5 DA D0 27          10110 	jp	c,00128$
                          10111 ;	BANK2.c 192
                          10112 ;	genCast
                          10113 ;	AOP_HL for _tileInc
   27B8 4E                10114 	ld	c,(hl)
                          10115 ;	genIpush
                          10116 ; _saveRegsForCall: sendSetSize: 0 deInUse: 0 bcInUse: 0 deSending: 0
   27B9 21 C8 C8          10117 	ld	hl,#0xC8C8
   27BC E5                10118 	push	hl
                          10119 ;	genIpush
   27BD 79                10120 	ld	a,c
   27BE F5                10121 	push	af
   27BF 33                10122 	inc	sp
                          10123 ;	genCall
   27C0 CD 00 00          10124 	call	_move_sprite
   27C3 E8 03             10125 	lda	sp,3(sp)
                          10126 ;	BANK2.c 191
                          10127 ;	genPlus
                          10128 ;	AOP_HL for _tileInc
                          10129 ;	genPlusIncr
   27C5 21 00 00          10130 	ld	hl,#_tileInc
   27C8 34                10131 	inc	(hl)
   27C9 20 02             10132 	jr	nz,00159$
   27CB 23                10133 	inc	hl
   27CC 34                10134 	inc	(hl)
   27CD                   10135 00159$:
                          10136 ;	genGoto
   27CD C3 A6 27          10137 	jp	00124$
                          10138 ;	genLabel
   27D0                   10139 00128$:
                          10140 ;	genEndFunction
   27D0 E8 13             10141 	lda	sp,19(sp)
   27D2 C9                10142 	ret
   27D3                   10143 ___Intro_end:
                          10144 ;	BANK2.c 198
                          10145 ;	genLabel
                          10146 ;	genFunction
                          10147 ;	---------------------------------
                          10148 ; Function Intro2
                          10149 ; ---------------------------------
   27D3                   10150 ___Intro2_start:
   27D3                   10151 _Intro2:
   27D3 E8 FD             10152 	lda	sp,-3(sp)
                          10153 ;	BANK2.c 200
                          10154 ;	genIpush
                          10155 ; _saveRegsForCall: sendSetSize: 0 deInUse: 0 bcInUse: 0 deSending: 0
   27D5 21 17 29          10156 	ld	hl,#__str_211
   27D8 E5                10157 	push	hl
                          10158 ;	genCall
   27D9 CD 00 00          10159 	call	_printf
   27DC E8 02             10160 	lda	sp,2(sp)
                          10161 ;	BANK2.c 201
                          10162 ;	genAssign
                          10163 ;	AOP_HL for _delayVerif
   27DE 21 00 00          10164 	ld	hl,#_delayVerif
   27E1 36 00             10165 	ld	(hl),#0x00
   27E3 23                10166 	inc	hl
   27E4 36 00             10167 	ld	(hl),#0x00
                          10168 ;	genLabel
   27E6                   10169 00101$:
                          10170 ;	genCmpLt
                          10171 ;	AOP_HL for _delayVerif
   27E6 21 01 00          10172 	ld	hl,#_delayVerif + 1
   27E9 7E                10173 	ld	a,(hl)
   27EA EE 80             10174 	xor	a,#0x80
   27EC 5F                10175 	ld	e,a
   27ED 16 80             10176 	ld	d,#0x80
   27EF 2B                10177 	dec	hl
   27F0 7E                10178 	ld	a,(hl)
   27F1 D6 06             10179 	sub	a,#0x06
   27F3 7B                10180 	ld	a,e
   27F4 9A                10181 	sbc	a,d
   27F5 D2 27 28          10182 	jp	nc,00104$
                          10183 ;	BANK2.c 203
                          10184 ;	genPlus
                          10185 ;	AOP_HL for _delayVerif
                          10186 ;	Can't optimise plus by inc, falling back to the normal way
   27F8 3E 00             10187 	ld	a,#<_nomPlayer
   27FA 86                10188 	add	a,(hl)
   27FB 4F                10189 	ld	c,a
   27FC 3E 00             10190 	ld	a,#>_nomPlayer
   27FE 23                10191 	inc	hl
   27FF 8E                10192 	adc	a,(hl)
   2800 47                10193 	ld	b,a
                          10194 ;	genCall
                          10195 ; _saveRegsForCall: sendSetSize: 0 deInUse: 0 bcInUse: 1 deSending: 0
   2801 C5                10196 	push	bc
   2802 CD 00 00          10197 	call	_getchar
                          10198 ;	AOP_STK for _Intro2_sloc0_1_0
   2805 F8 04             10199 	lda	hl,4(sp)
   2807 73                10200 	ld	(hl),e
   2808 C1                10201 	pop	bc
                          10202 ;	genAssign (pointer)
                          10203 ;	AOP_STK for _Intro2_sloc0_1_0
   2809 F8 02             10204 	lda	hl,2(sp)
   280B 7E                10205 	ld	a,(hl)
   280C 02                10206 	ld	(bc),a
                          10207 ;	BANK2.c 204
                          10208 ;	genCast
                          10209 ;	AOP_STK for _Intro2_sloc0_1_0
   280D 4E                10210 	ld	c,(hl)
   280E 7E                10211 	ld	a,(hl)
   280F 17                10212 	rla	
   2810 9F                10213 	sbc	a,a
   2811 47                10214 	ld	b,a
                          10215 ;	genIpush
                          10216 ; _saveRegsForCall: sendSetSize: 0 deInUse: 0 bcInUse: 0 deSending: 0
   2812 C5                10217 	push	bc
                          10218 ;	genIpush
   2813 21 24 29          10219 	ld	hl,#__str_212
   2816 E5                10220 	push	hl
                          10221 ;	genCall
   2817 CD 00 00          10222 	call	_printf
   281A E8 04             10223 	lda	sp,4(sp)
                          10224 ;	BANK2.c 201
                          10225 ;	genPlus
                          10226 ;	AOP_HL for _delayVerif
                          10227 ;	genPlusIncr
   281C 21 00 00          10228 	ld	hl,#_delayVerif
   281F 34                10229 	inc	(hl)
   2820 20 02             10230 	jr	nz,00109$
   2822 23                10231 	inc	hl
   2823 34                10232 	inc	(hl)
   2824                   10233 00109$:
                          10234 ;	genGoto
   2824 C3 E6 27          10235 	jp	00101$
                          10236 ;	genLabel
   2827                   10237 00104$:
                          10238 ;	BANK2.c 207
                          10239 ;	genCall
                          10240 ; _saveRegsForCall: sendSetSize: 0 deInUse: 0 bcInUse: 0 deSending: 0
   2827 CD 00 00          10241 	call	_clearScreenLetter
                          10242 ;	BANK2.c 208
                          10243 ;	genAssign
   282A 01 40 FF          10244 	ld	bc,#0xFF40
                          10245 ;	genAssign
                          10246 ;	AOP_STK for _Intro2_sloc1_1_0
   282D F8 00             10247 	lda	hl,0(sp)
   282F 36 40             10248 	ld	(hl),#0x40
   2831 23                10249 	inc	hl
   2832 36 FF             10250 	ld	(hl),#0xFF
                          10251 ;	genPointerGet
                          10252 ;	AOP_STK for _Intro2_sloc1_1_0
                          10253 ;	AOP_STK for _Intro2_sloc0_1_0
   2834 2B                10254 	dec	hl
   2835 5E                10255 	ld	e,(hl)
   2836 23                10256 	inc	hl
   2837 56                10257 	ld	d,(hl)
   2838 1A                10258 	ld	a,(de)
   2839 23                10259 	inc	hl
                          10260 ;	genAnd
                          10261 ;	AOP_STK for _Intro2_sloc0_1_0
   283A 77                10262 	ld      (hl),a
   283B 7F                10263 	ld      a,a
   283C E6 FD             10264 	and	a,#0xFD
                          10265 ;	genAssign (pointer)
   283E 02                10266 	ld	(bc),a
                          10267 ;	BANK2.c 209
                          10268 ;	genIpush
                          10269 ; _saveRegsForCall: sendSetSize: 0 deInUse: 0 bcInUse: 0 deSending: 0
   283F 21 C8 00          10270 	ld	hl,#0x00C8
   2842 E5                10271 	push	hl
                          10272 ;	genCall
   2843 CD 00 00          10273 	call	_delay
   2846 E8 02             10274 	lda	sp,2(sp)
                          10275 ;	BANK2.c 211
                          10276 ;	genCall
                          10277 ; _saveRegsForCall: sendSetSize: 0 deInUse: 0 bcInUse: 0 deSending: 0
   2848 CD 00 00          10278 	call	_messageIntroPart1
                          10279 ;	BANK2.c 212
                          10280 ;	genAssign
   284B 01 40 FF          10281 	ld	bc,#0xFF40
                          10282 ;	genAssign
                          10283 ;	AOP_STK for _Intro2_sloc1_1_0
   284E F8 00             10284 	lda	hl,0(sp)
   2850 36 40             10285 	ld	(hl),#0x40
   2852 23                10286 	inc	hl
   2853 36 FF             10287 	ld	(hl),#0xFF
                          10288 ;	genPointerGet
                          10289 ;	AOP_STK for _Intro2_sloc1_1_0
                          10290 ;	AOP_STK for _Intro2_sloc0_1_0
   2855 2B                10291 	dec	hl
   2856 5E                10292 	ld	e,(hl)
   2857 23                10293 	inc	hl
   2858 56                10294 	ld	d,(hl)
   2859 1A                10295 	ld	a,(de)
   285A 23                10296 	inc	hl
                          10297 ;	genAnd
                          10298 ;	AOP_STK for _Intro2_sloc0_1_0
   285B 77                10299 	ld      (hl),a
   285C 7F                10300 	ld      a,a
   285D E6 FB             10301 	and	a,#0xFB
                          10302 ;	genAssign (pointer)
   285F 02                10303 	ld	(bc),a
                          10304 ;	BANK2.c 213
                          10305 ;	genIpush
                          10306 ; _saveRegsForCall: sendSetSize: 0 deInUse: 0 bcInUse: 0 deSending: 0
   2860 21 00 00          10307 	ld	hl,#_textIcon
   2863 E5                10308 	push	hl
                          10309 ;	genIpush
   2864 21 00 01          10310 	ld	hl,#0x0100
   2867 E5                10311 	push	hl
                          10312 ;	genCall
   2868 CD 00 00          10313 	call	_set_sprite_data
   286B E8 04             10314 	lda	sp,4(sp)
                          10315 ;	BANK2.c 214
                          10316 ;	genIpush
                          10317 ; _saveRegsForCall: sendSetSize: 0 deInUse: 0 bcInUse: 0 deSending: 0
   286D 21 00 00          10318 	ld	hl,#0x0000
   2870 E5                10319 	push	hl
                          10320 ;	genCall
   2871 CD 00 00          10321 	call	_set_sprite_tile
   2874 E8 02             10322 	lda	sp,2(sp)
                          10323 ;	BANK2.c 215
                          10324 ;	genIpush
                          10325 ; _saveRegsForCall: sendSetSize: 0 deInUse: 0 bcInUse: 0 deSending: 0
   2876 21 9B 8E          10326 	ld	hl,#0x8E9B
   2879 E5                10327 	push	hl
                          10328 ;	genIpush
   287A 3E 00             10329 	ld	a,#0x00
   287C F5                10330 	push	af
   287D 33                10331 	inc	sp
                          10332 ;	genCall
   287E CD 00 00          10333 	call	_move_sprite
   2881 E8 03             10334 	lda	sp,3(sp)
                          10335 ;	BANK2.c 216
                          10336 ;	genAssign
   2883 01 40 FF          10337 	ld	bc,#0xFF40
                          10338 ;	genAssign
                          10339 ;	AOP_STK for _Intro2_sloc1_1_0
   2886 F8 00             10340 	lda	hl,0(sp)
   2888 36 40             10341 	ld	(hl),#0x40
   288A 23                10342 	inc	hl
   288B 36 FF             10343 	ld	(hl),#0xFF
                          10344 ;	genPointerGet
                          10345 ;	AOP_STK for _Intro2_sloc1_1_0
                          10346 ;	AOP_STK for _Intro2_sloc0_1_0
   288D 2B                10347 	dec	hl
   288E 5E                10348 	ld	e,(hl)
   288F 23                10349 	inc	hl
   2890 56                10350 	ld	d,(hl)
   2891 1A                10351 	ld	a,(de)
   2892 23                10352 	inc	hl
                          10353 ;	genOr
                          10354 ;	AOP_STK for _Intro2_sloc0_1_0
   2893 77                10355 	ld      (hl),a
   2894 7F                10356 	ld      a,a
   2895 F6 02             10357 	or	a,#0x02
                          10358 ;	genAssign (pointer)
   2897 02                10359 	ld	(bc),a
                          10360 ;	BANK2.c 217
                          10361 ;	genCall
                          10362 ; _saveRegsForCall: sendSetSize: 0 deInUse: 0 bcInUse: 0 deSending: 0
   2898 CD 1B 21          10363 	call	_textNext
                          10364 ;	BANK2.c 218
                          10365 ;	genCall
                          10366 ; _saveRegsForCall: sendSetSize: 0 deInUse: 0 bcInUse: 0 deSending: 0
   289B CD 00 00          10367 	call	_clearScreenLetter
                          10368 ;	BANK2.c 219
                          10369 ;	genAssign
   289E 01 40 FF          10370 	ld	bc,#0xFF40
                          10371 ;	genAssign
                          10372 ;	AOP_STK for _Intro2_sloc1_1_0
   28A1 F8 00             10373 	lda	hl,0(sp)
   28A3 36 40             10374 	ld	(hl),#0x40
   28A5 23                10375 	inc	hl
   28A6 36 FF             10376 	ld	(hl),#0xFF
                          10377 ;	genPointerGet
                          10378 ;	AOP_STK for _Intro2_sloc1_1_0
                          10379 ;	AOP_STK for _Intro2_sloc0_1_0
   28A8 2B                10380 	dec	hl
   28A9 5E                10381 	ld	e,(hl)
   28AA 23                10382 	inc	hl
   28AB 56                10383 	ld	d,(hl)
   28AC 1A                10384 	ld	a,(de)
   28AD 23                10385 	inc	hl
                          10386 ;	genAnd
                          10387 ;	AOP_STK for _Intro2_sloc0_1_0
   28AE 77                10388 	ld      (hl),a
   28AF 7F                10389 	ld      a,a
   28B0 E6 FD             10390 	and	a,#0xFD
                          10391 ;	genAssign (pointer)
   28B2 02                10392 	ld	(bc),a
                          10393 ;	BANK2.c 220
                          10394 ;	genIpush
                          10395 ; _saveRegsForCall: sendSetSize: 0 deInUse: 0 bcInUse: 0 deSending: 0
   28B3 21 C8 00          10396 	ld	hl,#0x00C8
   28B6 E5                10397 	push	hl
                          10398 ;	genCall
   28B7 CD 00 00          10399 	call	_delay
   28BA E8 02             10400 	lda	sp,2(sp)
                          10401 ;	BANK2.c 222
                          10402 ;	genCall
                          10403 ; _saveRegsForCall: sendSetSize: 0 deInUse: 0 bcInUse: 0 deSending: 0
   28BC CD B8 17          10404 	call	_messageIntroPart2
                          10405 ;	BANK2.c 223
                          10406 ;	genAssign
   28BF 01 40 FF          10407 	ld	bc,#0xFF40
                          10408 ;	genAssign
                          10409 ;	AOP_STK for _Intro2_sloc1_1_0
   28C2 F8 00             10410 	lda	hl,0(sp)
   28C4 36 40             10411 	ld	(hl),#0x40
   28C6 23                10412 	inc	hl
   28C7 36 FF             10413 	ld	(hl),#0xFF
                          10414 ;	genPointerGet
                          10415 ;	AOP_STK for _Intro2_sloc1_1_0
                          10416 ;	AOP_STK for _Intro2_sloc0_1_0
   28C9 2B                10417 	dec	hl
   28CA 5E                10418 	ld	e,(hl)
   28CB 23                10419 	inc	hl
   28CC 56                10420 	ld	d,(hl)
   28CD 1A                10421 	ld	a,(de)
   28CE 23                10422 	inc	hl
                          10423 ;	genOr
                          10424 ;	AOP_STK for _Intro2_sloc0_1_0
   28CF 77                10425 	ld      (hl),a
   28D0 7F                10426 	ld      a,a
   28D1 F6 02             10427 	or	a,#0x02
                          10428 ;	genAssign (pointer)
   28D3 02                10429 	ld	(bc),a
                          10430 ;	BANK2.c 224
                          10431 ;	genCall
                          10432 ; _saveRegsForCall: sendSetSize: 0 deInUse: 0 bcInUse: 0 deSending: 0
   28D4 CD 1B 21          10433 	call	_textNext
                          10434 ;	BANK2.c 225
                          10435 ;	genCall
                          10436 ; _saveRegsForCall: sendSetSize: 0 deInUse: 0 bcInUse: 0 deSending: 0
   28D7 CD 00 00          10437 	call	_clearScreenLetter
                          10438 ;	BANK2.c 226
                          10439 ;	genAssign
   28DA 01 40 FF          10440 	ld	bc,#0xFF40
                          10441 ;	genAssign
                          10442 ;	AOP_STK for _Intro2_sloc1_1_0
   28DD F8 00             10443 	lda	hl,0(sp)
   28DF 36 40             10444 	ld	(hl),#0x40
   28E1 23                10445 	inc	hl
   28E2 36 FF             10446 	ld	(hl),#0xFF
                          10447 ;	genPointerGet
                          10448 ;	AOP_STK for _Intro2_sloc1_1_0
                          10449 ;	AOP_STK for _Intro2_sloc0_1_0
   28E4 2B                10450 	dec	hl
   28E5 5E                10451 	ld	e,(hl)
   28E6 23                10452 	inc	hl
   28E7 56                10453 	ld	d,(hl)
   28E8 1A                10454 	ld	a,(de)
   28E9 23                10455 	inc	hl
                          10456 ;	genAnd
                          10457 ;	AOP_STK for _Intro2_sloc0_1_0
   28EA 77                10458 	ld      (hl),a
   28EB 7F                10459 	ld      a,a
   28EC E6 FD             10460 	and	a,#0xFD
                          10461 ;	genAssign (pointer)
   28EE 02                10462 	ld	(bc),a
                          10463 ;	BANK2.c 227
                          10464 ;	genAssign
   28EF 01 40 FF          10465 	ld	bc,#0xFF40
                          10466 ;	genAssign
                          10467 ;	AOP_STK for _Intro2_sloc1_1_0
   28F2 2B                10468 	dec	hl
   28F3 2B                10469 	dec	hl
   28F4 36 40             10470 	ld	(hl),#0x40
   28F6 23                10471 	inc	hl
   28F7 36 FF             10472 	ld	(hl),#0xFF
                          10473 ;	genPointerGet
                          10474 ;	AOP_STK for _Intro2_sloc1_1_0
                          10475 ;	AOP_STK for _Intro2_sloc0_1_0
   28F9 2B                10476 	dec	hl
   28FA 5E                10477 	ld	e,(hl)
   28FB 23                10478 	inc	hl
   28FC 56                10479 	ld	d,(hl)
   28FD 1A                10480 	ld	a,(de)
   28FE 23                10481 	inc	hl
                          10482 ;	genAnd
                          10483 ;	AOP_STK for _Intro2_sloc0_1_0
   28FF 77                10484 	ld      (hl),a
   2900 7F                10485 	ld      a,a
   2901 E6 FE             10486 	and	a,#0xFE
                          10487 ;	genAssign (pointer)
   2903 02                10488 	ld	(bc),a
                          10489 ;	BANK2.c 229
                          10490 ;	genAssign
                          10491 ;	AOP_HL for _IDMap
   2904 21 00 00          10492 	ld	hl,#_IDMap
   2907 36 01             10493 	ld	(hl),#0x01
   2909 23                10494 	inc	hl
   290A 36 00             10495 	ld	(hl),#0x00
                          10496 ;	BANK2.c 230
                          10497 ;	genAssign
                          10498 ;	AOP_HL for _OutCheck
   290C 21 00 00          10499 	ld	hl,#_OutCheck
   290F 36 01             10500 	ld	(hl),#0x01
   2911 23                10501 	inc	hl
   2912 36 00             10502 	ld	(hl),#0x00
                          10503 ;	genLabel
   2914                   10504 00105$:
                          10505 ;	genEndFunction
   2914 E8 03             10506 	lda	sp,3(sp)
   2916 C9                10507 	ret
   2917                   10508 ___Intro2_end:
   2917                   10509 __str_211:
   2917 0A                10510 	.db 0x0A
   2918 0A                10511 	.db 0x0A
   2919 20 54 6F 6E 20 6E 10512 	.ascii " Ton nom: "
        6F 6D 3A 20
   2923 00                10513 	.db 0x00
   2924                   10514 __str_212:
   2924 25 63             10515 	.ascii "%c"
   2926 00                10516 	.db 0x00
                          10517 	.area _CODE_2
ASxxxx Assembler V01.75  (GameBoy Z80-like CPU), page 1.

Symbol Table

  9 _By                                15F2 GR
    _IDMap                             **** GX
  9 _Intro                             22DB GR
  9 _Intro2                            27D3 GR
    _OutCheck                          **** GX
  9 _PressStart                        1552 GR
    _StartPressed                      **** GX
  9 _TitleScreenMap                    13EA GR
  9 _TitleScreenTiles                  063A GR
  9 ___Intro2_end                      2917 R
  9 ___Intro2_start                    27D3 R
  9 ___Intro_end                       27D3 R
  9 ___Intro_start                     22DB R
  9 ___messageIntroPart1_end           063A R
  9 ___messageIntroPart1_start         0000 R
  9 ___messageIntroPart2_end           2017 R
  9 ___messageIntroPart2_start         17B8 R
  9 ___textNext_end                    22DB R
  9 ___textNext_start                  211B R
    __initrleblock                     **** GX
  9 __str_0                            16F2 R
  9 __str_1                            16FB R
  9 __str_10                           1712 R
  9 __str_100                          202F R
  9 __str_101                          2031 R
  9 __str_102                          2033 R
  9 __str_103                          2035 R
  9 __str_104                          2037 R
  9 __str_105                          2039 R
  9 __str_106                          203B R
  9 __str_107                          203F R
  9 __str_108                          2041 R
  9 __str_109                          2043 R
  9 __str_11                           1714 R
  9 __str_110                          2045 R
  9 __str_111                          2047 R
  9 __str_112                          2049 R
  9 __str_113                          204B R
  9 __str_114                          204D R
  9 __str_115                          204F R
  9 __str_116                          2051 R
  9 __str_117                          2053 R
  9 __str_118                          2055 R
  9 __str_119                          2057 R
  9 __str_12                           1716 R
  9 __str_120                          2059 R
  9 __str_121                          205B R
  9 __str_122                          205D R
  9 __str_123                          2061 R
  9 __str_124                          2063 R
  9 __str_125                          2065 R
  9 __str_126                          2067 R
  9 __str_127                          2069 R
  9 __str_128                          206B R
  9 __str_129                          206D R
  9 __str_13                           1718 R
  9 __str_130                          206F R
  9 __str_131                          2071 R
  9 __str_132                          2073 R
  9 __str_133                          2075 R
  9 __str_134                          2077 R
  9 __str_135                          2079 R
  9 __str_136                          207B R
  9 __str_137                          207D R
  9 __str_138                          207F R
  9 __str_139                          2081 R
  9 __str_14                           171A R
  9 __str_140                          2083 R
  9 __str_141                          2087 R
  9 __str_142                          2089 R
  9 __str_143                          208B R
  9 __str_144                          208D R
  9 __str_145                          208F R
  9 __str_146                          2091 R
  9 __str_147                          2093 R
  9 __str_148                          2095 R
  9 __str_149                          2097 R
  9 __str_15                           171C R
  9 __str_150                          209B R
  9 __str_151                          209D R
  9 __str_152                          209F R
  9 __str_153                          20A1 R
  9 __str_154                          20A3 R
  9 __str_155                          20A5 R
  9 __str_156                          20A7 R
  9 __str_157                          20A9 R
  9 __str_158                          20AB R
  9 __str_159                          20AD R
  9 __str_16                           171E R
  9 __str_160                          20AF R
  9 __str_161                          20B3 R
  9 __str_162                          20B5 R
  9 __str_163                          20B7 R
  9 __str_164                          20B9 R
  9 __str_165                          20BB R
  9 __str_166                          20BD R
  9 __str_167                          20BF R
  9 __str_168                          20C1 R
  9 __str_169                          20C3 R
  9 __str_17                           1720 R
  9 __str_170                          20C5 R
  9 __str_171                          20C7 R
  9 __str_172                          20C9 R
  9 __str_173                          20CB R
  9 __str_174                          20CD R
  9 __str_175                          20CF R
  9 __str_176                          20D3 R
  9 __str_177                          20D5 R
  9 __str_178                          20D7 R
  9 __str_179                          20D9 R
  9 __str_18                           1722 R
  9 __str_180                          20DB R
  9 __str_181                          20DD R
  9 __str_182                          20DF R
  9 __str_183                          20E1 R
  9 __str_184                          20E3 R
  9 __str_185                          20E5 R
  9 __str_186                          20E7 R
  9 __str_187                          20E9 R
  9 __str_188                          20EB R
  9 __str_189                          20ED R
  9 __str_19                           1724 R
  9 __str_190                          20EF R
  9 __str_191                          20F1 R
  9 __str_192                          20F3 R
  9 __str_193                          20F7 R
  9 __str_194                          20F9 R
  9 __str_195                          20FB R
  9 __str_196                          20FD R
  9 __str_197                          20FF R
  9 __str_198                          2101 R
  9 __str_199                          2103 R
  9 __str_2                            16FD R
  9 __str_20                           1726 R
  9 __str_200                          2105 R
  9 __str_201                          2107 R
  9 __str_202                          2109 R
  9 __str_203                          210B R
  9 __str_204                          210D R
  9 __str_205                          210F R
  9 __str_206                          2111 R
  9 __str_207                          2113 R
  9 __str_208                          2115 R
  9 __str_209                          2117 R
  9 __str_21                           1728 R
  9 __str_210                          2119 R
  9 __str_211                          2917 R
  9 __str_212                          2924 R
  9 __str_22                           172A R
  9 __str_23                           172E R
  9 __str_24                           1730 R
  9 __str_25                           1732 R
  9 __str_26                           1734 R
  9 __str_27                           1736 R
  9 __str_28                           1738 R
  9 __str_29                           173A R
  9 __str_3                            16FF R
  9 __str_30                           173C R
  9 __str_31                           173E R
  9 __str_32                           1740 R
  9 __str_33                           1742 R
  9 __str_34                           1744 R
  9 __str_35                           1746 R
  9 __str_36                           1748 R
  9 __str_37                           174A R
  9 __str_38                           174C R
  9 __str_39                           174E R
  9 __str_4                            1701 R
  9 __str_40                           1750 R
  9 __str_41                           1752 R
  9 __str_42                           1756 R
  9 __str_43                           1758 R
  9 __str_44                           175A R
  9 __str_45                           175C R
  9 __str_46                           175E R
  9 __str_47                           1760 R
  9 __str_48                           1762 R
  9 __str_49                           1764 R
  9 __str_5                            1708 R
  9 __str_50                           1766 R
  9 __str_51                           1768 R
  9 __str_52                           176A R
  9 __str_53                           176C R
  9 __str_54                           176E R
  9 __str_55                           1772 R
  9 __str_56                           1774 R
  9 __str_57                           1776 R
  9 __str_58                           1778 R
  9 __str_59                           177A R
  9 __str_6                            170A R
  9 __str_60                           177C R
  9 __str_61                           177E R
  9 __str_62                           1780 R
  9 __str_63                           1782 R
  9 __str_64                           1784 R
  9 __str_65                           1786 R
  9 __str_66                           1788 R
  9 __str_67                           178A R
  9 __str_68                           178C R
  9 __str_69                           178E R
  9 __str_7                            170C R
  9 __str_70                           1790 R
  9 __str_71                           1794 R
  9 __str_72                           1796 R
  9 __str_73                           1798 R
  9 __str_74                           179A R
  9 __str_75                           179C R
  9 __str_76                           179E R
  9 __str_77                           17A0 R
  9 __str_78                           17A2 R
  9 __str_79                           17A4 R
  9 __str_8                            170E R
  9 __str_80                           17A6 R
  9 __str_81                           17A8 R
  9 __str_82                           17AA R
  9 __str_83                           17AC R
  9 __str_84                           17AE R
  9 __str_85                           17B0 R
  9 __str_86                           17B2 R
  9 __str_87                           17B4 R
  9 __str_88                           17B6 R
  9 __str_89                           2017 R
  9 __str_9                            1710 R
  9 __str_90                           201B R
  9 __str_91                           201D R
  9 __str_92                           201F R
  9 __str_93                           2021 R
  9 __str_94                           2023 R
  9 __str_95                           2025 R
  9 __str_96                           2027 R
  9 __str_97                           2029 R
  9 __str_98                           202B R
  9 __str_99                           202D R
    _clearScreenLetter                 **** GX
    _delay                             **** GX
    _delayVerif                        **** GX
    _display_off                       **** GX
    _getchar                           **** GX
    _joypad                            **** GX
  9 _messageIntroPart1                 0000 GR
  9 _messageIntroPart2                 17B8 GR
    _move_sprite                       **** GX
    _nomPlayer                         **** GX
    _printf                            **** GX
    _set_bkg_data                      **** GX
    _set_bkg_tiles                     **** GX
    _set_sprite_data                   **** GX
    _set_sprite_tile                   **** GX
  1 _textIcon                          0000 GR
  9 _textNext                          211B GR
    _tileInc                           **** GX
    _wait_vbl_done                     **** GX

ASxxxx Assembler V01.75  (GameBoy Z80-like CPU), page 2.

Area Table

   0 _CODE                              size    0   flags 0
   1 _DATA                              size   10   flags 0
   2 _OVERLAY                           size    0   flags 0
   3 _ISEG                              size    0   flags 0
   4 _BSEG                              size    0   flags 0
   5 _XSEG                              size    0   flags 0
   6 _GSINIT                            size   14   flags 0
   7 _GSFINAL                           size    0   flags 0
   8 _HOME                              size    0   flags 0
   9 _CODE_2                            size 2927   flags 0
