                              1 ;--------------------------------------------------------
                              2 ; File Created by SDCC : FreeWare ANSI-C Compiler
                              3 ; Version 2.3.1 Mon Apr 17 13:59:25 2017
                              4 
                              5 ;--------------------------------------------------------
                              6 	.module lcc50680
                              7 	
                              8 ;--------------------------------------------------------
                              9 ; Public variables in this module
                             10 ;--------------------------------------------------------
                             11 	.globl _Intro2
                             12 	.globl _Intro
                             13 	.globl _textNext
                             14 	.globl _messageIntroPart3
                             15 	.globl _messageIntroPart2
                             16 	.globl _messageIntroPart1
                             17 	.globl _textIcon
                             18 	.globl _By
                             19 	.globl _PressStart
                             20 	.globl _TitleScreenMap
                             21 	.globl _TitleScreenTiles
                             22 ;--------------------------------------------------------
                             23 ; special function registers
                             24 ;--------------------------------------------------------
                             25 ;--------------------------------------------------------
                             26 ; special function bits 
                             27 ;--------------------------------------------------------
                             28 ;--------------------------------------------------------
                             29 ; internal ram data
                             30 ;--------------------------------------------------------
                             31 	.area _DATA
                             32 ;--------------------------------------------------------
                             33 ; overlayable items in internal ram 
                             34 ;--------------------------------------------------------
                             35 	.area _OVERLAY
                             36 ;--------------------------------------------------------
                             37 ; indirectly addressable internal ram data
                             38 ;--------------------------------------------------------
                             39 	.area _ISEG
                             40 ;--------------------------------------------------------
                             41 ; bit data
                             42 ;--------------------------------------------------------
                             43 	.area _BSEG
                             44 ;--------------------------------------------------------
                             45 ; external ram data
                             46 ;--------------------------------------------------------
                             47 	.area _XSEG
                             48 ;--------------------------------------------------------
                             49 ; global & static initialisations
                             50 ;--------------------------------------------------------
                             51 	.area _GSINIT
                             52 	.area _GSFINAL
                             53 	.area _GSINIT
                             54 ;--------------------------------------------------------
                             55 ; Home
                             56 ;--------------------------------------------------------
                             57 	.area _HOME
                             58 	.area _CODE_2
                             59 ;--------------------------------------------------------
                             60 ; code
                             61 ;--------------------------------------------------------
                             62 	.area _CODE_2
                             63 ;	IncludeCustom/MessageIntro.c 4
                             64 ;	genLabel
                             65 ;	genFunction
                             66 ;	---------------------------------
                             67 ; Function messageIntroPart1
                             68 ; ---------------------------------
   0000                      69 ___messageIntroPart1_start:
   0000                      70 _messageIntroPart1:
                             71 	
                             72 ;	IncludeCustom/MessageIntro.c 6
                             73 ;	genIpush
                             74 ; _saveRegsForCall: sendSetSize: 0 deInUse: 0 bcInUse: 0 deSending: 0
   0000 21 BB 18             75 	ld	hl,#__str_0
   0003 E5                   76 	push	hl
                             77 ;	genCall
   0004 CD 00 00             78 	call	_printf
   0007 E8 02                79 	lda	sp,2(sp)
                             80 ;	IncludeCustom/MessageIntro.c 7
                             81 ;	genIpush
                             82 ; _saveRegsForCall: sendSetSize: 0 deInUse: 0 bcInUse: 0 deSending: 0
   0009 21 C4 18             83 	ld	hl,#__str_1
   000C E5                   84 	push	hl
                             85 ;	genCall
   000D CD 00 00             86 	call	_printf
   0010 E8 02                87 	lda	sp,2(sp)
                             88 ;	IncludeCustom/MessageIntro.c 8
                             89 ;	genIpush
                             90 ; _saveRegsForCall: sendSetSize: 0 deInUse: 0 bcInUse: 0 deSending: 0
   0012 21 F4 01             91 	ld	hl,#0x01F4
   0015 E5                   92 	push	hl
                             93 ;	genCall
   0016 CD 00 00             94 	call	_delay
   0019 E8 02                95 	lda	sp,2(sp)
                             96 ;	IncludeCustom/MessageIntro.c 9
                             97 ;	genIpush
                             98 ; _saveRegsForCall: sendSetSize: 0 deInUse: 0 bcInUse: 0 deSending: 0
   001B 21 C6 18             99 	ld	hl,#__str_2
   001E E5                  100 	push	hl
                            101 ;	genCall
   001F CD 00 00            102 	call	_printf
   0022 E8 02               103 	lda	sp,2(sp)
                            104 ;	IncludeCustom/MessageIntro.c 10
                            105 ;	genIpush
                            106 ; _saveRegsForCall: sendSetSize: 0 deInUse: 0 bcInUse: 0 deSending: 0
   0024 21 F4 01            107 	ld	hl,#0x01F4
   0027 E5                  108 	push	hl
                            109 ;	genCall
   0028 CD 00 00            110 	call	_delay
   002B E8 02               111 	lda	sp,2(sp)
                            112 ;	IncludeCustom/MessageIntro.c 11
                            113 ;	genIpush
                            114 ; _saveRegsForCall: sendSetSize: 0 deInUse: 0 bcInUse: 0 deSending: 0
   002D 21 C8 18            115 	ld	hl,#__str_3
   0030 E5                  116 	push	hl
                            117 ;	genCall
   0031 CD 00 00            118 	call	_printf
   0034 E8 02               119 	lda	sp,2(sp)
                            120 ;	IncludeCustom/MessageIntro.c 12
                            121 ;	genIpush
                            122 ; _saveRegsForCall: sendSetSize: 0 deInUse: 0 bcInUse: 0 deSending: 0
   0036 21 BC 02            123 	ld	hl,#0x02BC
   0039 E5                  124 	push	hl
                            125 ;	genCall
   003A CD 00 00            126 	call	_delay
   003D E8 02               127 	lda	sp,2(sp)
                            128 ;	IncludeCustom/MessageIntro.c 13
                            129 ;	genIpush
                            130 ; _saveRegsForCall: sendSetSize: 0 deInUse: 0 bcInUse: 0 deSending: 0
   003F 21 CA 18            131 	ld	hl,#__str_4
   0042 E5                  132 	push	hl
                            133 ;	genCall
   0043 CD 00 00            134 	call	_printf
   0046 E8 02               135 	lda	sp,2(sp)
                            136 ;	IncludeCustom/MessageIntro.c 14
                            137 ;	genIpush
                            138 ; _saveRegsForCall: sendSetSize: 0 deInUse: 0 bcInUse: 0 deSending: 0
   0048 21 64 00            139 	ld	hl,#0x0064
   004B E5                  140 	push	hl
                            141 ;	genCall
   004C CD 00 00            142 	call	_delay
   004F E8 02               143 	lda	sp,2(sp)
                            144 ;	IncludeCustom/MessageIntro.c 15
                            145 ;	genIpush
                            146 ; _saveRegsForCall: sendSetSize: 0 deInUse: 0 bcInUse: 0 deSending: 0
   0051 21 CF 18            147 	ld	hl,#__str_5
   0054 E5                  148 	push	hl
                            149 ;	genCall
   0055 CD 00 00            150 	call	_printf
   0058 E8 02               151 	lda	sp,2(sp)
                            152 ;	IncludeCustom/MessageIntro.c 16
                            153 ;	genIpush
                            154 ; _saveRegsForCall: sendSetSize: 0 deInUse: 0 bcInUse: 0 deSending: 0
   005A 21 64 00            155 	ld	hl,#0x0064
   005D E5                  156 	push	hl
                            157 ;	genCall
   005E CD 00 00            158 	call	_delay
   0061 E8 02               159 	lda	sp,2(sp)
                            160 ;	IncludeCustom/MessageIntro.c 17
                            161 ;	genIpush
                            162 ; _saveRegsForCall: sendSetSize: 0 deInUse: 0 bcInUse: 0 deSending: 0
   0063 21 D1 18            163 	ld	hl,#__str_6
   0066 E5                  164 	push	hl
                            165 ;	genCall
   0067 CD 00 00            166 	call	_printf
   006A E8 02               167 	lda	sp,2(sp)
                            168 ;	IncludeCustom/MessageIntro.c 18
                            169 ;	genIpush
                            170 ; _saveRegsForCall: sendSetSize: 0 deInUse: 0 bcInUse: 0 deSending: 0
   006C 21 64 00            171 	ld	hl,#0x0064
   006F E5                  172 	push	hl
                            173 ;	genCall
   0070 CD 00 00            174 	call	_delay
   0073 E8 02               175 	lda	sp,2(sp)
                            176 ;	IncludeCustom/MessageIntro.c 19
                            177 ;	genIpush
                            178 ; _saveRegsForCall: sendSetSize: 0 deInUse: 0 bcInUse: 0 deSending: 0
   0075 21 D3 18            179 	ld	hl,#__str_7
   0078 E5                  180 	push	hl
                            181 ;	genCall
   0079 CD 00 00            182 	call	_printf
   007C E8 02               183 	lda	sp,2(sp)
                            184 ;	IncludeCustom/MessageIntro.c 20
                            185 ;	genIpush
                            186 ; _saveRegsForCall: sendSetSize: 0 deInUse: 0 bcInUse: 0 deSending: 0
   007E 21 64 00            187 	ld	hl,#0x0064
   0081 E5                  188 	push	hl
                            189 ;	genCall
   0082 CD 00 00            190 	call	_delay
   0085 E8 02               191 	lda	sp,2(sp)
                            192 ;	IncludeCustom/MessageIntro.c 21
                            193 ;	genIpush
                            194 ; _saveRegsForCall: sendSetSize: 0 deInUse: 0 bcInUse: 0 deSending: 0
   0087 21 D5 18            195 	ld	hl,#__str_8
   008A E5                  196 	push	hl
                            197 ;	genCall
   008B CD 00 00            198 	call	_printf
   008E E8 02               199 	lda	sp,2(sp)
                            200 ;	IncludeCustom/MessageIntro.c 22
                            201 ;	genIpush
                            202 ; _saveRegsForCall: sendSetSize: 0 deInUse: 0 bcInUse: 0 deSending: 0
   0090 21 64 00            203 	ld	hl,#0x0064
   0093 E5                  204 	push	hl
                            205 ;	genCall
   0094 CD 00 00            206 	call	_delay
   0097 E8 02               207 	lda	sp,2(sp)
                            208 ;	IncludeCustom/MessageIntro.c 23
                            209 ;	genIpush
                            210 ; _saveRegsForCall: sendSetSize: 0 deInUse: 0 bcInUse: 0 deSending: 0
   0099 21 D7 18            211 	ld	hl,#__str_9
   009C E5                  212 	push	hl
                            213 ;	genCall
   009D CD 00 00            214 	call	_printf
   00A0 E8 02               215 	lda	sp,2(sp)
                            216 ;	IncludeCustom/MessageIntro.c 24
                            217 ;	genIpush
                            218 ; _saveRegsForCall: sendSetSize: 0 deInUse: 0 bcInUse: 0 deSending: 0
   00A2 21 64 00            219 	ld	hl,#0x0064
   00A5 E5                  220 	push	hl
                            221 ;	genCall
   00A6 CD 00 00            222 	call	_delay
   00A9 E8 02               223 	lda	sp,2(sp)
                            224 ;	IncludeCustom/MessageIntro.c 25
                            225 ;	genIpush
                            226 ; _saveRegsForCall: sendSetSize: 0 deInUse: 0 bcInUse: 0 deSending: 0
   00AB 21 D9 18            227 	ld	hl,#__str_10
   00AE E5                  228 	push	hl
                            229 ;	genCall
   00AF CD 00 00            230 	call	_printf
   00B2 E8 02               231 	lda	sp,2(sp)
                            232 ;	IncludeCustom/MessageIntro.c 26
                            233 ;	genIpush
                            234 ; _saveRegsForCall: sendSetSize: 0 deInUse: 0 bcInUse: 0 deSending: 0
   00B4 21 64 00            235 	ld	hl,#0x0064
   00B7 E5                  236 	push	hl
                            237 ;	genCall
   00B8 CD 00 00            238 	call	_delay
   00BB E8 02               239 	lda	sp,2(sp)
                            240 ;	IncludeCustom/MessageIntro.c 27
                            241 ;	genIpush
                            242 ; _saveRegsForCall: sendSetSize: 0 deInUse: 0 bcInUse: 0 deSending: 0
   00BD 21 DB 18            243 	ld	hl,#__str_11
   00C0 E5                  244 	push	hl
                            245 ;	genCall
   00C1 CD 00 00            246 	call	_printf
   00C4 E8 02               247 	lda	sp,2(sp)
                            248 ;	IncludeCustom/MessageIntro.c 28
                            249 ;	genIpush
                            250 ; _saveRegsForCall: sendSetSize: 0 deInUse: 0 bcInUse: 0 deSending: 0
   00C6 21 64 00            251 	ld	hl,#0x0064
   00C9 E5                  252 	push	hl
                            253 ;	genCall
   00CA CD 00 00            254 	call	_delay
   00CD E8 02               255 	lda	sp,2(sp)
                            256 ;	IncludeCustom/MessageIntro.c 29
                            257 ;	genIpush
                            258 ; _saveRegsForCall: sendSetSize: 0 deInUse: 0 bcInUse: 0 deSending: 0
   00CF 21 DD 18            259 	ld	hl,#__str_12
   00D2 E5                  260 	push	hl
                            261 ;	genCall
   00D3 CD 00 00            262 	call	_printf
   00D6 E8 02               263 	lda	sp,2(sp)
                            264 ;	IncludeCustom/MessageIntro.c 30
                            265 ;	genIpush
                            266 ; _saveRegsForCall: sendSetSize: 0 deInUse: 0 bcInUse: 0 deSending: 0
   00D8 21 64 00            267 	ld	hl,#0x0064
   00DB E5                  268 	push	hl
                            269 ;	genCall
   00DC CD 00 00            270 	call	_delay
   00DF E8 02               271 	lda	sp,2(sp)
                            272 ;	IncludeCustom/MessageIntro.c 31
                            273 ;	genIpush
                            274 ; _saveRegsForCall: sendSetSize: 0 deInUse: 0 bcInUse: 0 deSending: 0
   00E1 21 DF 18            275 	ld	hl,#__str_13
   00E4 E5                  276 	push	hl
                            277 ;	genCall
   00E5 CD 00 00            278 	call	_printf
   00E8 E8 02               279 	lda	sp,2(sp)
                            280 ;	IncludeCustom/MessageIntro.c 32
                            281 ;	genIpush
                            282 ; _saveRegsForCall: sendSetSize: 0 deInUse: 0 bcInUse: 0 deSending: 0
   00EA 21 64 00            283 	ld	hl,#0x0064
   00ED E5                  284 	push	hl
                            285 ;	genCall
   00EE CD 00 00            286 	call	_delay
   00F1 E8 02               287 	lda	sp,2(sp)
                            288 ;	IncludeCustom/MessageIntro.c 33
                            289 ;	genIpush
                            290 ; _saveRegsForCall: sendSetSize: 0 deInUse: 0 bcInUse: 0 deSending: 0
   00F3 21 E1 18            291 	ld	hl,#__str_14
   00F6 E5                  292 	push	hl
                            293 ;	genCall
   00F7 CD 00 00            294 	call	_printf
   00FA E8 02               295 	lda	sp,2(sp)
                            296 ;	IncludeCustom/MessageIntro.c 34
                            297 ;	genIpush
                            298 ; _saveRegsForCall: sendSetSize: 0 deInUse: 0 bcInUse: 0 deSending: 0
   00FC 21 64 00            299 	ld	hl,#0x0064
   00FF E5                  300 	push	hl
                            301 ;	genCall
   0100 CD 00 00            302 	call	_delay
   0103 E8 02               303 	lda	sp,2(sp)
                            304 ;	IncludeCustom/MessageIntro.c 35
                            305 ;	genIpush
                            306 ; _saveRegsForCall: sendSetSize: 0 deInUse: 0 bcInUse: 0 deSending: 0
   0105 21 E3 18            307 	ld	hl,#__str_15
   0108 E5                  308 	push	hl
                            309 ;	genCall
   0109 CD 00 00            310 	call	_printf
   010C E8 02               311 	lda	sp,2(sp)
                            312 ;	IncludeCustom/MessageIntro.c 36
                            313 ;	genIpush
                            314 ; _saveRegsForCall: sendSetSize: 0 deInUse: 0 bcInUse: 0 deSending: 0
   010E 21 64 00            315 	ld	hl,#0x0064
   0111 E5                  316 	push	hl
                            317 ;	genCall
   0112 CD 00 00            318 	call	_delay
   0115 E8 02               319 	lda	sp,2(sp)
                            320 ;	IncludeCustom/MessageIntro.c 37
                            321 ;	genIpush
                            322 ; _saveRegsForCall: sendSetSize: 0 deInUse: 0 bcInUse: 0 deSending: 0
   0117 21 E5 18            323 	ld	hl,#__str_16
   011A E5                  324 	push	hl
                            325 ;	genCall
   011B CD 00 00            326 	call	_printf
   011E E8 02               327 	lda	sp,2(sp)
                            328 ;	IncludeCustom/MessageIntro.c 38
                            329 ;	genIpush
                            330 ; _saveRegsForCall: sendSetSize: 0 deInUse: 0 bcInUse: 0 deSending: 0
   0120 21 64 00            331 	ld	hl,#0x0064
   0123 E5                  332 	push	hl
                            333 ;	genCall
   0124 CD 00 00            334 	call	_delay
   0127 E8 02               335 	lda	sp,2(sp)
                            336 ;	IncludeCustom/MessageIntro.c 39
                            337 ;	genIpush
                            338 ; _saveRegsForCall: sendSetSize: 0 deInUse: 0 bcInUse: 0 deSending: 0
   0129 21 E7 18            339 	ld	hl,#__str_17
   012C E5                  340 	push	hl
                            341 ;	genCall
   012D CD 00 00            342 	call	_printf
   0130 E8 02               343 	lda	sp,2(sp)
                            344 ;	IncludeCustom/MessageIntro.c 40
                            345 ;	genIpush
                            346 ; _saveRegsForCall: sendSetSize: 0 deInUse: 0 bcInUse: 0 deSending: 0
   0132 21 64 00            347 	ld	hl,#0x0064
   0135 E5                  348 	push	hl
                            349 ;	genCall
   0136 CD 00 00            350 	call	_delay
   0139 E8 02               351 	lda	sp,2(sp)
                            352 ;	IncludeCustom/MessageIntro.c 41
                            353 ;	genIpush
                            354 ; _saveRegsForCall: sendSetSize: 0 deInUse: 0 bcInUse: 0 deSending: 0
   013B 21 E9 18            355 	ld	hl,#__str_18
   013E E5                  356 	push	hl
                            357 ;	genCall
   013F CD 00 00            358 	call	_printf
   0142 E8 02               359 	lda	sp,2(sp)
                            360 ;	IncludeCustom/MessageIntro.c 42
                            361 ;	genIpush
                            362 ; _saveRegsForCall: sendSetSize: 0 deInUse: 0 bcInUse: 0 deSending: 0
   0144 21 64 00            363 	ld	hl,#0x0064
   0147 E5                  364 	push	hl
                            365 ;	genCall
   0148 CD 00 00            366 	call	_delay
   014B E8 02               367 	lda	sp,2(sp)
                            368 ;	IncludeCustom/MessageIntro.c 43
                            369 ;	genIpush
                            370 ; _saveRegsForCall: sendSetSize: 0 deInUse: 0 bcInUse: 0 deSending: 0
   014D 21 ED 18            371 	ld	hl,#__str_19
   0150 E5                  372 	push	hl
                            373 ;	genCall
   0151 CD 00 00            374 	call	_printf
   0154 E8 02               375 	lda	sp,2(sp)
                            376 ;	IncludeCustom/MessageIntro.c 44
                            377 ;	genIpush
                            378 ; _saveRegsForCall: sendSetSize: 0 deInUse: 0 bcInUse: 0 deSending: 0
   0156 21 64 00            379 	ld	hl,#0x0064
   0159 E5                  380 	push	hl
                            381 ;	genCall
   015A CD 00 00            382 	call	_delay
   015D E8 02               383 	lda	sp,2(sp)
                            384 ;	IncludeCustom/MessageIntro.c 45
                            385 ;	genIpush
                            386 ; _saveRegsForCall: sendSetSize: 0 deInUse: 0 bcInUse: 0 deSending: 0
   015F 21 EF 18            387 	ld	hl,#__str_20
   0162 E5                  388 	push	hl
                            389 ;	genCall
   0163 CD 00 00            390 	call	_printf
   0166 E8 02               391 	lda	sp,2(sp)
                            392 ;	IncludeCustom/MessageIntro.c 46
                            393 ;	genIpush
                            394 ; _saveRegsForCall: sendSetSize: 0 deInUse: 0 bcInUse: 0 deSending: 0
   0168 21 64 00            395 	ld	hl,#0x0064
   016B E5                  396 	push	hl
                            397 ;	genCall
   016C CD 00 00            398 	call	_delay
   016F E8 02               399 	lda	sp,2(sp)
                            400 ;	IncludeCustom/MessageIntro.c 47
                            401 ;	genIpush
                            402 ; _saveRegsForCall: sendSetSize: 0 deInUse: 0 bcInUse: 0 deSending: 0
   0171 21 F1 18            403 	ld	hl,#__str_21
   0174 E5                  404 	push	hl
                            405 ;	genCall
   0175 CD 00 00            406 	call	_printf
   0178 E8 02               407 	lda	sp,2(sp)
                            408 ;	IncludeCustom/MessageIntro.c 48
                            409 ;	genIpush
                            410 ; _saveRegsForCall: sendSetSize: 0 deInUse: 0 bcInUse: 0 deSending: 0
   017A 21 64 00            411 	ld	hl,#0x0064
   017D E5                  412 	push	hl
                            413 ;	genCall
   017E CD 00 00            414 	call	_delay
   0181 E8 02               415 	lda	sp,2(sp)
                            416 ;	IncludeCustom/MessageIntro.c 49
                            417 ;	genIpush
                            418 ; _saveRegsForCall: sendSetSize: 0 deInUse: 0 bcInUse: 0 deSending: 0
   0183 21 F3 18            419 	ld	hl,#__str_22
   0186 E5                  420 	push	hl
                            421 ;	genCall
   0187 CD 00 00            422 	call	_printf
   018A E8 02               423 	lda	sp,2(sp)
                            424 ;	IncludeCustom/MessageIntro.c 50
                            425 ;	genIpush
                            426 ; _saveRegsForCall: sendSetSize: 0 deInUse: 0 bcInUse: 0 deSending: 0
   018C 21 64 00            427 	ld	hl,#0x0064
   018F E5                  428 	push	hl
                            429 ;	genCall
   0190 CD 00 00            430 	call	_delay
   0193 E8 02               431 	lda	sp,2(sp)
                            432 ;	IncludeCustom/MessageIntro.c 51
                            433 ;	genIpush
                            434 ; _saveRegsForCall: sendSetSize: 0 deInUse: 0 bcInUse: 0 deSending: 0
   0195 21 F5 18            435 	ld	hl,#__str_23
   0198 E5                  436 	push	hl
                            437 ;	genCall
   0199 CD 00 00            438 	call	_printf
   019C E8 02               439 	lda	sp,2(sp)
                            440 ;	IncludeCustom/MessageIntro.c 52
                            441 ;	genIpush
                            442 ; _saveRegsForCall: sendSetSize: 0 deInUse: 0 bcInUse: 0 deSending: 0
   019E 21 64 00            443 	ld	hl,#0x0064
   01A1 E5                  444 	push	hl
                            445 ;	genCall
   01A2 CD 00 00            446 	call	_delay
   01A5 E8 02               447 	lda	sp,2(sp)
                            448 ;	IncludeCustom/MessageIntro.c 53
                            449 ;	genIpush
                            450 ; _saveRegsForCall: sendSetSize: 0 deInUse: 0 bcInUse: 0 deSending: 0
   01A7 21 F7 18            451 	ld	hl,#__str_24
   01AA E5                  452 	push	hl
                            453 ;	genCall
   01AB CD 00 00            454 	call	_printf
   01AE E8 02               455 	lda	sp,2(sp)
                            456 ;	IncludeCustom/MessageIntro.c 54
                            457 ;	genIpush
                            458 ; _saveRegsForCall: sendSetSize: 0 deInUse: 0 bcInUse: 0 deSending: 0
   01B0 21 64 00            459 	ld	hl,#0x0064
   01B3 E5                  460 	push	hl
                            461 ;	genCall
   01B4 CD 00 00            462 	call	_delay
   01B7 E8 02               463 	lda	sp,2(sp)
                            464 ;	IncludeCustom/MessageIntro.c 55
                            465 ;	genIpush
                            466 ; _saveRegsForCall: sendSetSize: 0 deInUse: 0 bcInUse: 0 deSending: 0
   01B9 21 F9 18            467 	ld	hl,#__str_25
   01BC E5                  468 	push	hl
                            469 ;	genCall
   01BD CD 00 00            470 	call	_printf
   01C0 E8 02               471 	lda	sp,2(sp)
                            472 ;	IncludeCustom/MessageIntro.c 56
                            473 ;	genIpush
                            474 ; _saveRegsForCall: sendSetSize: 0 deInUse: 0 bcInUse: 0 deSending: 0
   01C2 21 64 00            475 	ld	hl,#0x0064
   01C5 E5                  476 	push	hl
                            477 ;	genCall
   01C6 CD 00 00            478 	call	_delay
   01C9 E8 02               479 	lda	sp,2(sp)
                            480 ;	IncludeCustom/MessageIntro.c 57
                            481 ;	genIpush
                            482 ; _saveRegsForCall: sendSetSize: 0 deInUse: 0 bcInUse: 0 deSending: 0
   01CB 21 FB 18            483 	ld	hl,#__str_26
   01CE E5                  484 	push	hl
                            485 ;	genCall
   01CF CD 00 00            486 	call	_printf
   01D2 E8 02               487 	lda	sp,2(sp)
                            488 ;	IncludeCustom/MessageIntro.c 58
                            489 ;	genIpush
                            490 ; _saveRegsForCall: sendSetSize: 0 deInUse: 0 bcInUse: 0 deSending: 0
   01D4 21 BC 02            491 	ld	hl,#0x02BC
   01D7 E5                  492 	push	hl
                            493 ;	genCall
   01D8 CD 00 00            494 	call	_delay
   01DB E8 02               495 	lda	sp,2(sp)
                            496 ;	IncludeCustom/MessageIntro.c 59
                            497 ;	genIpush
                            498 ; _saveRegsForCall: sendSetSize: 0 deInUse: 0 bcInUse: 0 deSending: 0
   01DD 21 FD 18            499 	ld	hl,#__str_27
   01E0 E5                  500 	push	hl
                            501 ;	genCall
   01E1 CD 00 00            502 	call	_printf
   01E4 E8 02               503 	lda	sp,2(sp)
                            504 ;	IncludeCustom/MessageIntro.c 60
                            505 ;	genIpush
                            506 ; _saveRegsForCall: sendSetSize: 0 deInUse: 0 bcInUse: 0 deSending: 0
   01E6 21 64 00            507 	ld	hl,#0x0064
   01E9 E5                  508 	push	hl
                            509 ;	genCall
   01EA CD 00 00            510 	call	_delay
   01ED E8 02               511 	lda	sp,2(sp)
                            512 ;	IncludeCustom/MessageIntro.c 61
                            513 ;	genIpush
                            514 ; _saveRegsForCall: sendSetSize: 0 deInUse: 0 bcInUse: 0 deSending: 0
   01EF 21 FF 18            515 	ld	hl,#__str_28
   01F2 E5                  516 	push	hl
                            517 ;	genCall
   01F3 CD 00 00            518 	call	_printf
   01F6 E8 02               519 	lda	sp,2(sp)
                            520 ;	IncludeCustom/MessageIntro.c 62
                            521 ;	genIpush
                            522 ; _saveRegsForCall: sendSetSize: 0 deInUse: 0 bcInUse: 0 deSending: 0
   01F8 21 64 00            523 	ld	hl,#0x0064
   01FB E5                  524 	push	hl
                            525 ;	genCall
   01FC CD 00 00            526 	call	_delay
   01FF E8 02               527 	lda	sp,2(sp)
                            528 ;	IncludeCustom/MessageIntro.c 63
                            529 ;	genIpush
                            530 ; _saveRegsForCall: sendSetSize: 0 deInUse: 0 bcInUse: 0 deSending: 0
   0201 21 01 19            531 	ld	hl,#__str_29
   0204 E5                  532 	push	hl
                            533 ;	genCall
   0205 CD 00 00            534 	call	_printf
   0208 E8 02               535 	lda	sp,2(sp)
                            536 ;	IncludeCustom/MessageIntro.c 64
                            537 ;	genIpush
                            538 ; _saveRegsForCall: sendSetSize: 0 deInUse: 0 bcInUse: 0 deSending: 0
   020A 21 64 00            539 	ld	hl,#0x0064
   020D E5                  540 	push	hl
                            541 ;	genCall
   020E CD 00 00            542 	call	_delay
   0211 E8 02               543 	lda	sp,2(sp)
                            544 ;	IncludeCustom/MessageIntro.c 65
                            545 ;	genIpush
                            546 ; _saveRegsForCall: sendSetSize: 0 deInUse: 0 bcInUse: 0 deSending: 0
   0213 21 03 19            547 	ld	hl,#__str_30
   0216 E5                  548 	push	hl
                            549 ;	genCall
   0217 CD 00 00            550 	call	_printf
   021A E8 02               551 	lda	sp,2(sp)
                            552 ;	IncludeCustom/MessageIntro.c 66
                            553 ;	genIpush
                            554 ; _saveRegsForCall: sendSetSize: 0 deInUse: 0 bcInUse: 0 deSending: 0
   021C 21 64 00            555 	ld	hl,#0x0064
   021F E5                  556 	push	hl
                            557 ;	genCall
   0220 CD 00 00            558 	call	_delay
   0223 E8 02               559 	lda	sp,2(sp)
                            560 ;	IncludeCustom/MessageIntro.c 67
                            561 ;	genIpush
                            562 ; _saveRegsForCall: sendSetSize: 0 deInUse: 0 bcInUse: 0 deSending: 0
   0225 21 05 19            563 	ld	hl,#__str_31
   0228 E5                  564 	push	hl
                            565 ;	genCall
   0229 CD 00 00            566 	call	_printf
   022C E8 02               567 	lda	sp,2(sp)
                            568 ;	IncludeCustom/MessageIntro.c 68
                            569 ;	genIpush
                            570 ; _saveRegsForCall: sendSetSize: 0 deInUse: 0 bcInUse: 0 deSending: 0
   022E 21 64 00            571 	ld	hl,#0x0064
   0231 E5                  572 	push	hl
                            573 ;	genCall
   0232 CD 00 00            574 	call	_delay
   0235 E8 02               575 	lda	sp,2(sp)
                            576 ;	IncludeCustom/MessageIntro.c 69
                            577 ;	genIpush
                            578 ; _saveRegsForCall: sendSetSize: 0 deInUse: 0 bcInUse: 0 deSending: 0
   0237 21 07 19            579 	ld	hl,#__str_32
   023A E5                  580 	push	hl
                            581 ;	genCall
   023B CD 00 00            582 	call	_printf
   023E E8 02               583 	lda	sp,2(sp)
                            584 ;	IncludeCustom/MessageIntro.c 70
                            585 ;	genIpush
                            586 ; _saveRegsForCall: sendSetSize: 0 deInUse: 0 bcInUse: 0 deSending: 0
   0240 21 64 00            587 	ld	hl,#0x0064
   0243 E5                  588 	push	hl
                            589 ;	genCall
   0244 CD 00 00            590 	call	_delay
   0247 E8 02               591 	lda	sp,2(sp)
                            592 ;	IncludeCustom/MessageIntro.c 71
                            593 ;	genIpush
                            594 ; _saveRegsForCall: sendSetSize: 0 deInUse: 0 bcInUse: 0 deSending: 0
   0249 21 0B 19            595 	ld	hl,#__str_33
   024C E5                  596 	push	hl
                            597 ;	genCall
   024D CD 00 00            598 	call	_printf
   0250 E8 02               599 	lda	sp,2(sp)
                            600 ;	IncludeCustom/MessageIntro.c 72
                            601 ;	genIpush
                            602 ; _saveRegsForCall: sendSetSize: 0 deInUse: 0 bcInUse: 0 deSending: 0
   0252 21 64 00            603 	ld	hl,#0x0064
   0255 E5                  604 	push	hl
                            605 ;	genCall
   0256 CD 00 00            606 	call	_delay
   0259 E8 02               607 	lda	sp,2(sp)
                            608 ;	IncludeCustom/MessageIntro.c 73
                            609 ;	genIpush
                            610 ; _saveRegsForCall: sendSetSize: 0 deInUse: 0 bcInUse: 0 deSending: 0
   025B 21 0D 19            611 	ld	hl,#__str_34
   025E E5                  612 	push	hl
                            613 ;	genCall
   025F CD 00 00            614 	call	_printf
   0262 E8 02               615 	lda	sp,2(sp)
                            616 ;	IncludeCustom/MessageIntro.c 74
                            617 ;	genIpush
                            618 ; _saveRegsForCall: sendSetSize: 0 deInUse: 0 bcInUse: 0 deSending: 0
   0264 21 64 00            619 	ld	hl,#0x0064
   0267 E5                  620 	push	hl
                            621 ;	genCall
   0268 CD 00 00            622 	call	_delay
   026B E8 02               623 	lda	sp,2(sp)
                            624 ;	IncludeCustom/MessageIntro.c 75
                            625 ;	genIpush
                            626 ; _saveRegsForCall: sendSetSize: 0 deInUse: 0 bcInUse: 0 deSending: 0
   026D 21 0F 19            627 	ld	hl,#__str_35
   0270 E5                  628 	push	hl
                            629 ;	genCall
   0271 CD 00 00            630 	call	_printf
   0274 E8 02               631 	lda	sp,2(sp)
                            632 ;	IncludeCustom/MessageIntro.c 76
                            633 ;	genIpush
                            634 ; _saveRegsForCall: sendSetSize: 0 deInUse: 0 bcInUse: 0 deSending: 0
   0276 21 64 00            635 	ld	hl,#0x0064
   0279 E5                  636 	push	hl
                            637 ;	genCall
   027A CD 00 00            638 	call	_delay
   027D E8 02               639 	lda	sp,2(sp)
                            640 ;	IncludeCustom/MessageIntro.c 77
                            641 ;	genIpush
                            642 ; _saveRegsForCall: sendSetSize: 0 deInUse: 0 bcInUse: 0 deSending: 0
   027F 21 11 19            643 	ld	hl,#__str_36
   0282 E5                  644 	push	hl
                            645 ;	genCall
   0283 CD 00 00            646 	call	_printf
   0286 E8 02               647 	lda	sp,2(sp)
                            648 ;	IncludeCustom/MessageIntro.c 78
                            649 ;	genIpush
                            650 ; _saveRegsForCall: sendSetSize: 0 deInUse: 0 bcInUse: 0 deSending: 0
   0288 21 64 00            651 	ld	hl,#0x0064
   028B E5                  652 	push	hl
                            653 ;	genCall
   028C CD 00 00            654 	call	_delay
   028F E8 02               655 	lda	sp,2(sp)
                            656 ;	IncludeCustom/MessageIntro.c 79
                            657 ;	genIpush
                            658 ; _saveRegsForCall: sendSetSize: 0 deInUse: 0 bcInUse: 0 deSending: 0
   0291 21 13 19            659 	ld	hl,#__str_37
   0294 E5                  660 	push	hl
                            661 ;	genCall
   0295 CD 00 00            662 	call	_printf
   0298 E8 02               663 	lda	sp,2(sp)
                            664 ;	IncludeCustom/MessageIntro.c 80
                            665 ;	genIpush
                            666 ; _saveRegsForCall: sendSetSize: 0 deInUse: 0 bcInUse: 0 deSending: 0
   029A 21 64 00            667 	ld	hl,#0x0064
   029D E5                  668 	push	hl
                            669 ;	genCall
   029E CD 00 00            670 	call	_delay
   02A1 E8 02               671 	lda	sp,2(sp)
                            672 ;	IncludeCustom/MessageIntro.c 81
                            673 ;	genIpush
                            674 ; _saveRegsForCall: sendSetSize: 0 deInUse: 0 bcInUse: 0 deSending: 0
   02A3 21 15 19            675 	ld	hl,#__str_38
   02A6 E5                  676 	push	hl
                            677 ;	genCall
   02A7 CD 00 00            678 	call	_printf
   02AA E8 02               679 	lda	sp,2(sp)
                            680 ;	IncludeCustom/MessageIntro.c 82
                            681 ;	genIpush
                            682 ; _saveRegsForCall: sendSetSize: 0 deInUse: 0 bcInUse: 0 deSending: 0
   02AC 21 64 00            683 	ld	hl,#0x0064
   02AF E5                  684 	push	hl
                            685 ;	genCall
   02B0 CD 00 00            686 	call	_delay
   02B3 E8 02               687 	lda	sp,2(sp)
                            688 ;	IncludeCustom/MessageIntro.c 83
                            689 ;	genIpush
                            690 ; _saveRegsForCall: sendSetSize: 0 deInUse: 0 bcInUse: 0 deSending: 0
   02B5 21 17 19            691 	ld	hl,#__str_39
   02B8 E5                  692 	push	hl
                            693 ;	genCall
   02B9 CD 00 00            694 	call	_printf
   02BC E8 02               695 	lda	sp,2(sp)
                            696 ;	IncludeCustom/MessageIntro.c 84
                            697 ;	genIpush
                            698 ; _saveRegsForCall: sendSetSize: 0 deInUse: 0 bcInUse: 0 deSending: 0
   02BE 21 64 00            699 	ld	hl,#0x0064
   02C1 E5                  700 	push	hl
                            701 ;	genCall
   02C2 CD 00 00            702 	call	_delay
   02C5 E8 02               703 	lda	sp,2(sp)
                            704 ;	IncludeCustom/MessageIntro.c 85
                            705 ;	genIpush
                            706 ; _saveRegsForCall: sendSetSize: 0 deInUse: 0 bcInUse: 0 deSending: 0
   02C7 21 19 19            707 	ld	hl,#__str_40
   02CA E5                  708 	push	hl
                            709 ;	genCall
   02CB CD 00 00            710 	call	_printf
   02CE E8 02               711 	lda	sp,2(sp)
                            712 ;	IncludeCustom/MessageIntro.c 86
                            713 ;	genIpush
                            714 ; _saveRegsForCall: sendSetSize: 0 deInUse: 0 bcInUse: 0 deSending: 0
   02D0 21 64 00            715 	ld	hl,#0x0064
   02D3 E5                  716 	push	hl
                            717 ;	genCall
   02D4 CD 00 00            718 	call	_delay
   02D7 E8 02               719 	lda	sp,2(sp)
                            720 ;	IncludeCustom/MessageIntro.c 87
                            721 ;	genIpush
                            722 ; _saveRegsForCall: sendSetSize: 0 deInUse: 0 bcInUse: 0 deSending: 0
   02D9 21 1B 19            723 	ld	hl,#__str_41
   02DC E5                  724 	push	hl
                            725 ;	genCall
   02DD CD 00 00            726 	call	_printf
   02E0 E8 02               727 	lda	sp,2(sp)
                            728 ;	IncludeCustom/MessageIntro.c 88
                            729 ;	genIpush
                            730 ; _saveRegsForCall: sendSetSize: 0 deInUse: 0 bcInUse: 0 deSending: 0
   02E2 21 64 00            731 	ld	hl,#0x0064
   02E5 E5                  732 	push	hl
                            733 ;	genCall
   02E6 CD 00 00            734 	call	_delay
   02E9 E8 02               735 	lda	sp,2(sp)
                            736 ;	IncludeCustom/MessageIntro.c 89
                            737 ;	genIpush
                            738 ; _saveRegsForCall: sendSetSize: 0 deInUse: 0 bcInUse: 0 deSending: 0
   02EB 21 1D 19            739 	ld	hl,#__str_42
   02EE E5                  740 	push	hl
                            741 ;	genCall
   02EF CD 00 00            742 	call	_printf
   02F2 E8 02               743 	lda	sp,2(sp)
                            744 ;	IncludeCustom/MessageIntro.c 90
                            745 ;	genIpush
                            746 ; _saveRegsForCall: sendSetSize: 0 deInUse: 0 bcInUse: 0 deSending: 0
   02F4 21 64 00            747 	ld	hl,#0x0064
   02F7 E5                  748 	push	hl
                            749 ;	genCall
   02F8 CD 00 00            750 	call	_delay
   02FB E8 02               751 	lda	sp,2(sp)
                            752 ;	IncludeCustom/MessageIntro.c 91
                            753 ;	genIpush
                            754 ; _saveRegsForCall: sendSetSize: 0 deInUse: 0 bcInUse: 0 deSending: 0
   02FD 21 1F 19            755 	ld	hl,#__str_43
   0300 E5                  756 	push	hl
                            757 ;	genCall
   0301 CD 00 00            758 	call	_printf
   0304 E8 02               759 	lda	sp,2(sp)
                            760 ;	IncludeCustom/MessageIntro.c 92
                            761 ;	genIpush
                            762 ; _saveRegsForCall: sendSetSize: 0 deInUse: 0 bcInUse: 0 deSending: 0
   0306 21 64 00            763 	ld	hl,#0x0064
   0309 E5                  764 	push	hl
                            765 ;	genCall
   030A CD 00 00            766 	call	_delay
   030D E8 02               767 	lda	sp,2(sp)
                            768 ;	IncludeCustom/MessageIntro.c 93
                            769 ;	genIpush
                            770 ; _saveRegsForCall: sendSetSize: 0 deInUse: 0 bcInUse: 0 deSending: 0
   030F 21 21 19            771 	ld	hl,#__str_44
   0312 E5                  772 	push	hl
                            773 ;	genCall
   0313 CD 00 00            774 	call	_printf
   0316 E8 02               775 	lda	sp,2(sp)
                            776 ;	IncludeCustom/MessageIntro.c 94
                            777 ;	genIpush
                            778 ; _saveRegsForCall: sendSetSize: 0 deInUse: 0 bcInUse: 0 deSending: 0
   0318 21 64 00            779 	ld	hl,#0x0064
   031B E5                  780 	push	hl
                            781 ;	genCall
   031C CD 00 00            782 	call	_delay
   031F E8 02               783 	lda	sp,2(sp)
                            784 ;	IncludeCustom/MessageIntro.c 95
                            785 ;	genIpush
                            786 ; _saveRegsForCall: sendSetSize: 0 deInUse: 0 bcInUse: 0 deSending: 0
   0321 21 23 19            787 	ld	hl,#__str_45
   0324 E5                  788 	push	hl
                            789 ;	genCall
   0325 CD 00 00            790 	call	_printf
   0328 E8 02               791 	lda	sp,2(sp)
                            792 ;	IncludeCustom/MessageIntro.c 96
                            793 ;	genIpush
                            794 ; _saveRegsForCall: sendSetSize: 0 deInUse: 0 bcInUse: 0 deSending: 0
   032A 21 64 00            795 	ld	hl,#0x0064
   032D E5                  796 	push	hl
                            797 ;	genCall
   032E CD 00 00            798 	call	_delay
   0331 E8 02               799 	lda	sp,2(sp)
                            800 ;	IncludeCustom/MessageIntro.c 97
                            801 ;	genIpush
                            802 ; _saveRegsForCall: sendSetSize: 0 deInUse: 0 bcInUse: 0 deSending: 0
   0333 21 25 19            803 	ld	hl,#__str_46
   0336 E5                  804 	push	hl
                            805 ;	genCall
   0337 CD 00 00            806 	call	_printf
   033A E8 02               807 	lda	sp,2(sp)
                            808 ;	IncludeCustom/MessageIntro.c 98
                            809 ;	genIpush
                            810 ; _saveRegsForCall: sendSetSize: 0 deInUse: 0 bcInUse: 0 deSending: 0
   033C 21 64 00            811 	ld	hl,#0x0064
   033F E5                  812 	push	hl
                            813 ;	genCall
   0340 CD 00 00            814 	call	_delay
   0343 E8 02               815 	lda	sp,2(sp)
                            816 ;	IncludeCustom/MessageIntro.c 99
                            817 ;	genIpush
                            818 ; _saveRegsForCall: sendSetSize: 0 deInUse: 0 bcInUse: 0 deSending: 0
   0345 21 27 19            819 	ld	hl,#__str_47
   0348 E5                  820 	push	hl
                            821 ;	genCall
   0349 CD 00 00            822 	call	_printf
   034C E8 02               823 	lda	sp,2(sp)
                            824 ;	IncludeCustom/MessageIntro.c 100
                            825 ;	genIpush
                            826 ; _saveRegsForCall: sendSetSize: 0 deInUse: 0 bcInUse: 0 deSending: 0
   034E 21 64 00            827 	ld	hl,#0x0064
   0351 E5                  828 	push	hl
                            829 ;	genCall
   0352 CD 00 00            830 	call	_delay
   0355 E8 02               831 	lda	sp,2(sp)
                            832 ;	IncludeCustom/MessageIntro.c 101
                            833 ;	genIpush
                            834 ; _saveRegsForCall: sendSetSize: 0 deInUse: 0 bcInUse: 0 deSending: 0
   0357 21 29 19            835 	ld	hl,#__str_48
   035A E5                  836 	push	hl
                            837 ;	genCall
   035B CD 00 00            838 	call	_printf
   035E E8 02               839 	lda	sp,2(sp)
                            840 ;	IncludeCustom/MessageIntro.c 102
                            841 ;	genIpush
                            842 ; _saveRegsForCall: sendSetSize: 0 deInUse: 0 bcInUse: 0 deSending: 0
   0360 21 64 00            843 	ld	hl,#0x0064
   0363 E5                  844 	push	hl
                            845 ;	genCall
   0364 CD 00 00            846 	call	_delay
   0367 E8 02               847 	lda	sp,2(sp)
                            848 ;	IncludeCustom/MessageIntro.c 103
                            849 ;	genIpush
                            850 ; _saveRegsForCall: sendSetSize: 0 deInUse: 0 bcInUse: 0 deSending: 0
   0369 21 2B 19            851 	ld	hl,#__str_49
   036C E5                  852 	push	hl
                            853 ;	genCall
   036D CD 00 00            854 	call	_printf
   0370 E8 02               855 	lda	sp,2(sp)
                            856 ;	IncludeCustom/MessageIntro.c 104
                            857 ;	genIpush
                            858 ; _saveRegsForCall: sendSetSize: 0 deInUse: 0 bcInUse: 0 deSending: 0
   0372 21 64 00            859 	ld	hl,#0x0064
   0375 E5                  860 	push	hl
                            861 ;	genCall
   0376 CD 00 00            862 	call	_delay
   0379 E8 02               863 	lda	sp,2(sp)
                            864 ;	IncludeCustom/MessageIntro.c 105
                            865 ;	genIpush
                            866 ; _saveRegsForCall: sendSetSize: 0 deInUse: 0 bcInUse: 0 deSending: 0
   037B 21 2D 19            867 	ld	hl,#__str_50
   037E E5                  868 	push	hl
                            869 ;	genCall
   037F CD 00 00            870 	call	_printf
   0382 E8 02               871 	lda	sp,2(sp)
                            872 ;	IncludeCustom/MessageIntro.c 106
                            873 ;	genIpush
                            874 ; _saveRegsForCall: sendSetSize: 0 deInUse: 0 bcInUse: 0 deSending: 0
   0384 21 64 00            875 	ld	hl,#0x0064
   0387 E5                  876 	push	hl
                            877 ;	genCall
   0388 CD 00 00            878 	call	_delay
   038B E8 02               879 	lda	sp,2(sp)
                            880 ;	IncludeCustom/MessageIntro.c 107
                            881 ;	genIpush
                            882 ; _saveRegsForCall: sendSetSize: 0 deInUse: 0 bcInUse: 0 deSending: 0
   038D 21 31 19            883 	ld	hl,#__str_51
   0390 E5                  884 	push	hl
                            885 ;	genCall
   0391 CD 00 00            886 	call	_printf
   0394 E8 02               887 	lda	sp,2(sp)
                            888 ;	IncludeCustom/MessageIntro.c 108
                            889 ;	genIpush
                            890 ; _saveRegsForCall: sendSetSize: 0 deInUse: 0 bcInUse: 0 deSending: 0
   0396 21 64 00            891 	ld	hl,#0x0064
   0399 E5                  892 	push	hl
                            893 ;	genCall
   039A CD 00 00            894 	call	_delay
   039D E8 02               895 	lda	sp,2(sp)
                            896 ;	IncludeCustom/MessageIntro.c 109
                            897 ;	genIpush
                            898 ; _saveRegsForCall: sendSetSize: 0 deInUse: 0 bcInUse: 0 deSending: 0
   039F 21 33 19            899 	ld	hl,#__str_52
   03A2 E5                  900 	push	hl
                            901 ;	genCall
   03A3 CD 00 00            902 	call	_printf
   03A6 E8 02               903 	lda	sp,2(sp)
                            904 ;	IncludeCustom/MessageIntro.c 110
                            905 ;	genIpush
                            906 ; _saveRegsForCall: sendSetSize: 0 deInUse: 0 bcInUse: 0 deSending: 0
   03A8 21 64 00            907 	ld	hl,#0x0064
   03AB E5                  908 	push	hl
                            909 ;	genCall
   03AC CD 00 00            910 	call	_delay
   03AF E8 02               911 	lda	sp,2(sp)
                            912 ;	IncludeCustom/MessageIntro.c 111
                            913 ;	genIpush
                            914 ; _saveRegsForCall: sendSetSize: 0 deInUse: 0 bcInUse: 0 deSending: 0
   03B1 21 35 19            915 	ld	hl,#__str_53
   03B4 E5                  916 	push	hl
                            917 ;	genCall
   03B5 CD 00 00            918 	call	_printf
   03B8 E8 02               919 	lda	sp,2(sp)
                            920 ;	IncludeCustom/MessageIntro.c 112
                            921 ;	genIpush
                            922 ; _saveRegsForCall: sendSetSize: 0 deInUse: 0 bcInUse: 0 deSending: 0
   03BA 21 64 00            923 	ld	hl,#0x0064
   03BD E5                  924 	push	hl
                            925 ;	genCall
   03BE CD 00 00            926 	call	_delay
   03C1 E8 02               927 	lda	sp,2(sp)
                            928 ;	IncludeCustom/MessageIntro.c 113
                            929 ;	genIpush
                            930 ; _saveRegsForCall: sendSetSize: 0 deInUse: 0 bcInUse: 0 deSending: 0
   03C3 21 37 19            931 	ld	hl,#__str_54
   03C6 E5                  932 	push	hl
                            933 ;	genCall
   03C7 CD 00 00            934 	call	_printf
   03CA E8 02               935 	lda	sp,2(sp)
                            936 ;	IncludeCustom/MessageIntro.c 114
                            937 ;	genIpush
                            938 ; _saveRegsForCall: sendSetSize: 0 deInUse: 0 bcInUse: 0 deSending: 0
   03CC 21 64 00            939 	ld	hl,#0x0064
   03CF E5                  940 	push	hl
                            941 ;	genCall
   03D0 CD 00 00            942 	call	_delay
   03D3 E8 02               943 	lda	sp,2(sp)
                            944 ;	IncludeCustom/MessageIntro.c 115
                            945 ;	genIpush
                            946 ; _saveRegsForCall: sendSetSize: 0 deInUse: 0 bcInUse: 0 deSending: 0
   03D5 21 39 19            947 	ld	hl,#__str_55
   03D8 E5                  948 	push	hl
                            949 ;	genCall
   03D9 CD 00 00            950 	call	_printf
   03DC E8 02               951 	lda	sp,2(sp)
                            952 ;	IncludeCustom/MessageIntro.c 116
                            953 ;	genIpush
                            954 ; _saveRegsForCall: sendSetSize: 0 deInUse: 0 bcInUse: 0 deSending: 0
   03DE 21 64 00            955 	ld	hl,#0x0064
   03E1 E5                  956 	push	hl
                            957 ;	genCall
   03E2 CD 00 00            958 	call	_delay
   03E5 E8 02               959 	lda	sp,2(sp)
                            960 ;	IncludeCustom/MessageIntro.c 117
                            961 ;	genIpush
                            962 ; _saveRegsForCall: sendSetSize: 0 deInUse: 0 bcInUse: 0 deSending: 0
   03E7 21 3B 19            963 	ld	hl,#__str_56
   03EA E5                  964 	push	hl
                            965 ;	genCall
   03EB CD 00 00            966 	call	_printf
   03EE E8 02               967 	lda	sp,2(sp)
                            968 ;	IncludeCustom/MessageIntro.c 118
                            969 ;	genIpush
                            970 ; _saveRegsForCall: sendSetSize: 0 deInUse: 0 bcInUse: 0 deSending: 0
   03F0 21 64 00            971 	ld	hl,#0x0064
   03F3 E5                  972 	push	hl
                            973 ;	genCall
   03F4 CD 00 00            974 	call	_delay
   03F7 E8 02               975 	lda	sp,2(sp)
                            976 ;	IncludeCustom/MessageIntro.c 119
                            977 ;	genIpush
                            978 ; _saveRegsForCall: sendSetSize: 0 deInUse: 0 bcInUse: 0 deSending: 0
   03F9 21 3D 19            979 	ld	hl,#__str_57
   03FC E5                  980 	push	hl
                            981 ;	genCall
   03FD CD 00 00            982 	call	_printf
   0400 E8 02               983 	lda	sp,2(sp)
                            984 ;	IncludeCustom/MessageIntro.c 120
                            985 ;	genIpush
                            986 ; _saveRegsForCall: sendSetSize: 0 deInUse: 0 bcInUse: 0 deSending: 0
   0402 21 64 00            987 	ld	hl,#0x0064
   0405 E5                  988 	push	hl
                            989 ;	genCall
   0406 CD 00 00            990 	call	_delay
   0409 E8 02               991 	lda	sp,2(sp)
                            992 ;	IncludeCustom/MessageIntro.c 121
                            993 ;	genIpush
                            994 ; _saveRegsForCall: sendSetSize: 0 deInUse: 0 bcInUse: 0 deSending: 0
   040B 21 3F 19            995 	ld	hl,#__str_58
   040E E5                  996 	push	hl
                            997 ;	genCall
   040F CD 00 00            998 	call	_printf
   0412 E8 02               999 	lda	sp,2(sp)
                           1000 ;	IncludeCustom/MessageIntro.c 122
                           1001 ;	genIpush
                           1002 ; _saveRegsForCall: sendSetSize: 0 deInUse: 0 bcInUse: 0 deSending: 0
   0414 21 64 00           1003 	ld	hl,#0x0064
   0417 E5                 1004 	push	hl
                           1005 ;	genCall
   0418 CD 00 00           1006 	call	_delay
   041B E8 02              1007 	lda	sp,2(sp)
                           1008 ;	IncludeCustom/MessageIntro.c 123
                           1009 ;	genIpush
                           1010 ; _saveRegsForCall: sendSetSize: 0 deInUse: 0 bcInUse: 0 deSending: 0
   041D 21 41 19           1011 	ld	hl,#__str_59
   0420 E5                 1012 	push	hl
                           1013 ;	genCall
   0421 CD 00 00           1014 	call	_printf
   0424 E8 02              1015 	lda	sp,2(sp)
                           1016 ;	IncludeCustom/MessageIntro.c 124
                           1017 ;	genIpush
                           1018 ; _saveRegsForCall: sendSetSize: 0 deInUse: 0 bcInUse: 0 deSending: 0
   0426 21 64 00           1019 	ld	hl,#0x0064
   0429 E5                 1020 	push	hl
                           1021 ;	genCall
   042A CD 00 00           1022 	call	_delay
   042D E8 02              1023 	lda	sp,2(sp)
                           1024 ;	IncludeCustom/MessageIntro.c 125
                           1025 ;	genIpush
                           1026 ; _saveRegsForCall: sendSetSize: 0 deInUse: 0 bcInUse: 0 deSending: 0
   042F 21 43 19           1027 	ld	hl,#__str_60
   0432 E5                 1028 	push	hl
                           1029 ;	genCall
   0433 CD 00 00           1030 	call	_printf
   0436 E8 02              1031 	lda	sp,2(sp)
                           1032 ;	IncludeCustom/MessageIntro.c 126
                           1033 ;	genIpush
                           1034 ; _saveRegsForCall: sendSetSize: 0 deInUse: 0 bcInUse: 0 deSending: 0
   0438 21 64 00           1035 	ld	hl,#0x0064
   043B E5                 1036 	push	hl
                           1037 ;	genCall
   043C CD 00 00           1038 	call	_delay
   043F E8 02              1039 	lda	sp,2(sp)
                           1040 ;	IncludeCustom/MessageIntro.c 127
                           1041 ;	genIpush
                           1042 ; _saveRegsForCall: sendSetSize: 0 deInUse: 0 bcInUse: 0 deSending: 0
   0441 21 45 19           1043 	ld	hl,#__str_61
   0444 E5                 1044 	push	hl
                           1045 ;	genCall
   0445 CD 00 00           1046 	call	_printf
   0448 E8 02              1047 	lda	sp,2(sp)
                           1048 ;	IncludeCustom/MessageIntro.c 128
                           1049 ;	genIpush
                           1050 ; _saveRegsForCall: sendSetSize: 0 deInUse: 0 bcInUse: 0 deSending: 0
   044A 21 BC 02           1051 	ld	hl,#0x02BC
   044D E5                 1052 	push	hl
                           1053 ;	genCall
   044E CD 00 00           1054 	call	_delay
   0451 E8 02              1055 	lda	sp,2(sp)
                           1056 ;	IncludeCustom/MessageIntro.c 129
                           1057 ;	genIpush
                           1058 ; _saveRegsForCall: sendSetSize: 0 deInUse: 0 bcInUse: 0 deSending: 0
   0453 21 47 19           1059 	ld	hl,#__str_62
   0456 E5                 1060 	push	hl
                           1061 ;	genCall
   0457 CD 00 00           1062 	call	_printf
   045A E8 02              1063 	lda	sp,2(sp)
                           1064 ;	IncludeCustom/MessageIntro.c 130
                           1065 ;	genIpush
                           1066 ; _saveRegsForCall: sendSetSize: 0 deInUse: 0 bcInUse: 0 deSending: 0
   045C 21 64 00           1067 	ld	hl,#0x0064
   045F E5                 1068 	push	hl
                           1069 ;	genCall
   0460 CD 00 00           1070 	call	_delay
   0463 E8 02              1071 	lda	sp,2(sp)
                           1072 ;	IncludeCustom/MessageIntro.c 131
                           1073 ;	genIpush
                           1074 ; _saveRegsForCall: sendSetSize: 0 deInUse: 0 bcInUse: 0 deSending: 0
   0465 21 4B 19           1075 	ld	hl,#__str_63
   0468 E5                 1076 	push	hl
                           1077 ;	genCall
   0469 CD 00 00           1078 	call	_printf
   046C E8 02              1079 	lda	sp,2(sp)
                           1080 ;	IncludeCustom/MessageIntro.c 132
                           1081 ;	genIpush
                           1082 ; _saveRegsForCall: sendSetSize: 0 deInUse: 0 bcInUse: 0 deSending: 0
   046E 21 64 00           1083 	ld	hl,#0x0064
   0471 E5                 1084 	push	hl
                           1085 ;	genCall
   0472 CD 00 00           1086 	call	_delay
   0475 E8 02              1087 	lda	sp,2(sp)
                           1088 ;	IncludeCustom/MessageIntro.c 133
                           1089 ;	genIpush
                           1090 ; _saveRegsForCall: sendSetSize: 0 deInUse: 0 bcInUse: 0 deSending: 0
   0477 21 4D 19           1091 	ld	hl,#__str_64
   047A E5                 1092 	push	hl
                           1093 ;	genCall
   047B CD 00 00           1094 	call	_printf
   047E E8 02              1095 	lda	sp,2(sp)
                           1096 ;	IncludeCustom/MessageIntro.c 134
                           1097 ;	genIpush
                           1098 ; _saveRegsForCall: sendSetSize: 0 deInUse: 0 bcInUse: 0 deSending: 0
   0480 21 64 00           1099 	ld	hl,#0x0064
   0483 E5                 1100 	push	hl
                           1101 ;	genCall
   0484 CD 00 00           1102 	call	_delay
   0487 E8 02              1103 	lda	sp,2(sp)
                           1104 ;	IncludeCustom/MessageIntro.c 135
                           1105 ;	genIpush
                           1106 ; _saveRegsForCall: sendSetSize: 0 deInUse: 0 bcInUse: 0 deSending: 0
   0489 21 4F 19           1107 	ld	hl,#__str_65
   048C E5                 1108 	push	hl
                           1109 ;	genCall
   048D CD 00 00           1110 	call	_printf
   0490 E8 02              1111 	lda	sp,2(sp)
                           1112 ;	IncludeCustom/MessageIntro.c 136
                           1113 ;	genIpush
                           1114 ; _saveRegsForCall: sendSetSize: 0 deInUse: 0 bcInUse: 0 deSending: 0
   0492 21 64 00           1115 	ld	hl,#0x0064
   0495 E5                 1116 	push	hl
                           1117 ;	genCall
   0496 CD 00 00           1118 	call	_delay
   0499 E8 02              1119 	lda	sp,2(sp)
                           1120 ;	IncludeCustom/MessageIntro.c 137
                           1121 ;	genIpush
                           1122 ; _saveRegsForCall: sendSetSize: 0 deInUse: 0 bcInUse: 0 deSending: 0
   049B 21 51 19           1123 	ld	hl,#__str_66
   049E E5                 1124 	push	hl
                           1125 ;	genCall
   049F CD 00 00           1126 	call	_printf
   04A2 E8 02              1127 	lda	sp,2(sp)
                           1128 ;	IncludeCustom/MessageIntro.c 138
                           1129 ;	genIpush
                           1130 ; _saveRegsForCall: sendSetSize: 0 deInUse: 0 bcInUse: 0 deSending: 0
   04A4 21 64 00           1131 	ld	hl,#0x0064
   04A7 E5                 1132 	push	hl
                           1133 ;	genCall
   04A8 CD 00 00           1134 	call	_delay
   04AB E8 02              1135 	lda	sp,2(sp)
                           1136 ;	IncludeCustom/MessageIntro.c 139
                           1137 ;	genIpush
                           1138 ; _saveRegsForCall: sendSetSize: 0 deInUse: 0 bcInUse: 0 deSending: 0
   04AD 21 53 19           1139 	ld	hl,#__str_67
   04B0 E5                 1140 	push	hl
                           1141 ;	genCall
   04B1 CD 00 00           1142 	call	_printf
   04B4 E8 02              1143 	lda	sp,2(sp)
                           1144 ;	IncludeCustom/MessageIntro.c 140
                           1145 ;	genIpush
                           1146 ; _saveRegsForCall: sendSetSize: 0 deInUse: 0 bcInUse: 0 deSending: 0
   04B6 21 64 00           1147 	ld	hl,#0x0064
   04B9 E5                 1148 	push	hl
                           1149 ;	genCall
   04BA CD 00 00           1150 	call	_delay
   04BD E8 02              1151 	lda	sp,2(sp)
                           1152 ;	IncludeCustom/MessageIntro.c 141
                           1153 ;	genIpush
                           1154 ; _saveRegsForCall: sendSetSize: 0 deInUse: 0 bcInUse: 0 deSending: 0
   04BF 21 55 19           1155 	ld	hl,#__str_68
   04C2 E5                 1156 	push	hl
                           1157 ;	genCall
   04C3 CD 00 00           1158 	call	_printf
   04C6 E8 02              1159 	lda	sp,2(sp)
                           1160 ;	IncludeCustom/MessageIntro.c 142
                           1161 ;	genIpush
                           1162 ; _saveRegsForCall: sendSetSize: 0 deInUse: 0 bcInUse: 0 deSending: 0
   04C8 21 64 00           1163 	ld	hl,#0x0064
   04CB E5                 1164 	push	hl
                           1165 ;	genCall
   04CC CD 00 00           1166 	call	_delay
   04CF E8 02              1167 	lda	sp,2(sp)
                           1168 ;	IncludeCustom/MessageIntro.c 143
                           1169 ;	genIpush
                           1170 ; _saveRegsForCall: sendSetSize: 0 deInUse: 0 bcInUse: 0 deSending: 0
   04D1 21 57 19           1171 	ld	hl,#__str_69
   04D4 E5                 1172 	push	hl
                           1173 ;	genCall
   04D5 CD 00 00           1174 	call	_printf
   04D8 E8 02              1175 	lda	sp,2(sp)
                           1176 ;	IncludeCustom/MessageIntro.c 144
                           1177 ;	genIpush
                           1178 ; _saveRegsForCall: sendSetSize: 0 deInUse: 0 bcInUse: 0 deSending: 0
   04DA 21 64 00           1179 	ld	hl,#0x0064
   04DD E5                 1180 	push	hl
                           1181 ;	genCall
   04DE CD 00 00           1182 	call	_delay
   04E1 E8 02              1183 	lda	sp,2(sp)
                           1184 ;	IncludeCustom/MessageIntro.c 145
                           1185 ;	genIpush
                           1186 ; _saveRegsForCall: sendSetSize: 0 deInUse: 0 bcInUse: 0 deSending: 0
   04E3 21 59 19           1187 	ld	hl,#__str_70
   04E6 E5                 1188 	push	hl
                           1189 ;	genCall
   04E7 CD 00 00           1190 	call	_printf
   04EA E8 02              1191 	lda	sp,2(sp)
                           1192 ;	IncludeCustom/MessageIntro.c 146
                           1193 ;	genIpush
                           1194 ; _saveRegsForCall: sendSetSize: 0 deInUse: 0 bcInUse: 0 deSending: 0
   04EC 21 64 00           1195 	ld	hl,#0x0064
   04EF E5                 1196 	push	hl
                           1197 ;	genCall
   04F0 CD 00 00           1198 	call	_delay
   04F3 E8 02              1199 	lda	sp,2(sp)
                           1200 ;	IncludeCustom/MessageIntro.c 147
                           1201 ;	genIpush
                           1202 ; _saveRegsForCall: sendSetSize: 0 deInUse: 0 bcInUse: 0 deSending: 0
   04F5 21 5B 19           1203 	ld	hl,#__str_71
   04F8 E5                 1204 	push	hl
                           1205 ;	genCall
   04F9 CD 00 00           1206 	call	_printf
   04FC E8 02              1207 	lda	sp,2(sp)
                           1208 ;	IncludeCustom/MessageIntro.c 148
                           1209 ;	genIpush
                           1210 ; _saveRegsForCall: sendSetSize: 0 deInUse: 0 bcInUse: 0 deSending: 0
   04FE 21 64 00           1211 	ld	hl,#0x0064
   0501 E5                 1212 	push	hl
                           1213 ;	genCall
   0502 CD 00 00           1214 	call	_delay
   0505 E8 02              1215 	lda	sp,2(sp)
                           1216 ;	IncludeCustom/MessageIntro.c 149
                           1217 ;	genIpush
                           1218 ; _saveRegsForCall: sendSetSize: 0 deInUse: 0 bcInUse: 0 deSending: 0
   0507 21 5D 19           1219 	ld	hl,#__str_72
   050A E5                 1220 	push	hl
                           1221 ;	genCall
   050B CD 00 00           1222 	call	_printf
   050E E8 02              1223 	lda	sp,2(sp)
                           1224 ;	IncludeCustom/MessageIntro.c 150
                           1225 ;	genIpush
                           1226 ; _saveRegsForCall: sendSetSize: 0 deInUse: 0 bcInUse: 0 deSending: 0
   0510 21 64 00           1227 	ld	hl,#0x0064
   0513 E5                 1228 	push	hl
                           1229 ;	genCall
   0514 CD 00 00           1230 	call	_delay
   0517 E8 02              1231 	lda	sp,2(sp)
                           1232 ;	IncludeCustom/MessageIntro.c 151
                           1233 ;	genIpush
                           1234 ; _saveRegsForCall: sendSetSize: 0 deInUse: 0 bcInUse: 0 deSending: 0
   0519 21 5F 19           1235 	ld	hl,#__str_73
   051C E5                 1236 	push	hl
                           1237 ;	genCall
   051D CD 00 00           1238 	call	_printf
   0520 E8 02              1239 	lda	sp,2(sp)
                           1240 ;	IncludeCustom/MessageIntro.c 152
                           1241 ;	genIpush
                           1242 ; _saveRegsForCall: sendSetSize: 0 deInUse: 0 bcInUse: 0 deSending: 0
   0522 21 64 00           1243 	ld	hl,#0x0064
   0525 E5                 1244 	push	hl
                           1245 ;	genCall
   0526 CD 00 00           1246 	call	_delay
   0529 E8 02              1247 	lda	sp,2(sp)
                           1248 ;	IncludeCustom/MessageIntro.c 153
                           1249 ;	genIpush
                           1250 ; _saveRegsForCall: sendSetSize: 0 deInUse: 0 bcInUse: 0 deSending: 0
   052B 21 61 19           1251 	ld	hl,#__str_74
   052E E5                 1252 	push	hl
                           1253 ;	genCall
   052F CD 00 00           1254 	call	_printf
   0532 E8 02              1255 	lda	sp,2(sp)
                           1256 ;	IncludeCustom/MessageIntro.c 154
                           1257 ;	genIpush
                           1258 ; _saveRegsForCall: sendSetSize: 0 deInUse: 0 bcInUse: 0 deSending: 0
   0534 21 64 00           1259 	ld	hl,#0x0064
   0537 E5                 1260 	push	hl
                           1261 ;	genCall
   0538 CD 00 00           1262 	call	_delay
   053B E8 02              1263 	lda	sp,2(sp)
                           1264 ;	IncludeCustom/MessageIntro.c 155
                           1265 ;	genIpush
                           1266 ; _saveRegsForCall: sendSetSize: 0 deInUse: 0 bcInUse: 0 deSending: 0
   053D 21 63 19           1267 	ld	hl,#__str_75
   0540 E5                 1268 	push	hl
                           1269 ;	genCall
   0541 CD 00 00           1270 	call	_printf
   0544 E8 02              1271 	lda	sp,2(sp)
                           1272 ;	IncludeCustom/MessageIntro.c 156
                           1273 ;	genIpush
                           1274 ; _saveRegsForCall: sendSetSize: 0 deInUse: 0 bcInUse: 0 deSending: 0
   0546 21 64 00           1275 	ld	hl,#0x0064
   0549 E5                 1276 	push	hl
                           1277 ;	genCall
   054A CD 00 00           1278 	call	_delay
   054D E8 02              1279 	lda	sp,2(sp)
                           1280 ;	IncludeCustom/MessageIntro.c 157
                           1281 ;	genIpush
                           1282 ; _saveRegsForCall: sendSetSize: 0 deInUse: 0 bcInUse: 0 deSending: 0
   054F 21 65 19           1283 	ld	hl,#__str_76
   0552 E5                 1284 	push	hl
                           1285 ;	genCall
   0553 CD 00 00           1286 	call	_printf
   0556 E8 02              1287 	lda	sp,2(sp)
                           1288 ;	IncludeCustom/MessageIntro.c 158
                           1289 ;	genIpush
                           1290 ; _saveRegsForCall: sendSetSize: 0 deInUse: 0 bcInUse: 0 deSending: 0
   0558 21 64 00           1291 	ld	hl,#0x0064
   055B E5                 1292 	push	hl
                           1293 ;	genCall
   055C CD 00 00           1294 	call	_delay
   055F E8 02              1295 	lda	sp,2(sp)
                           1296 ;	IncludeCustom/MessageIntro.c 159
                           1297 ;	genIpush
                           1298 ; _saveRegsForCall: sendSetSize: 0 deInUse: 0 bcInUse: 0 deSending: 0
   0561 21 67 19           1299 	ld	hl,#__str_77
   0564 E5                 1300 	push	hl
                           1301 ;	genCall
   0565 CD 00 00           1302 	call	_printf
   0568 E8 02              1303 	lda	sp,2(sp)
                           1304 ;	IncludeCustom/MessageIntro.c 160
                           1305 ;	genIpush
                           1306 ; _saveRegsForCall: sendSetSize: 0 deInUse: 0 bcInUse: 0 deSending: 0
   056A 21 64 00           1307 	ld	hl,#0x0064
   056D E5                 1308 	push	hl
                           1309 ;	genCall
   056E CD 00 00           1310 	call	_delay
   0571 E8 02              1311 	lda	sp,2(sp)
                           1312 ;	IncludeCustom/MessageIntro.c 161
                           1313 ;	genIpush
                           1314 ; _saveRegsForCall: sendSetSize: 0 deInUse: 0 bcInUse: 0 deSending: 0
   0573 21 69 19           1315 	ld	hl,#__str_78
   0576 E5                 1316 	push	hl
                           1317 ;	genCall
   0577 CD 00 00           1318 	call	_printf
   057A E8 02              1319 	lda	sp,2(sp)
                           1320 ;	IncludeCustom/MessageIntro.c 162
                           1321 ;	genIpush
                           1322 ; _saveRegsForCall: sendSetSize: 0 deInUse: 0 bcInUse: 0 deSending: 0
   057C 21 64 00           1323 	ld	hl,#0x0064
   057F E5                 1324 	push	hl
                           1325 ;	genCall
   0580 CD 00 00           1326 	call	_delay
   0583 E8 02              1327 	lda	sp,2(sp)
                           1328 ;	IncludeCustom/MessageIntro.c 163
                           1329 ;	genIpush
                           1330 ; _saveRegsForCall: sendSetSize: 0 deInUse: 0 bcInUse: 0 deSending: 0
   0585 21 6B 19           1331 	ld	hl,#__str_79
   0588 E5                 1332 	push	hl
                           1333 ;	genCall
   0589 CD 00 00           1334 	call	_printf
   058C E8 02              1335 	lda	sp,2(sp)
                           1336 ;	IncludeCustom/MessageIntro.c 164
                           1337 ;	genIpush
                           1338 ; _saveRegsForCall: sendSetSize: 0 deInUse: 0 bcInUse: 0 deSending: 0
   058E 21 64 00           1339 	ld	hl,#0x0064
   0591 E5                 1340 	push	hl
                           1341 ;	genCall
   0592 CD 00 00           1342 	call	_delay
   0595 E8 02              1343 	lda	sp,2(sp)
                           1344 ;	IncludeCustom/MessageIntro.c 165
                           1345 ;	genIpush
                           1346 ; _saveRegsForCall: sendSetSize: 0 deInUse: 0 bcInUse: 0 deSending: 0
   0597 21 6D 19           1347 	ld	hl,#__str_80
   059A E5                 1348 	push	hl
                           1349 ;	genCall
   059B CD 00 00           1350 	call	_printf
   059E E8 02              1351 	lda	sp,2(sp)
                           1352 ;	IncludeCustom/MessageIntro.c 166
                           1353 ;	genIpush
                           1354 ; _saveRegsForCall: sendSetSize: 0 deInUse: 0 bcInUse: 0 deSending: 0
   05A0 21 6F 19           1355 	ld	hl,#__str_81
   05A3 E5                 1356 	push	hl
                           1357 ;	genCall
   05A4 CD 00 00           1358 	call	_printf
   05A7 E8 02              1359 	lda	sp,2(sp)
                           1360 ;	IncludeCustom/MessageIntro.c 167
                           1361 ;	genIpush
                           1362 ; _saveRegsForCall: sendSetSize: 0 deInUse: 0 bcInUse: 0 deSending: 0
   05A9 21 64 00           1363 	ld	hl,#0x0064
   05AC E5                 1364 	push	hl
                           1365 ;	genCall
   05AD CD 00 00           1366 	call	_delay
   05B0 E8 02              1367 	lda	sp,2(sp)
                           1368 ;	IncludeCustom/MessageIntro.c 168
                           1369 ;	genIpush
                           1370 ; _saveRegsForCall: sendSetSize: 0 deInUse: 0 bcInUse: 0 deSending: 0
   05B2 21 73 19           1371 	ld	hl,#__str_82
   05B5 E5                 1372 	push	hl
                           1373 ;	genCall
   05B6 CD 00 00           1374 	call	_printf
   05B9 E8 02              1375 	lda	sp,2(sp)
                           1376 ;	IncludeCustom/MessageIntro.c 169
                           1377 ;	genIpush
                           1378 ; _saveRegsForCall: sendSetSize: 0 deInUse: 0 bcInUse: 0 deSending: 0
   05BB 21 64 00           1379 	ld	hl,#0x0064
   05BE E5                 1380 	push	hl
                           1381 ;	genCall
   05BF CD 00 00           1382 	call	_delay
   05C2 E8 02              1383 	lda	sp,2(sp)
                           1384 ;	IncludeCustom/MessageIntro.c 170
                           1385 ;	genIpush
                           1386 ; _saveRegsForCall: sendSetSize: 0 deInUse: 0 bcInUse: 0 deSending: 0
   05C4 21 75 19           1387 	ld	hl,#__str_83
   05C7 E5                 1388 	push	hl
                           1389 ;	genCall
   05C8 CD 00 00           1390 	call	_printf
   05CB E8 02              1391 	lda	sp,2(sp)
                           1392 ;	IncludeCustom/MessageIntro.c 171
                           1393 ;	genIpush
                           1394 ; _saveRegsForCall: sendSetSize: 0 deInUse: 0 bcInUse: 0 deSending: 0
   05CD 21 64 00           1395 	ld	hl,#0x0064
   05D0 E5                 1396 	push	hl
                           1397 ;	genCall
   05D1 CD 00 00           1398 	call	_delay
   05D4 E8 02              1399 	lda	sp,2(sp)
                           1400 ;	IncludeCustom/MessageIntro.c 172
                           1401 ;	genIpush
                           1402 ; _saveRegsForCall: sendSetSize: 0 deInUse: 0 bcInUse: 0 deSending: 0
   05D6 21 77 19           1403 	ld	hl,#__str_84
   05D9 E5                 1404 	push	hl
                           1405 ;	genCall
   05DA CD 00 00           1406 	call	_printf
   05DD E8 02              1407 	lda	sp,2(sp)
                           1408 ;	IncludeCustom/MessageIntro.c 173
                           1409 ;	genIpush
                           1410 ; _saveRegsForCall: sendSetSize: 0 deInUse: 0 bcInUse: 0 deSending: 0
   05DF 21 64 00           1411 	ld	hl,#0x0064
   05E2 E5                 1412 	push	hl
                           1413 ;	genCall
   05E3 CD 00 00           1414 	call	_delay
   05E6 E8 02              1415 	lda	sp,2(sp)
                           1416 ;	IncludeCustom/MessageIntro.c 174
                           1417 ;	genIpush
                           1418 ; _saveRegsForCall: sendSetSize: 0 deInUse: 0 bcInUse: 0 deSending: 0
   05E8 21 79 19           1419 	ld	hl,#__str_85
   05EB E5                 1420 	push	hl
                           1421 ;	genCall
   05EC CD 00 00           1422 	call	_printf
   05EF E8 02              1423 	lda	sp,2(sp)
                           1424 ;	IncludeCustom/MessageIntro.c 175
                           1425 ;	genIpush
                           1426 ; _saveRegsForCall: sendSetSize: 0 deInUse: 0 bcInUse: 0 deSending: 0
   05F1 21 64 00           1427 	ld	hl,#0x0064
   05F4 E5                 1428 	push	hl
                           1429 ;	genCall
   05F5 CD 00 00           1430 	call	_delay
   05F8 E8 02              1431 	lda	sp,2(sp)
                           1432 ;	IncludeCustom/MessageIntro.c 176
                           1433 ;	genIpush
                           1434 ; _saveRegsForCall: sendSetSize: 0 deInUse: 0 bcInUse: 0 deSending: 0
   05FA 21 7B 19           1435 	ld	hl,#__str_86
   05FD E5                 1436 	push	hl
                           1437 ;	genCall
   05FE CD 00 00           1438 	call	_printf
   0601 E8 02              1439 	lda	sp,2(sp)
                           1440 ;	IncludeCustom/MessageIntro.c 177
                           1441 ;	genIpush
                           1442 ; _saveRegsForCall: sendSetSize: 0 deInUse: 0 bcInUse: 0 deSending: 0
   0603 21 64 00           1443 	ld	hl,#0x0064
   0606 E5                 1444 	push	hl
                           1445 ;	genCall
   0607 CD 00 00           1446 	call	_delay
   060A E8 02              1447 	lda	sp,2(sp)
                           1448 ;	IncludeCustom/MessageIntro.c 178
                           1449 ;	genIpush
                           1450 ; _saveRegsForCall: sendSetSize: 0 deInUse: 0 bcInUse: 0 deSending: 0
   060C 21 7D 19           1451 	ld	hl,#__str_87
   060F E5                 1452 	push	hl
                           1453 ;	genCall
   0610 CD 00 00           1454 	call	_printf
   0613 E8 02              1455 	lda	sp,2(sp)
                           1456 ;	IncludeCustom/MessageIntro.c 179
                           1457 ;	genIpush
                           1458 ; _saveRegsForCall: sendSetSize: 0 deInUse: 0 bcInUse: 0 deSending: 0
   0615 21 64 00           1459 	ld	hl,#0x0064
   0618 E5                 1460 	push	hl
                           1461 ;	genCall
   0619 CD 00 00           1462 	call	_delay
   061C E8 02              1463 	lda	sp,2(sp)
                           1464 ;	IncludeCustom/MessageIntro.c 180
                           1465 ;	genIpush
                           1466 ; _saveRegsForCall: sendSetSize: 0 deInUse: 0 bcInUse: 0 deSending: 0
   061E 21 7F 19           1467 	ld	hl,#__str_88
   0621 E5                 1468 	push	hl
                           1469 ;	genCall
   0622 CD 00 00           1470 	call	_printf
   0625 E8 02              1471 	lda	sp,2(sp)
                           1472 ;	IncludeCustom/MessageIntro.c 181
                           1473 ;	genIpush
                           1474 ; _saveRegsForCall: sendSetSize: 0 deInUse: 0 bcInUse: 0 deSending: 0
   0627 21 64 00           1475 	ld	hl,#0x0064
   062A E5                 1476 	push	hl
                           1477 ;	genCall
   062B CD 00 00           1478 	call	_delay
   062E E8 02              1479 	lda	sp,2(sp)
                           1480 ;	IncludeCustom/MessageIntro.c 182
                           1481 ;	genIpush
                           1482 ; _saveRegsForCall: sendSetSize: 0 deInUse: 0 bcInUse: 0 deSending: 0
   0630 21 81 19           1483 	ld	hl,#__str_89
   0633 E5                 1484 	push	hl
                           1485 ;	genCall
   0634 CD 00 00           1486 	call	_printf
   0637 E8 02              1487 	lda	sp,2(sp)
                           1488 ;	IncludeCustom/MessageIntro.c 183
                           1489 ;	genIpush
                           1490 ; _saveRegsForCall: sendSetSize: 0 deInUse: 0 bcInUse: 0 deSending: 0
   0639 21 64 00           1491 	ld	hl,#0x0064
   063C E5                 1492 	push	hl
                           1493 ;	genCall
   063D CD 00 00           1494 	call	_delay
   0640 E8 02              1495 	lda	sp,2(sp)
                           1496 ;	IncludeCustom/MessageIntro.c 184
                           1497 ;	genIpush
                           1498 ; _saveRegsForCall: sendSetSize: 0 deInUse: 0 bcInUse: 0 deSending: 0
   0642 21 83 19           1499 	ld	hl,#__str_90
   0645 E5                 1500 	push	hl
                           1501 ;	genCall
   0646 CD 00 00           1502 	call	_printf
   0649 E8 02              1503 	lda	sp,2(sp)
                           1504 ;	IncludeCustom/MessageIntro.c 185
                           1505 ;	genIpush
                           1506 ; _saveRegsForCall: sendSetSize: 0 deInUse: 0 bcInUse: 0 deSending: 0
   064B 21 64 00           1507 	ld	hl,#0x0064
   064E E5                 1508 	push	hl
                           1509 ;	genCall
   064F CD 00 00           1510 	call	_delay
   0652 E8 02              1511 	lda	sp,2(sp)
                           1512 ;	IncludeCustom/MessageIntro.c 186
                           1513 ;	genIpush
                           1514 ; _saveRegsForCall: sendSetSize: 0 deInUse: 0 bcInUse: 0 deSending: 0
   0654 21 85 19           1515 	ld	hl,#__str_91
   0657 E5                 1516 	push	hl
                           1517 ;	genCall
   0658 CD 00 00           1518 	call	_printf
   065B E8 02              1519 	lda	sp,2(sp)
                           1520 ;	IncludeCustom/MessageIntro.c 187
                           1521 ;	genIpush
                           1522 ; _saveRegsForCall: sendSetSize: 0 deInUse: 0 bcInUse: 0 deSending: 0
   065D 21 64 00           1523 	ld	hl,#0x0064
   0660 E5                 1524 	push	hl
                           1525 ;	genCall
   0661 CD 00 00           1526 	call	_delay
   0664 E8 02              1527 	lda	sp,2(sp)
                           1528 ;	IncludeCustom/MessageIntro.c 188
                           1529 ;	genIpush
                           1530 ; _saveRegsForCall: sendSetSize: 0 deInUse: 0 bcInUse: 0 deSending: 0
   0666 21 87 19           1531 	ld	hl,#__str_92
   0669 E5                 1532 	push	hl
                           1533 ;	genCall
   066A CD 00 00           1534 	call	_printf
   066D E8 02              1535 	lda	sp,2(sp)
                           1536 ;	IncludeCustom/MessageIntro.c 189
                           1537 ;	genIpush
                           1538 ; _saveRegsForCall: sendSetSize: 0 deInUse: 0 bcInUse: 0 deSending: 0
   066F 21 64 00           1539 	ld	hl,#0x0064
   0672 E5                 1540 	push	hl
                           1541 ;	genCall
   0673 CD 00 00           1542 	call	_delay
   0676 E8 02              1543 	lda	sp,2(sp)
                           1544 ;	IncludeCustom/MessageIntro.c 190
                           1545 ;	genIpush
                           1546 ; _saveRegsForCall: sendSetSize: 0 deInUse: 0 bcInUse: 0 deSending: 0
   0678 21 89 19           1547 	ld	hl,#__str_93
   067B E5                 1548 	push	hl
                           1549 ;	genCall
   067C CD 00 00           1550 	call	_printf
   067F E8 02              1551 	lda	sp,2(sp)
                           1552 ;	IncludeCustom/MessageIntro.c 191
                           1553 ;	genIpush
                           1554 ; _saveRegsForCall: sendSetSize: 0 deInUse: 0 bcInUse: 0 deSending: 0
   0681 21 64 00           1555 	ld	hl,#0x0064
   0684 E5                 1556 	push	hl
                           1557 ;	genCall
   0685 CD 00 00           1558 	call	_delay
   0688 E8 02              1559 	lda	sp,2(sp)
                           1560 ;	IncludeCustom/MessageIntro.c 192
                           1561 ;	genIpush
                           1562 ; _saveRegsForCall: sendSetSize: 0 deInUse: 0 bcInUse: 0 deSending: 0
   068A 21 8B 19           1563 	ld	hl,#__str_94
   068D E5                 1564 	push	hl
                           1565 ;	genCall
   068E CD 00 00           1566 	call	_printf
   0691 E8 02              1567 	lda	sp,2(sp)
                           1568 ;	IncludeCustom/MessageIntro.c 193
                           1569 ;	genIpush
                           1570 ; _saveRegsForCall: sendSetSize: 0 deInUse: 0 bcInUse: 0 deSending: 0
   0693 21 64 00           1571 	ld	hl,#0x0064
   0696 E5                 1572 	push	hl
                           1573 ;	genCall
   0697 CD 00 00           1574 	call	_delay
   069A E8 02              1575 	lda	sp,2(sp)
                           1576 ;	IncludeCustom/MessageIntro.c 194
                           1577 ;	genIpush
                           1578 ; _saveRegsForCall: sendSetSize: 0 deInUse: 0 bcInUse: 0 deSending: 0
   069C 21 8D 19           1579 	ld	hl,#__str_95
   069F E5                 1580 	push	hl
                           1581 ;	genCall
   06A0 CD 00 00           1582 	call	_printf
   06A3 E8 02              1583 	lda	sp,2(sp)
                           1584 ;	IncludeCustom/MessageIntro.c 195
                           1585 ;	genIpush
                           1586 ; _saveRegsForCall: sendSetSize: 0 deInUse: 0 bcInUse: 0 deSending: 0
   06A5 21 8F 19           1587 	ld	hl,#__str_96
   06A8 E5                 1588 	push	hl
                           1589 ;	genCall
   06A9 CD 00 00           1590 	call	_printf
   06AC E8 02              1591 	lda	sp,2(sp)
                           1592 ;	IncludeCustom/MessageIntro.c 196
                           1593 ;	genIpush
                           1594 ; _saveRegsForCall: sendSetSize: 0 deInUse: 0 bcInUse: 0 deSending: 0
   06AE 21 64 00           1595 	ld	hl,#0x0064
   06B1 E5                 1596 	push	hl
                           1597 ;	genCall
   06B2 CD 00 00           1598 	call	_delay
   06B5 E8 02              1599 	lda	sp,2(sp)
                           1600 ;	IncludeCustom/MessageIntro.c 197
                           1601 ;	genIpush
                           1602 ; _saveRegsForCall: sendSetSize: 0 deInUse: 0 bcInUse: 0 deSending: 0
   06B7 21 93 19           1603 	ld	hl,#__str_97
   06BA E5                 1604 	push	hl
                           1605 ;	genCall
   06BB CD 00 00           1606 	call	_printf
   06BE E8 02              1607 	lda	sp,2(sp)
                           1608 ;	IncludeCustom/MessageIntro.c 198
                           1609 ;	genIpush
                           1610 ; _saveRegsForCall: sendSetSize: 0 deInUse: 0 bcInUse: 0 deSending: 0
   06C0 21 64 00           1611 	ld	hl,#0x0064
   06C3 E5                 1612 	push	hl
                           1613 ;	genCall
   06C4 CD 00 00           1614 	call	_delay
   06C7 E8 02              1615 	lda	sp,2(sp)
                           1616 ;	IncludeCustom/MessageIntro.c 199
                           1617 ;	genIpush
                           1618 ; _saveRegsForCall: sendSetSize: 0 deInUse: 0 bcInUse: 0 deSending: 0
   06C9 21 95 19           1619 	ld	hl,#__str_98
   06CC E5                 1620 	push	hl
                           1621 ;	genCall
   06CD CD 00 00           1622 	call	_printf
   06D0 E8 02              1623 	lda	sp,2(sp)
                           1624 ;	IncludeCustom/MessageIntro.c 200
                           1625 ;	genIpush
                           1626 ; _saveRegsForCall: sendSetSize: 0 deInUse: 0 bcInUse: 0 deSending: 0
   06D2 21 64 00           1627 	ld	hl,#0x0064
   06D5 E5                 1628 	push	hl
                           1629 ;	genCall
   06D6 CD 00 00           1630 	call	_delay
   06D9 E8 02              1631 	lda	sp,2(sp)
                           1632 ;	IncludeCustom/MessageIntro.c 201
                           1633 ;	genIpush
                           1634 ; _saveRegsForCall: sendSetSize: 0 deInUse: 0 bcInUse: 0 deSending: 0
   06DB 21 97 19           1635 	ld	hl,#__str_99
   06DE E5                 1636 	push	hl
                           1637 ;	genCall
   06DF CD 00 00           1638 	call	_printf
   06E2 E8 02              1639 	lda	sp,2(sp)
                           1640 ;	IncludeCustom/MessageIntro.c 202
                           1641 ;	genIpush
                           1642 ; _saveRegsForCall: sendSetSize: 0 deInUse: 0 bcInUse: 0 deSending: 0
   06E4 21 64 00           1643 	ld	hl,#0x0064
   06E7 E5                 1644 	push	hl
                           1645 ;	genCall
   06E8 CD 00 00           1646 	call	_delay
   06EB E8 02              1647 	lda	sp,2(sp)
                           1648 ;	IncludeCustom/MessageIntro.c 203
                           1649 ;	genIpush
                           1650 ; _saveRegsForCall: sendSetSize: 0 deInUse: 0 bcInUse: 0 deSending: 0
   06ED 21 99 19           1651 	ld	hl,#__str_100
   06F0 E5                 1652 	push	hl
                           1653 ;	genCall
   06F1 CD 00 00           1654 	call	_printf
   06F4 E8 02              1655 	lda	sp,2(sp)
                           1656 ;	IncludeCustom/MessageIntro.c 204
                           1657 ;	genIpush
                           1658 ; _saveRegsForCall: sendSetSize: 0 deInUse: 0 bcInUse: 0 deSending: 0
   06F6 21 64 00           1659 	ld	hl,#0x0064
   06F9 E5                 1660 	push	hl
                           1661 ;	genCall
   06FA CD 00 00           1662 	call	_delay
   06FD E8 02              1663 	lda	sp,2(sp)
                           1664 ;	IncludeCustom/MessageIntro.c 205
                           1665 ;	genIpush
                           1666 ; _saveRegsForCall: sendSetSize: 0 deInUse: 0 bcInUse: 0 deSending: 0
   06FF 21 9B 19           1667 	ld	hl,#__str_101
   0702 E5                 1668 	push	hl
                           1669 ;	genCall
   0703 CD 00 00           1670 	call	_printf
   0706 E8 02              1671 	lda	sp,2(sp)
                           1672 ;	IncludeCustom/MessageIntro.c 206
                           1673 ;	genIpush
                           1674 ; _saveRegsForCall: sendSetSize: 0 deInUse: 0 bcInUse: 0 deSending: 0
   0708 21 64 00           1675 	ld	hl,#0x0064
   070B E5                 1676 	push	hl
                           1677 ;	genCall
   070C CD 00 00           1678 	call	_delay
   070F E8 02              1679 	lda	sp,2(sp)
                           1680 ;	IncludeCustom/MessageIntro.c 207
                           1681 ;	genIpush
                           1682 ; _saveRegsForCall: sendSetSize: 0 deInUse: 0 bcInUse: 0 deSending: 0
   0711 21 9D 19           1683 	ld	hl,#__str_102
   0714 E5                 1684 	push	hl
                           1685 ;	genCall
   0715 CD 00 00           1686 	call	_printf
   0718 E8 02              1687 	lda	sp,2(sp)
                           1688 ;	IncludeCustom/MessageIntro.c 208
                           1689 ;	genIpush
                           1690 ; _saveRegsForCall: sendSetSize: 0 deInUse: 0 bcInUse: 0 deSending: 0
   071A 21 64 00           1691 	ld	hl,#0x0064
   071D E5                 1692 	push	hl
                           1693 ;	genCall
   071E CD 00 00           1694 	call	_delay
   0721 E8 02              1695 	lda	sp,2(sp)
                           1696 ;	IncludeCustom/MessageIntro.c 209
                           1697 ;	genIpush
                           1698 ; _saveRegsForCall: sendSetSize: 0 deInUse: 0 bcInUse: 0 deSending: 0
   0723 21 9F 19           1699 	ld	hl,#__str_103
   0726 E5                 1700 	push	hl
                           1701 ;	genCall
   0727 CD 00 00           1702 	call	_printf
   072A E8 02              1703 	lda	sp,2(sp)
                           1704 ;	IncludeCustom/MessageIntro.c 210
                           1705 ;	genIpush
                           1706 ; _saveRegsForCall: sendSetSize: 0 deInUse: 0 bcInUse: 0 deSending: 0
   072C 21 64 00           1707 	ld	hl,#0x0064
   072F E5                 1708 	push	hl
                           1709 ;	genCall
   0730 CD 00 00           1710 	call	_delay
   0733 E8 02              1711 	lda	sp,2(sp)
                           1712 ;	IncludeCustom/MessageIntro.c 211
                           1713 ;	genIpush
                           1714 ; _saveRegsForCall: sendSetSize: 0 deInUse: 0 bcInUse: 0 deSending: 0
   0735 21 A1 19           1715 	ld	hl,#__str_104
   0738 E5                 1716 	push	hl
                           1717 ;	genCall
   0739 CD 00 00           1718 	call	_printf
   073C E8 02              1719 	lda	sp,2(sp)
                           1720 ;	IncludeCustom/MessageIntro.c 212
                           1721 ;	genIpush
                           1722 ; _saveRegsForCall: sendSetSize: 0 deInUse: 0 bcInUse: 0 deSending: 0
   073E 21 64 00           1723 	ld	hl,#0x0064
   0741 E5                 1724 	push	hl
                           1725 ;	genCall
   0742 CD 00 00           1726 	call	_delay
   0745 E8 02              1727 	lda	sp,2(sp)
                           1728 ;	IncludeCustom/MessageIntro.c 213
                           1729 ;	genIpush
                           1730 ; _saveRegsForCall: sendSetSize: 0 deInUse: 0 bcInUse: 0 deSending: 0
   0747 21 A3 19           1731 	ld	hl,#__str_105
   074A E5                 1732 	push	hl
                           1733 ;	genCall
   074B CD 00 00           1734 	call	_printf
   074E E8 02              1735 	lda	sp,2(sp)
                           1736 ;	IncludeCustom/MessageIntro.c 214
                           1737 ;	genIpush
                           1738 ; _saveRegsForCall: sendSetSize: 0 deInUse: 0 bcInUse: 0 deSending: 0
   0750 21 64 00           1739 	ld	hl,#0x0064
   0753 E5                 1740 	push	hl
                           1741 ;	genCall
   0754 CD 00 00           1742 	call	_delay
   0757 E8 02              1743 	lda	sp,2(sp)
                           1744 ;	IncludeCustom/MessageIntro.c 215
                           1745 ;	genIpush
                           1746 ; _saveRegsForCall: sendSetSize: 0 deInUse: 0 bcInUse: 0 deSending: 0
   0759 21 A5 19           1747 	ld	hl,#__str_106
   075C E5                 1748 	push	hl
                           1749 ;	genCall
   075D CD 00 00           1750 	call	_printf
   0760 E8 02              1751 	lda	sp,2(sp)
                           1752 ;	IncludeCustom/MessageIntro.c 216
                           1753 ;	genIpush
                           1754 ; _saveRegsForCall: sendSetSize: 0 deInUse: 0 bcInUse: 0 deSending: 0
   0762 21 64 00           1755 	ld	hl,#0x0064
   0765 E5                 1756 	push	hl
                           1757 ;	genCall
   0766 CD 00 00           1758 	call	_delay
   0769 E8 02              1759 	lda	sp,2(sp)
                           1760 ;	IncludeCustom/MessageIntro.c 217
                           1761 ;	genIpush
                           1762 ; _saveRegsForCall: sendSetSize: 0 deInUse: 0 bcInUse: 0 deSending: 0
   076B 21 A7 19           1763 	ld	hl,#__str_107
   076E E5                 1764 	push	hl
                           1765 ;	genCall
   076F CD 00 00           1766 	call	_printf
   0772 E8 02              1767 	lda	sp,2(sp)
                           1768 ;	IncludeCustom/MessageIntro.c 218
                           1769 ;	genIpush
                           1770 ; _saveRegsForCall: sendSetSize: 0 deInUse: 0 bcInUse: 0 deSending: 0
   0774 21 64 00           1771 	ld	hl,#0x0064
   0777 E5                 1772 	push	hl
                           1773 ;	genCall
   0778 CD 00 00           1774 	call	_delay
   077B E8 02              1775 	lda	sp,2(sp)
                           1776 ;	IncludeCustom/MessageIntro.c 219
                           1777 ;	genIpush
                           1778 ; _saveRegsForCall: sendSetSize: 0 deInUse: 0 bcInUse: 0 deSending: 0
   077D 21 A9 19           1779 	ld	hl,#__str_108
   0780 E5                 1780 	push	hl
                           1781 ;	genCall
   0781 CD 00 00           1782 	call	_printf
   0784 E8 02              1783 	lda	sp,2(sp)
                           1784 ;	IncludeCustom/MessageIntro.c 220
                           1785 ;	genIpush
                           1786 ; _saveRegsForCall: sendSetSize: 0 deInUse: 0 bcInUse: 0 deSending: 0
   0786 21 64 00           1787 	ld	hl,#0x0064
   0789 E5                 1788 	push	hl
                           1789 ;	genCall
   078A CD 00 00           1790 	call	_delay
   078D E8 02              1791 	lda	sp,2(sp)
                           1792 ;	IncludeCustom/MessageIntro.c 221
                           1793 ;	genIpush
                           1794 ; _saveRegsForCall: sendSetSize: 0 deInUse: 0 bcInUse: 0 deSending: 0
   078F 21 AB 19           1795 	ld	hl,#__str_109
   0792 E5                 1796 	push	hl
                           1797 ;	genCall
   0793 CD 00 00           1798 	call	_printf
   0796 E8 02              1799 	lda	sp,2(sp)
                           1800 ;	IncludeCustom/MessageIntro.c 222
                           1801 ;	genIpush
                           1802 ; _saveRegsForCall: sendSetSize: 0 deInUse: 0 bcInUse: 0 deSending: 0
   0798 21 64 00           1803 	ld	hl,#0x0064
   079B E5                 1804 	push	hl
                           1805 ;	genCall
   079C CD 00 00           1806 	call	_delay
   079F E8 02              1807 	lda	sp,2(sp)
                           1808 ;	IncludeCustom/MessageIntro.c 223
                           1809 ;	genIpush
                           1810 ; _saveRegsForCall: sendSetSize: 0 deInUse: 0 bcInUse: 0 deSending: 0
   07A1 21 AD 19           1811 	ld	hl,#__str_110
   07A4 E5                 1812 	push	hl
                           1813 ;	genCall
   07A5 CD 00 00           1814 	call	_printf
   07A8 E8 02              1815 	lda	sp,2(sp)
                           1816 ;	IncludeCustom/MessageIntro.c 224
                           1817 ;	genIpush
                           1818 ; _saveRegsForCall: sendSetSize: 0 deInUse: 0 bcInUse: 0 deSending: 0
   07AA 21 64 00           1819 	ld	hl,#0x0064
   07AD E5                 1820 	push	hl
                           1821 ;	genCall
   07AE CD 00 00           1822 	call	_delay
   07B1 E8 02              1823 	lda	sp,2(sp)
                           1824 ;	IncludeCustom/MessageIntro.c 225
                           1825 ;	genIpush
                           1826 ; _saveRegsForCall: sendSetSize: 0 deInUse: 0 bcInUse: 0 deSending: 0
   07B3 21 AF 19           1827 	ld	hl,#__str_111
   07B6 E5                 1828 	push	hl
                           1829 ;	genCall
   07B7 CD 00 00           1830 	call	_printf
   07BA E8 02              1831 	lda	sp,2(sp)
                           1832 ;	IncludeCustom/MessageIntro.c 226
                           1833 ;	genIpush
                           1834 ; _saveRegsForCall: sendSetSize: 0 deInUse: 0 bcInUse: 0 deSending: 0
   07BC 21 64 00           1835 	ld	hl,#0x0064
   07BF E5                 1836 	push	hl
                           1837 ;	genCall
   07C0 CD 00 00           1838 	call	_delay
   07C3 E8 02              1839 	lda	sp,2(sp)
                           1840 ;	IncludeCustom/MessageIntro.c 227
                           1841 ;	genIpush
                           1842 ; _saveRegsForCall: sendSetSize: 0 deInUse: 0 bcInUse: 0 deSending: 0
   07C5 21 B1 19           1843 	ld	hl,#__str_112
   07C8 E5                 1844 	push	hl
                           1845 ;	genCall
   07C9 CD 00 00           1846 	call	_printf
   07CC E8 02              1847 	lda	sp,2(sp)
                           1848 ;	IncludeCustom/MessageIntro.c 228
                           1849 ;	genIpush
                           1850 ; _saveRegsForCall: sendSetSize: 0 deInUse: 0 bcInUse: 0 deSending: 0
   07CE 21 64 00           1851 	ld	hl,#0x0064
   07D1 E5                 1852 	push	hl
                           1853 ;	genCall
   07D2 CD 00 00           1854 	call	_delay
   07D5 E8 02              1855 	lda	sp,2(sp)
                           1856 ;	IncludeCustom/MessageIntro.c 229
                           1857 ;	genIpush
                           1858 ; _saveRegsForCall: sendSetSize: 0 deInUse: 0 bcInUse: 0 deSending: 0
   07D7 21 B3 19           1859 	ld	hl,#__str_113
   07DA E5                 1860 	push	hl
                           1861 ;	genCall
   07DB CD 00 00           1862 	call	_printf
   07DE E8 02              1863 	lda	sp,2(sp)
                           1864 ;	IncludeCustom/MessageIntro.c 230
                           1865 ;	genIpush
                           1866 ; _saveRegsForCall: sendSetSize: 0 deInUse: 0 bcInUse: 0 deSending: 0
   07E0 21 64 00           1867 	ld	hl,#0x0064
   07E3 E5                 1868 	push	hl
                           1869 ;	genCall
   07E4 CD 00 00           1870 	call	_delay
   07E7 E8 02              1871 	lda	sp,2(sp)
                           1872 ;	IncludeCustom/MessageIntro.c 231
                           1873 ;	genIpush
                           1874 ; _saveRegsForCall: sendSetSize: 0 deInUse: 0 bcInUse: 0 deSending: 0
   07E9 21 B5 19           1875 	ld	hl,#__str_114
   07EC E5                 1876 	push	hl
                           1877 ;	genCall
   07ED CD 00 00           1878 	call	_printf
   07F0 E8 02              1879 	lda	sp,2(sp)
                           1880 ;	genLabel
   07F2                    1881 00101$:
                           1882 ;	genEndFunction
                           1883 	
   07F2 C9                 1884 	ret
   07F3                    1885 ___messageIntroPart1_end:
   07F3                    1886 _TitleScreenTiles:
   07F3 00                 1887 	.db #0x00
   07F4 00                 1888 	.db #0x00
   07F5 00                 1889 	.db #0x00
   07F6 00                 1890 	.db #0x00
   07F7 00                 1891 	.db #0x00
   07F8 00                 1892 	.db #0x00
   07F9 00                 1893 	.db #0x00
   07FA 00                 1894 	.db #0x00
   07FB 00                 1895 	.db #0x00
   07FC 00                 1896 	.db #0x00
   07FD 00                 1897 	.db #0x00
   07FE 00                 1898 	.db #0x00
   07FF 00                 1899 	.db #0x00
   0800 00                 1900 	.db #0x00
   0801 00                 1901 	.db #0x00
   0802 00                 1902 	.db #0x00
   0803 00                 1903 	.db #0x00
   0804 00                 1904 	.db #0x00
   0805 00                 1905 	.db #0x00
   0806 00                 1906 	.db #0x00
   0807 00                 1907 	.db #0x00
   0808 00                 1908 	.db #0x00
   0809 00                 1909 	.db #0x00
   080A 00                 1910 	.db #0x00
   080B 00                 1911 	.db #0x00
   080C 00                 1912 	.db #0x00
   080D 00                 1913 	.db #0x00
   080E 00                 1914 	.db #0x00
   080F 00                 1915 	.db #0x00
   0810 00                 1916 	.db #0x00
   0811 00                 1917 	.db #0x00
   0812 00                 1918 	.db #0x00
   0813 00                 1919 	.db #0x00
   0814 00                 1920 	.db #0x00
   0815 00                 1921 	.db #0x00
   0816 00                 1922 	.db #0x00
   0817 00                 1923 	.db #0x00
   0818 00                 1924 	.db #0x00
   0819 00                 1925 	.db #0x00
   081A 00                 1926 	.db #0x00
   081B 00                 1927 	.db #0x00
   081C 00                 1928 	.db #0x00
   081D 00                 1929 	.db #0x00
   081E 00                 1930 	.db #0x00
   081F 00                 1931 	.db #0x00
   0820 00                 1932 	.db #0x00
   0821 00                 1933 	.db #0x00
   0822 00                 1934 	.db #0x00
   0823 00                 1935 	.db #0x00
   0824 00                 1936 	.db #0x00
   0825 00                 1937 	.db #0x00
   0826 00                 1938 	.db #0x00
   0827 00                 1939 	.db #0x00
   0828 00                 1940 	.db #0x00
   0829 00                 1941 	.db #0x00
   082A 00                 1942 	.db #0x00
   082B 00                 1943 	.db #0x00
   082C 00                 1944 	.db #0x00
   082D 00                 1945 	.db #0x00
   082E 00                 1946 	.db #0x00
   082F 03                 1947 	.db #0x03
   0830 03                 1948 	.db #0x03
   0831 03                 1949 	.db #0x03
   0832 03                 1950 	.db #0x03
   0833 00                 1951 	.db #0x00
   0834 00                 1952 	.db #0x00
   0835 00                 1953 	.db #0x00
   0836 00                 1954 	.db #0x00
   0837 00                 1955 	.db #0x00
   0838 00                 1956 	.db #0x00
   0839 00                 1957 	.db #0x00
   083A 00                 1958 	.db #0x00
   083B 00                 1959 	.db #0x00
   083C 00                 1960 	.db #0x00
   083D 00                 1961 	.db #0x00
   083E 00                 1962 	.db #0x00
   083F 00                 1963 	.db #0x00
   0840 00                 1964 	.db #0x00
   0841 00                 1965 	.db #0x00
   0842 00                 1966 	.db #0x00
   0843 00                 1967 	.db #0x00
   0844 00                 1968 	.db #0x00
   0845 00                 1969 	.db #0x00
   0846 00                 1970 	.db #0x00
   0847 00                 1971 	.db #0x00
   0848 00                 1972 	.db #0x00
   0849 00                 1973 	.db #0x00
   084A 00                 1974 	.db #0x00
   084B 00                 1975 	.db #0x00
   084C 00                 1976 	.db #0x00
   084D 00                 1977 	.db #0x00
   084E 00                 1978 	.db #0x00
   084F 00                 1979 	.db #0x00
   0850 00                 1980 	.db #0x00
   0851 00                 1981 	.db #0x00
   0852 00                 1982 	.db #0x00
   0853 07                 1983 	.db #0x07
   0854 07                 1984 	.db #0x07
   0855 0F                 1985 	.db #0x0F
   0856 0F                 1986 	.db #0x0F
   0857 1F                 1987 	.db #0x1F
   0858 1F                 1988 	.db #0x1F
   0859 1F                 1989 	.db #0x1F
   085A 1F                 1990 	.db #0x1F
   085B 1F                 1991 	.db #0x1F
   085C 1F                 1992 	.db #0x1F
   085D 3F                 1993 	.db #0x3F
   085E 3F                 1994 	.db #0x3F
   085F 3F                 1995 	.db #0x3F
   0860 3F                 1996 	.db #0x3F
   0861 3F                 1997 	.db #0x3F
   0862 3F                 1998 	.db #0x3F
   0863 7F                 1999 	.db #0x7F
   0864 7F                 2000 	.db #0x7F
   0865 78                 2001 	.db #0x78
   0866 78                 2002 	.db #0x78
   0867 70                 2003 	.db #0x70
   0868 70                 2004 	.db #0x70
   0869 00                 2005 	.db #0x00
   086A 00                 2006 	.db #0x00
   086B 00                 2007 	.db #0x00
   086C 00                 2008 	.db #0x00
   086D 00                 2009 	.db #0x00
   086E 00                 2010 	.db #0x00
   086F 00                 2011 	.db #0x00
   0870 00                 2012 	.db #0x00
   0871 00                 2013 	.db #0x00
   0872 00                 2014 	.db #0x00
   0873 00                 2015 	.db #0x00
   0874 00                 2016 	.db #0x00
   0875 00                 2017 	.db #0x00
   0876 00                 2018 	.db #0x00
   0877 00                 2019 	.db #0x00
   0878 00                 2020 	.db #0x00
   0879 00                 2021 	.db #0x00
   087A 00                 2022 	.db #0x00
   087B 00                 2023 	.db #0x00
   087C 00                 2024 	.db #0x00
   087D 00                 2025 	.db #0x00
   087E 00                 2026 	.db #0x00
   087F 00                 2027 	.db #0x00
   0880 00                 2028 	.db #0x00
   0881 00                 2029 	.db #0x00
   0882 00                 2030 	.db #0x00
   0883 00                 2031 	.db #0x00
   0884 00                 2032 	.db #0x00
   0885 00                 2033 	.db #0x00
   0886 00                 2034 	.db #0x00
   0887 01                 2035 	.db #0x01
   0888 01                 2036 	.db #0x01
   0889 0F                 2037 	.db #0x0F
   088A 0F                 2038 	.db #0x0F
   088B 7F                 2039 	.db #0x7F
   088C 7F                 2040 	.db #0x7F
   088D FF                 2041 	.db #0xFF
   088E FF                 2042 	.db #0xFF
   088F FF                 2043 	.db #0xFF
   0890 FF                 2044 	.db #0xFF
   0891 FF                 2045 	.db #0xFF
   0892 FF                 2046 	.db #0xFF
   0893 00                 2047 	.db #0x00
   0894 00                 2048 	.db #0x00
   0895 00                 2049 	.db #0x00
   0896 00                 2050 	.db #0x00
   0897 00                 2051 	.db #0x00
   0898 00                 2052 	.db #0x00
   0899 00                 2053 	.db #0x00
   089A 00                 2054 	.db #0x00
   089B 00                 2055 	.db #0x00
   089C 00                 2056 	.db #0x00
   089D 00                 2057 	.db #0x00
   089E 00                 2058 	.db #0x00
   089F 00                 2059 	.db #0x00
   08A0 00                 2060 	.db #0x00
   08A1 00                 2061 	.db #0x00
   08A2 00                 2062 	.db #0x00
   08A3 00                 2063 	.db #0x00
   08A4 00                 2064 	.db #0x00
   08A5 00                 2065 	.db #0x00
   08A6 00                 2066 	.db #0x00
   08A7 F0                 2067 	.db #0xF0
   08A8 F0                 2068 	.db #0xF0
   08A9 FF                 2069 	.db #0xFF
   08AA FF                 2070 	.db #0xFF
   08AB FF                 2071 	.db #0xFF
   08AC FF                 2072 	.db #0xFF
   08AD FF                 2073 	.db #0xFF
   08AE FF                 2074 	.db #0xFF
   08AF FF                 2075 	.db #0xFF
   08B0 FF                 2076 	.db #0xFF
   08B1 FF                 2077 	.db #0xFF
   08B2 FF                 2078 	.db #0xFF
   08B3 FF                 2079 	.db #0xFF
   08B4 FF                 2080 	.db #0xFF
   08B5 FF                 2081 	.db #0xFF
   08B6 FF                 2082 	.db #0xFF
   08B7 FF                 2083 	.db #0xFF
   08B8 FF                 2084 	.db #0xFF
   08B9 FF                 2085 	.db #0xFF
   08BA FF                 2086 	.db #0xFF
   08BB FF                 2087 	.db #0xFF
   08BC FF                 2088 	.db #0xFF
   08BD FF                 2089 	.db #0xFF
   08BE FF                 2090 	.db #0xFF
   08BF FF                 2091 	.db #0xFF
   08C0 FF                 2092 	.db #0xFF
   08C1 E7                 2093 	.db #0xE7
   08C2 E7                 2094 	.db #0xE7
   08C3 87                 2095 	.db #0x87
   08C4 87                 2096 	.db #0x87
   08C5 0F                 2097 	.db #0x0F
   08C6 0F                 2098 	.db #0x0F
   08C7 0F                 2099 	.db #0x0F
   08C8 0F                 2100 	.db #0x0F
   08C9 1F                 2101 	.db #0x1F
   08CA 1F                 2102 	.db #0x1F
   08CB 1F                 2103 	.db #0x1F
   08CC 1F                 2104 	.db #0x1F
   08CD 1F                 2105 	.db #0x1F
   08CE 1F                 2106 	.db #0x1F
   08CF 3F                 2107 	.db #0x3F
   08D0 3F                 2108 	.db #0x3F
   08D1 3F                 2109 	.db #0x3F
   08D2 3F                 2110 	.db #0x3F
   08D3 FF                 2111 	.db #0xFF
   08D4 FF                 2112 	.db #0xFF
   08D5 FF                 2113 	.db #0xFF
   08D6 FF                 2114 	.db #0xFF
   08D7 FF                 2115 	.db #0xFF
   08D8 FF                 2116 	.db #0xFF
   08D9 FF                 2117 	.db #0xFF
   08DA FF                 2118 	.db #0xFF
   08DB FF                 2119 	.db #0xFF
   08DC FF                 2120 	.db #0xFF
   08DD FF                 2121 	.db #0xFF
   08DE FF                 2122 	.db #0xFF
   08DF FF                 2123 	.db #0xFF
   08E0 FF                 2124 	.db #0xFF
   08E1 FF                 2125 	.db #0xFF
   08E2 FF                 2126 	.db #0xFF
   08E3 FF                 2127 	.db #0xFF
   08E4 FF                 2128 	.db #0xFF
   08E5 FF                 2129 	.db #0xFF
   08E6 FF                 2130 	.db #0xFF
   08E7 FF                 2131 	.db #0xFF
   08E8 FF                 2132 	.db #0xFF
   08E9 FF                 2133 	.db #0xFF
   08EA FF                 2134 	.db #0xFF
   08EB FF                 2135 	.db #0xFF
   08EC FF                 2136 	.db #0xFF
   08ED F8                 2137 	.db #0xF8
   08EE F8                 2138 	.db #0xF8
   08EF E3                 2139 	.db #0xE3
   08F0 E3                 2140 	.db #0xE3
   08F1 DF                 2141 	.db #0xDF
   08F2 DF                 2142 	.db #0xDF
   08F3 00                 2143 	.db #0x00
   08F4 00                 2144 	.db #0x00
   08F5 00                 2145 	.db #0x00
   08F6 00                 2146 	.db #0x00
   08F7 00                 2147 	.db #0x00
   08F8 00                 2148 	.db #0x00
   08F9 00                 2149 	.db #0x00
   08FA 00                 2150 	.db #0x00
   08FB 00                 2151 	.db #0x00
   08FC 00                 2152 	.db #0x00
   08FD 00                 2153 	.db #0x00
   08FE 00                 2154 	.db #0x00
   08FF 00                 2155 	.db #0x00
   0900 00                 2156 	.db #0x00
   0901 00                 2157 	.db #0x00
   0902 00                 2158 	.db #0x00
   0903 00                 2159 	.db #0x00
   0904 00                 2160 	.db #0x00
   0905 00                 2161 	.db #0x00
   0906 00                 2162 	.db #0x00
   0907 00                 2163 	.db #0x00
   0908 00                 2164 	.db #0x00
   0909 C0                 2165 	.db #0xC0
   090A C0                 2166 	.db #0xC0
   090B F8                 2167 	.db #0xF8
   090C F8                 2168 	.db #0xF8
   090D FE                 2169 	.db #0xFE
   090E FE                 2170 	.db #0xFE
   090F FF                 2171 	.db #0xFF
   0910 FF                 2172 	.db #0xFF
   0911 FF                 2173 	.db #0xFF
   0912 FF                 2174 	.db #0xFF
   0913 00                 2175 	.db #0x00
   0914 00                 2176 	.db #0x00
   0915 00                 2177 	.db #0x00
   0916 00                 2178 	.db #0x00
   0917 00                 2179 	.db #0x00
   0918 00                 2180 	.db #0x00
   0919 00                 2181 	.db #0x00
   091A 00                 2182 	.db #0x00
   091B 00                 2183 	.db #0x00
   091C 00                 2184 	.db #0x00
   091D 00                 2185 	.db #0x00
   091E 00                 2186 	.db #0x00
   091F 00                 2187 	.db #0x00
   0920 00                 2188 	.db #0x00
   0921 00                 2189 	.db #0x00
   0922 00                 2190 	.db #0x00
   0923 00                 2191 	.db #0x00
   0924 00                 2192 	.db #0x00
   0925 00                 2193 	.db #0x00
   0926 00                 2194 	.db #0x00
   0927 00                 2195 	.db #0x00
   0928 00                 2196 	.db #0x00
   0929 00                 2197 	.db #0x00
   092A 00                 2198 	.db #0x00
   092B 00                 2199 	.db #0x00
   092C 00                 2200 	.db #0x00
   092D 00                 2201 	.db #0x00
   092E 00                 2202 	.db #0x00
   092F 80                 2203 	.db #0x80
   0930 80                 2204 	.db #0x80
   0931 E0                 2205 	.db #0xE0
   0932 E0                 2206 	.db #0xE0
   0933 FF                 2207 	.db #0xFF
   0934 FF                 2208 	.db #0xFF
   0935 FF                 2209 	.db #0xFF
   0936 FF                 2210 	.db #0xFF
   0937 FF                 2211 	.db #0xFF
   0938 FF                 2212 	.db #0xFF
   0939 FF                 2213 	.db #0xFF
   093A FF                 2214 	.db #0xFF
   093B FF                 2215 	.db #0xFF
   093C FF                 2216 	.db #0xFF
   093D FF                 2217 	.db #0xFF
   093E FF                 2218 	.db #0xFF
   093F FF                 2219 	.db #0xFF
   0940 FF                 2220 	.db #0xFF
   0941 FF                 2221 	.db #0xFF
   0942 FF                 2222 	.db #0xFF
   0943 FF                 2223 	.db #0xFF
   0944 FF                 2224 	.db #0xFF
   0945 FF                 2225 	.db #0xFF
   0946 FF                 2226 	.db #0xFF
   0947 FF                 2227 	.db #0xFF
   0948 FF                 2228 	.db #0xFF
   0949 FF                 2229 	.db #0xFF
   094A FF                 2230 	.db #0xFF
   094B 1F                 2231 	.db #0x1F
   094C 1F                 2232 	.db #0x1F
   094D 7F                 2233 	.db #0x7F
   094E 7F                 2234 	.db #0x7F
   094F FF                 2235 	.db #0xFF
   0950 FF                 2236 	.db #0xFF
   0951 FF                 2237 	.db #0xFF
   0952 FF                 2238 	.db #0xFF
   0953 F0                 2239 	.db #0xF0
   0954 F0                 2240 	.db #0xF0
   0955 FC                 2241 	.db #0xFC
   0956 FC                 2242 	.db #0xFC
   0957 FF                 2243 	.db #0xFF
   0958 FF                 2244 	.db #0xFF
   0959 FF                 2245 	.db #0xFF
   095A FF                 2246 	.db #0xFF
   095B FF                 2247 	.db #0xFF
   095C FF                 2248 	.db #0xFF
   095D FF                 2249 	.db #0xFF
   095E FF                 2250 	.db #0xFF
   095F FF                 2251 	.db #0xFF
   0960 FF                 2252 	.db #0xFF
   0961 FF                 2253 	.db #0xFF
   0962 FF                 2254 	.db #0xFF
   0963 FF                 2255 	.db #0xFF
   0964 FF                 2256 	.db #0xFF
   0965 FF                 2257 	.db #0xFF
   0966 FF                 2258 	.db #0xFF
   0967 FF                 2259 	.db #0xFF
   0968 FF                 2260 	.db #0xFF
   0969 FF                 2261 	.db #0xFF
   096A FF                 2262 	.db #0xFF
   096B FF                 2263 	.db #0xFF
   096C FF                 2264 	.db #0xFF
   096D FF                 2265 	.db #0xFF
   096E FF                 2266 	.db #0xFF
   096F FC                 2267 	.db #0xFC
   0970 FC                 2268 	.db #0xFC
   0971 F0                 2269 	.db #0xF0
   0972 F0                 2270 	.db #0xF0
   0973 00                 2271 	.db #0x00
   0974 00                 2272 	.db #0x00
   0975 00                 2273 	.db #0x00
   0976 00                 2274 	.db #0x00
   0977 00                 2275 	.db #0x00
   0978 00                 2276 	.db #0x00
   0979 00                 2277 	.db #0x00
   097A 00                 2278 	.db #0x00
   097B 00                 2279 	.db #0x00
   097C 00                 2280 	.db #0x00
   097D 00                 2281 	.db #0x00
   097E 00                 2282 	.db #0x00
   097F 00                 2283 	.db #0x00
   0980 00                 2284 	.db #0x00
   0981 00                 2285 	.db #0x00
   0982 00                 2286 	.db #0x00
   0983 00                 2287 	.db #0x00
   0984 00                 2288 	.db #0x00
   0985 00                 2289 	.db #0x00
   0986 00                 2290 	.db #0x00
   0987 00                 2291 	.db #0x00
   0988 00                 2292 	.db #0x00
   0989 00                 2293 	.db #0x00
   098A 00                 2294 	.db #0x00
   098B 00                 2295 	.db #0x00
   098C 00                 2296 	.db #0x00
   098D 00                 2297 	.db #0x00
   098E 00                 2298 	.db #0x00
   098F 00                 2299 	.db #0x00
   0990 00                 2300 	.db #0x00
   0991 00                 2301 	.db #0x00
   0992 00                 2302 	.db #0x00
   0993 00                 2303 	.db #0x00
   0994 00                 2304 	.db #0x00
   0995 00                 2305 	.db #0x00
   0996 00                 2306 	.db #0x00
   0997 00                 2307 	.db #0x00
   0998 00                 2308 	.db #0x00
   0999 00                 2309 	.db #0x00
   099A 00                 2310 	.db #0x00
   099B 00                 2311 	.db #0x00
   099C 00                 2312 	.db #0x00
   099D 00                 2313 	.db #0x00
   099E 00                 2314 	.db #0x00
   099F 00                 2315 	.db #0x00
   09A0 00                 2316 	.db #0x00
   09A1 00                 2317 	.db #0x00
   09A2 00                 2318 	.db #0x00
   09A3 00                 2319 	.db #0x00
   09A4 00                 2320 	.db #0x00
   09A5 01                 2321 	.db #0x01
   09A6 01                 2322 	.db #0x01
   09A7 03                 2323 	.db #0x03
   09A8 03                 2324 	.db #0x03
   09A9 07                 2325 	.db #0x07
   09AA 07                 2326 	.db #0x07
   09AB 07                 2327 	.db #0x07
   09AC 07                 2328 	.db #0x07
   09AD 0F                 2329 	.db #0x0F
   09AE 0F                 2330 	.db #0x0F
   09AF 1F                 2331 	.db #0x1F
   09B0 1F                 2332 	.db #0x1F
   09B1 1F                 2333 	.db #0x1F
   09B2 1F                 2334 	.db #0x1F
   09B3 00                 2335 	.db #0x00
   09B4 00                 2336 	.db #0x00
   09B5 00                 2337 	.db #0x00
   09B6 00                 2338 	.db #0x00
   09B7 00                 2339 	.db #0x00
   09B8 00                 2340 	.db #0x00
   09B9 E0                 2341 	.db #0xE0
   09BA E0                 2342 	.db #0xE0
   09BB FF                 2343 	.db #0xFF
   09BC FF                 2344 	.db #0xFF
   09BD FF                 2345 	.db #0xFF
   09BE FF                 2346 	.db #0xFF
   09BF FF                 2347 	.db #0xFF
   09C0 FF                 2348 	.db #0xFF
   09C1 FF                 2349 	.db #0xFF
   09C2 FF                 2350 	.db #0xFF
   09C3 FF                 2351 	.db #0xFF
   09C4 FF                 2352 	.db #0xFF
   09C5 FF                 2353 	.db #0xFF
   09C6 FF                 2354 	.db #0xFF
   09C7 FF                 2355 	.db #0xFF
   09C8 FF                 2356 	.db #0xFF
   09C9 FF                 2357 	.db #0xFF
   09CA FF                 2358 	.db #0xFF
   09CB FF                 2359 	.db #0xFF
   09CC FF                 2360 	.db #0xFF
   09CD FF                 2361 	.db #0xFF
   09CE FF                 2362 	.db #0xFF
   09CF 07                 2363 	.db #0x07
   09D0 07                 2364 	.db #0x07
   09D1 0F                 2365 	.db #0x0F
   09D2 0F                 2366 	.db #0x0F
   09D3 3F                 2367 	.db #0x3F
   09D4 3F                 2368 	.db #0x3F
   09D5 3F                 2369 	.db #0x3F
   09D6 3F                 2370 	.db #0x3F
   09D7 7F                 2371 	.db #0x7F
   09D8 7F                 2372 	.db #0x7F
   09D9 FF                 2373 	.db #0xFF
   09DA FF                 2374 	.db #0xFF
   09DB FF                 2375 	.db #0xFF
   09DC FF                 2376 	.db #0xFF
   09DD FF                 2377 	.db #0xFF
   09DE FF                 2378 	.db #0xFF
   09DF FF                 2379 	.db #0xFF
   09E0 FF                 2380 	.db #0xFF
   09E1 FF                 2381 	.db #0xFF
   09E2 FF                 2382 	.db #0xFF
   09E3 FF                 2383 	.db #0xFF
   09E4 FF                 2384 	.db #0xFF
   09E5 FF                 2385 	.db #0xFF
   09E6 FF                 2386 	.db #0xFF
   09E7 FF                 2387 	.db #0xFF
   09E8 FF                 2388 	.db #0xFF
   09E9 FF                 2389 	.db #0xFF
   09EA FF                 2390 	.db #0xFF
   09EB FF                 2391 	.db #0xFF
   09EC FF                 2392 	.db #0xFF
   09ED FF                 2393 	.db #0xFF
   09EE FF                 2394 	.db #0xFF
   09EF FF                 2395 	.db #0xFF
   09F0 FF                 2396 	.db #0xFF
   09F1 FF                 2397 	.db #0xFF
   09F2 FF                 2398 	.db #0xFF
   09F3 00                 2399 	.db #0x00
   09F4 00                 2400 	.db #0x00
   09F5 00                 2401 	.db #0x00
   09F6 00                 2402 	.db #0x00
   09F7 00                 2403 	.db #0x00
   09F8 00                 2404 	.db #0x00
   09F9 00                 2405 	.db #0x00
   09FA 00                 2406 	.db #0x00
   09FB 00                 2407 	.db #0x00
   09FC 00                 2408 	.db #0x00
   09FD 03                 2409 	.db #0x03
   09FE 03                 2410 	.db #0x03
   09FF 0F                 2411 	.db #0x0F
   0A00 0F                 2412 	.db #0x0F
   0A01 3F                 2413 	.db #0x3F
   0A02 3F                 2414 	.db #0x3F
   0A03 FF                 2415 	.db #0xFF
   0A04 FF                 2416 	.db #0xFF
   0A05 FF                 2417 	.db #0xFF
   0A06 FF                 2418 	.db #0xFF
   0A07 FF                 2419 	.db #0xFF
   0A08 FF                 2420 	.db #0xFF
   0A09 FF                 2421 	.db #0xFF
   0A0A FF                 2422 	.db #0xFF
   0A0B FF                 2423 	.db #0xFF
   0A0C FF                 2424 	.db #0xFF
   0A0D FE                 2425 	.db #0xFE
   0A0E FE                 2426 	.db #0xFE
   0A0F E3                 2427 	.db #0xE3
   0A10 E3                 2428 	.db #0xE3
   0A11 80                 2429 	.db #0x80
   0A12 80                 2430 	.db #0x80
   0A13 00                 2431 	.db #0x00
   0A14 00                 2432 	.db #0x00
   0A15 00                 2433 	.db #0x00
   0A16 00                 2434 	.db #0x00
   0A17 00                 2435 	.db #0x00
   0A18 00                 2436 	.db #0x00
   0A19 00                 2437 	.db #0x00
   0A1A 00                 2438 	.db #0x00
   0A1B 3F                 2439 	.db #0x3F
   0A1C 3F                 2440 	.db #0x3F
   0A1D FF                 2441 	.db #0xFF
   0A1E FF                 2442 	.db #0xFF
   0A1F FF                 2443 	.db #0xFF
   0A20 FF                 2444 	.db #0xFF
   0A21 FF                 2445 	.db #0xFF
   0A22 FF                 2446 	.db #0xFF
   0A23 FF                 2447 	.db #0xFF
   0A24 FF                 2448 	.db #0xFF
   0A25 FF                 2449 	.db #0xFF
   0A26 FF                 2450 	.db #0xFF
   0A27 FF                 2451 	.db #0xFF
   0A28 FF                 2452 	.db #0xFF
   0A29 FF                 2453 	.db #0xFF
   0A2A FF                 2454 	.db #0xFF
   0A2B FF                 2455 	.db #0xFF
   0A2C FF                 2456 	.db #0xFF
   0A2D FF                 2457 	.db #0xFF
   0A2E FF                 2458 	.db #0xFF
   0A2F 7F                 2459 	.db #0x7F
   0A30 7F                 2460 	.db #0x7F
   0A31 BF                 2461 	.db #0xBF
   0A32 BF                 2462 	.db #0xBF
   0A33 00                 2463 	.db #0x00
   0A34 00                 2464 	.db #0x00
   0A35 03                 2465 	.db #0x03
   0A36 03                 2466 	.db #0x03
   0A37 80                 2467 	.db #0x80
   0A38 80                 2468 	.db #0x80
   0A39 FF                 2469 	.db #0xFF
   0A3A FF                 2470 	.db #0xFF
   0A3B FF                 2471 	.db #0xFF
   0A3C FF                 2472 	.db #0xFF
   0A3D FF                 2473 	.db #0xFF
   0A3E FF                 2474 	.db #0xFF
   0A3F FF                 2475 	.db #0xFF
   0A40 FF                 2476 	.db #0xFF
   0A41 F7                 2477 	.db #0xF7
   0A42 F7                 2478 	.db #0xF7
   0A43 E0                 2479 	.db #0xE0
   0A44 E0                 2480 	.db #0xE0
   0A45 E0                 2481 	.db #0xE0
   0A46 E0                 2482 	.db #0xE0
   0A47 E8                 2483 	.db #0xE8
   0A48 E8                 2484 	.db #0xE8
   0A49 E8                 2485 	.db #0xE8
   0A4A E8                 2486 	.db #0xE8
   0A4B E8                 2487 	.db #0xE8
   0A4C E8                 2488 	.db #0xE8
   0A4D E8                 2489 	.db #0xE8
   0A4E E8                 2490 	.db #0xE8
   0A4F EC                 2491 	.db #0xEC
   0A50 EC                 2492 	.db #0xEC
   0A51 EC                 2493 	.db #0xEC
   0A52 EC                 2494 	.db #0xEC
   0A53 3F                 2495 	.db #0x3F
   0A54 3F                 2496 	.db #0x3F
   0A55 3F                 2497 	.db #0x3F
   0A56 3F                 2498 	.db #0x3F
   0A57 7F                 2499 	.db #0x7F
   0A58 7F                 2500 	.db #0x7F
   0A59 FF                 2501 	.db #0xFF
   0A5A FF                 2502 	.db #0xFF
   0A5B FF                 2503 	.db #0xFF
   0A5C FF                 2504 	.db #0xFF
   0A5D FF                 2505 	.db #0xFF
   0A5E FF                 2506 	.db #0xFF
   0A5F FF                 2507 	.db #0xFF
   0A60 FF                 2508 	.db #0xFF
   0A61 FF                 2509 	.db #0xFF
   0A62 FF                 2510 	.db #0xFF
   0A63 00                 2511 	.db #0x00
   0A64 00                 2512 	.db #0x00
   0A65 00                 2513 	.db #0x00
   0A66 00                 2514 	.db #0x00
   0A67 00                 2515 	.db #0x00
   0A68 00                 2516 	.db #0x00
   0A69 4C                 2517 	.db #0x4C
   0A6A 4C                 2518 	.db #0x4C
   0A6B 4C                 2519 	.db #0x4C
   0A6C 4C                 2520 	.db #0x4C
   0A6D 4C                 2521 	.db #0x4C
   0A6E 4C                 2522 	.db #0x4C
   0A6F 6D                 2523 	.db #0x6D
   0A70 6D                 2524 	.db #0x6D
   0A71 7F                 2525 	.db #0x7F
   0A72 7F                 2526 	.db #0x7F
   0A73 00                 2527 	.db #0x00
   0A74 00                 2528 	.db #0x00
   0A75 00                 2529 	.db #0x00
   0A76 00                 2530 	.db #0x00
   0A77 00                 2531 	.db #0x00
   0A78 00                 2532 	.db #0x00
   0A79 00                 2533 	.db #0x00
   0A7A 00                 2534 	.db #0x00
   0A7B E0                 2535 	.db #0xE0
   0A7C E0                 2536 	.db #0xE0
   0A7D FC                 2537 	.db #0xFC
   0A7E FC                 2538 	.db #0xFC
   0A7F FE                 2539 	.db #0xFE
   0A80 FE                 2540 	.db #0xFE
   0A81 FF                 2541 	.db #0xFF
   0A82 FF                 2542 	.db #0xFF
   0A83 FF                 2543 	.db #0xFF
   0A84 FF                 2544 	.db #0xFF
   0A85 FF                 2545 	.db #0xFF
   0A86 FF                 2546 	.db #0xFF
   0A87 FF                 2547 	.db #0xFF
   0A88 FF                 2548 	.db #0xFF
   0A89 FF                 2549 	.db #0xFF
   0A8A FF                 2550 	.db #0xFF
   0A8B FF                 2551 	.db #0xFF
   0A8C FF                 2552 	.db #0xFF
   0A8D DF                 2553 	.db #0xDF
   0A8E DF                 2554 	.db #0xDF
   0A8F B1                 2555 	.db #0xB1
   0A90 B1                 2556 	.db #0xB1
   0A91 40                 2557 	.db #0x40
   0A92 40                 2558 	.db #0x40
   0A93 00                 2559 	.db #0x00
   0A94 00                 2560 	.db #0x00
   0A95 00                 2561 	.db #0x00
   0A96 00                 2562 	.db #0x00
   0A97 00                 2563 	.db #0x00
   0A98 00                 2564 	.db #0x00
   0A99 00                 2565 	.db #0x00
   0A9A 00                 2566 	.db #0x00
   0A9B 00                 2567 	.db #0x00
   0A9C 00                 2568 	.db #0x00
   0A9D 00                 2569 	.db #0x00
   0A9E 00                 2570 	.db #0x00
   0A9F 00                 2571 	.db #0x00
   0AA0 00                 2572 	.db #0x00
   0AA1 00                 2573 	.db #0x00
   0AA2 00                 2574 	.db #0x00
   0AA3 80                 2575 	.db #0x80
   0AA4 80                 2576 	.db #0x80
   0AA5 E0                 2577 	.db #0xE0
   0AA6 E0                 2578 	.db #0xE0
   0AA7 F0                 2579 	.db #0xF0
   0AA8 F0                 2580 	.db #0xF0
   0AA9 F8                 2581 	.db #0xF8
   0AAA F8                 2582 	.db #0xF8
   0AAB FC                 2583 	.db #0xFC
   0AAC FC                 2584 	.db #0xFC
   0AAD FC                 2585 	.db #0xFC
   0AAE FC                 2586 	.db #0xFC
   0AAF FE                 2587 	.db #0xFE
   0AB0 FE                 2588 	.db #0xFE
   0AB1 7E                 2589 	.db #0x7E
   0AB2 7E                 2590 	.db #0x7E
   0AB3 00                 2591 	.db #0x00
   0AB4 00                 2592 	.db #0x00
   0AB5 30                 2593 	.db #0x30
   0AB6 30                 2594 	.db #0x30
   0AB7 80                 2595 	.db #0x80
   0AB8 80                 2596 	.db #0x80
   0AB9 FF                 2597 	.db #0xFF
   0ABA FF                 2598 	.db #0xFF
   0ABB FF                 2599 	.db #0xFF
   0ABC FF                 2600 	.db #0xFF
   0ABD FF                 2601 	.db #0xFF
   0ABE FF                 2602 	.db #0xFF
   0ABF FF                 2603 	.db #0xFF
   0AC0 FF                 2604 	.db #0xFF
   0AC1 FB                 2605 	.db #0xFB
   0AC2 FB                 2606 	.db #0xFB
   0AC3 01                 2607 	.db #0x01
   0AC4 01                 2608 	.db #0x01
   0AC5 01                 2609 	.db #0x01
   0AC6 01                 2610 	.db #0x01
   0AC7 05                 2611 	.db #0x05
   0AC8 05                 2612 	.db #0x05
   0AC9 85                 2613 	.db #0x85
   0ACA 85                 2614 	.db #0x85
   0ACB 85                 2615 	.db #0x85
   0ACC 85                 2616 	.db #0x85
   0ACD 85                 2617 	.db #0x85
   0ACE 85                 2618 	.db #0x85
   0ACF 8D                 2619 	.db #0x8D
   0AD0 8D                 2620 	.db #0x8D
   0AD1 8D                 2621 	.db #0x8D
   0AD2 8D                 2622 	.db #0x8D
   0AD3 3F                 2623 	.db #0x3F
   0AD4 3F                 2624 	.db #0x3F
   0AD5 3F                 2625 	.db #0x3F
   0AD6 3F                 2626 	.db #0x3F
   0AD7 7F                 2627 	.db #0x7F
   0AD8 7F                 2628 	.db #0x7F
   0AD9 FF                 2629 	.db #0xFF
   0ADA FF                 2630 	.db #0xFF
   0ADB FF                 2631 	.db #0xFF
   0ADC FF                 2632 	.db #0xFF
   0ADD FF                 2633 	.db #0xFF
   0ADE FF                 2634 	.db #0xFF
   0ADF FF                 2635 	.db #0xFF
   0AE0 FF                 2636 	.db #0xFF
   0AE1 FF                 2637 	.db #0xFF
   0AE2 FF                 2638 	.db #0xFF
   0AE3 FF                 2639 	.db #0xFF
   0AE4 FF                 2640 	.db #0xFF
   0AE5 FF                 2641 	.db #0xFF
   0AE6 FF                 2642 	.db #0xFF
   0AE7 FF                 2643 	.db #0xFF
   0AE8 FF                 2644 	.db #0xFF
   0AE9 FF                 2645 	.db #0xFF
   0AEA FF                 2646 	.db #0xFF
   0AEB FF                 2647 	.db #0xFF
   0AEC FF                 2648 	.db #0xFF
   0AED FF                 2649 	.db #0xFF
   0AEE FF                 2650 	.db #0xFF
   0AEF FF                 2651 	.db #0xFF
   0AF0 FF                 2652 	.db #0xFF
   0AF1 FF                 2653 	.db #0xFF
   0AF2 FF                 2654 	.db #0xFF
   0AF3 00                 2655 	.db #0x00
   0AF4 00                 2656 	.db #0x00
   0AF5 00                 2657 	.db #0x00
   0AF6 00                 2658 	.db #0x00
   0AF7 00                 2659 	.db #0x00
   0AF8 00                 2660 	.db #0x00
   0AF9 00                 2661 	.db #0x00
   0AFA 00                 2662 	.db #0x00
   0AFB 00                 2663 	.db #0x00
   0AFC 00                 2664 	.db #0x00
   0AFD 00                 2665 	.db #0x00
   0AFE 00                 2666 	.db #0x00
   0AFF 00                 2667 	.db #0x00
   0B00 00                 2668 	.db #0x00
   0B01 00                 2669 	.db #0x00
   0B02 00                 2670 	.db #0x00
   0B03 00                 2671 	.db #0x00
   0B04 00                 2672 	.db #0x00
   0B05 00                 2673 	.db #0x00
   0B06 00                 2674 	.db #0x00
   0B07 00                 2675 	.db #0x00
   0B08 00                 2676 	.db #0x00
   0B09 00                 2677 	.db #0x00
   0B0A 00                 2678 	.db #0x00
   0B0B 00                 2679 	.db #0x00
   0B0C 00                 2680 	.db #0x00
   0B0D 00                 2681 	.db #0x00
   0B0E 00                 2682 	.db #0x00
   0B0F 00                 2683 	.db #0x00
   0B10 00                 2684 	.db #0x00
   0B11 00                 2685 	.db #0x00
   0B12 00                 2686 	.db #0x00
   0B13 00                 2687 	.db #0x00
   0B14 00                 2688 	.db #0x00
   0B15 00                 2689 	.db #0x00
   0B16 00                 2690 	.db #0x00
   0B17 00                 2691 	.db #0x00
   0B18 00                 2692 	.db #0x00
   0B19 00                 2693 	.db #0x00
   0B1A 00                 2694 	.db #0x00
   0B1B 00                 2695 	.db #0x00
   0B1C 00                 2696 	.db #0x00
   0B1D 00                 2697 	.db #0x00
   0B1E 00                 2698 	.db #0x00
   0B1F 00                 2699 	.db #0x00
   0B20 00                 2700 	.db #0x00
   0B21 00                 2701 	.db #0x00
   0B22 00                 2702 	.db #0x00
   0B23 00                 2703 	.db #0x00
   0B24 00                 2704 	.db #0x00
   0B25 00                 2705 	.db #0x00
   0B26 00                 2706 	.db #0x00
   0B27 00                 2707 	.db #0x00
   0B28 00                 2708 	.db #0x00
   0B29 00                 2709 	.db #0x00
   0B2A 00                 2710 	.db #0x00
   0B2B 00                 2711 	.db #0x00
   0B2C 00                 2712 	.db #0x00
   0B2D 00                 2713 	.db #0x00
   0B2E 00                 2714 	.db #0x00
   0B2F 00                 2715 	.db #0x00
   0B30 00                 2716 	.db #0x00
   0B31 00                 2717 	.db #0x00
   0B32 00                 2718 	.db #0x00
   0B33 00                 2719 	.db #0x00
   0B34 00                 2720 	.db #0x00
   0B35 80                 2721 	.db #0x80
   0B36 80                 2722 	.db #0x80
   0B37 F0                 2723 	.db #0xF0
   0B38 F0                 2724 	.db #0xF0
   0B39 FF                 2725 	.db #0xFF
   0B3A FF                 2726 	.db #0xFF
   0B3B FF                 2727 	.db #0xFF
   0B3C FF                 2728 	.db #0xFF
   0B3D FF                 2729 	.db #0xFF
   0B3E FF                 2730 	.db #0xFF
   0B3F FF                 2731 	.db #0xFF
   0B40 FF                 2732 	.db #0xFF
   0B41 FF                 2733 	.db #0xFF
   0B42 FF                 2734 	.db #0xFF
   0B43 FF                 2735 	.db #0xFF
   0B44 FF                 2736 	.db #0xFF
   0B45 FF                 2737 	.db #0xFF
   0B46 FF                 2738 	.db #0xFF
   0B47 FF                 2739 	.db #0xFF
   0B48 FF                 2740 	.db #0xFF
   0B49 FF                 2741 	.db #0xFF
   0B4A FF                 2742 	.db #0xFF
   0B4B FF                 2743 	.db #0xFF
   0B4C FF                 2744 	.db #0xFF
   0B4D FF                 2745 	.db #0xFF
   0B4E FF                 2746 	.db #0xFF
   0B4F FF                 2747 	.db #0xFF
   0B50 FF                 2748 	.db #0xFF
   0B51 FE                 2749 	.db #0xFE
   0B52 FE                 2750 	.db #0xFE
   0B53 01                 2751 	.db #0x01
   0B54 01                 2752 	.db #0x01
   0B55 07                 2753 	.db #0x07
   0B56 07                 2754 	.db #0x07
   0B57 3F                 2755 	.db #0x3F
   0B58 3F                 2756 	.db #0x3F
   0B59 FF                 2757 	.db #0xFF
   0B5A FF                 2758 	.db #0xFF
   0B5B FF                 2759 	.db #0xFF
   0B5C FF                 2760 	.db #0xFF
   0B5D FF                 2761 	.db #0xFF
   0B5E FF                 2762 	.db #0xFF
   0B5F FF                 2763 	.db #0xFF
   0B60 FF                 2764 	.db #0xFF
   0B61 FF                 2765 	.db #0xFF
   0B62 FF                 2766 	.db #0xFF
   0B63 FF                 2767 	.db #0xFF
   0B64 FF                 2768 	.db #0xFF
   0B65 FF                 2769 	.db #0xFF
   0B66 FF                 2770 	.db #0xFF
   0B67 FF                 2771 	.db #0xFF
   0B68 FF                 2772 	.db #0xFF
   0B69 FF                 2773 	.db #0xFF
   0B6A FF                 2774 	.db #0xFF
   0B6B FF                 2775 	.db #0xFF
   0B6C FF                 2776 	.db #0xFF
   0B6D FF                 2777 	.db #0xFF
   0B6E FF                 2778 	.db #0xFF
   0B6F 80                 2779 	.db #0x80
   0B70 80                 2780 	.db #0x80
   0B71 00                 2781 	.db #0x00
   0B72 00                 2782 	.db #0x00
   0B73 00                 2783 	.db #0x00
   0B74 00                 2784 	.db #0x00
   0B75 00                 2785 	.db #0x00
   0B76 00                 2786 	.db #0x00
   0B77 00                 2787 	.db #0x00
   0B78 00                 2788 	.db #0x00
   0B79 00                 2789 	.db #0x00
   0B7A 00                 2790 	.db #0x00
   0B7B 00                 2791 	.db #0x00
   0B7C 00                 2792 	.db #0x00
   0B7D 00                 2793 	.db #0x00
   0B7E 00                 2794 	.db #0x00
   0B7F 00                 2795 	.db #0x00
   0B80 00                 2796 	.db #0x00
   0B81 00                 2797 	.db #0x00
   0B82 00                 2798 	.db #0x00
   0B83 00                 2799 	.db #0x00
   0B84 00                 2800 	.db #0x00
   0B85 00                 2801 	.db #0x00
   0B86 00                 2802 	.db #0x00
   0B87 00                 2803 	.db #0x00
   0B88 00                 2804 	.db #0x00
   0B89 00                 2805 	.db #0x00
   0B8A 00                 2806 	.db #0x00
   0B8B 00                 2807 	.db #0x00
   0B8C 00                 2808 	.db #0x00
   0B8D 03                 2809 	.db #0x03
   0B8E 03                 2810 	.db #0x03
   0B8F 0F                 2811 	.db #0x0F
   0B90 0F                 2812 	.db #0x0F
   0B91 3F                 2813 	.db #0x3F
   0B92 3F                 2814 	.db #0x3F
   0B93 00                 2815 	.db #0x00
   0B94 00                 2816 	.db #0x00
   0B95 00                 2817 	.db #0x00
   0B96 00                 2818 	.db #0x00
   0B97 00                 2819 	.db #0x00
   0B98 00                 2820 	.db #0x00
   0B99 00                 2821 	.db #0x00
   0B9A 00                 2822 	.db #0x00
   0B9B 00                 2823 	.db #0x00
   0B9C 00                 2824 	.db #0x00
   0B9D 00                 2825 	.db #0x00
   0B9E 00                 2826 	.db #0x00
   0B9F 00                 2827 	.db #0x00
   0BA0 00                 2828 	.db #0x00
   0BA1 00                 2829 	.db #0x00
   0BA2 00                 2830 	.db #0x00
   0BA3 00                 2831 	.db #0x00
   0BA4 00                 2832 	.db #0x00
   0BA5 00                 2833 	.db #0x00
   0BA6 00                 2834 	.db #0x00
   0BA7 0F                 2835 	.db #0x0F
   0BA8 0F                 2836 	.db #0x0F
   0BA9 3F                 2837 	.db #0x3F
   0BAA 3F                 2838 	.db #0x3F
   0BAB FF                 2839 	.db #0xFF
   0BAC FF                 2840 	.db #0xFF
   0BAD FF                 2841 	.db #0xFF
   0BAE FF                 2842 	.db #0xFF
   0BAF FF                 2843 	.db #0xFF
   0BB0 FF                 2844 	.db #0xFF
   0BB1 FF                 2845 	.db #0xFF
   0BB2 FF                 2846 	.db #0xFF
   0BB3 FF                 2847 	.db #0xFF
   0BB4 FF                 2848 	.db #0xFF
   0BB5 FF                 2849 	.db #0xFF
   0BB6 FF                 2850 	.db #0xFF
   0BB7 FF                 2851 	.db #0xFF
   0BB8 FF                 2852 	.db #0xFF
   0BB9 FF                 2853 	.db #0xFF
   0BBA FF                 2854 	.db #0xFF
   0BBB FF                 2855 	.db #0xFF
   0BBC FF                 2856 	.db #0xFF
   0BBD FF                 2857 	.db #0xFF
   0BBE FF                 2858 	.db #0xFF
   0BBF FF                 2859 	.db #0xFF
   0BC0 FF                 2860 	.db #0xFF
   0BC1 FF                 2861 	.db #0xFF
   0BC2 FF                 2862 	.db #0xFF
   0BC3 FF                 2863 	.db #0xFF
   0BC4 FF                 2864 	.db #0xFF
   0BC5 FF                 2865 	.db #0xFF
   0BC6 FF                 2866 	.db #0xFF
   0BC7 FF                 2867 	.db #0xFF
   0BC8 FF                 2868 	.db #0xFF
   0BC9 FF                 2869 	.db #0xFF
   0BCA FF                 2870 	.db #0xFF
   0BCB FF                 2871 	.db #0xFF
   0BCC FF                 2872 	.db #0xFF
   0BCD FF                 2873 	.db #0xFF
   0BCE FF                 2874 	.db #0xFF
   0BCF FF                 2875 	.db #0xFF
   0BD0 FF                 2876 	.db #0xFF
   0BD1 0F                 2877 	.db #0x0F
   0BD2 0F                 2878 	.db #0x0F
   0BD3 FF                 2879 	.db #0xFF
   0BD4 FF                 2880 	.db #0xFF
   0BD5 FF                 2881 	.db #0xFF
   0BD6 FF                 2882 	.db #0xFF
   0BD7 FF                 2883 	.db #0xFF
   0BD8 FF                 2884 	.db #0xFF
   0BD9 FF                 2885 	.db #0xFF
   0BDA FF                 2886 	.db #0xFF
   0BDB FF                 2887 	.db #0xFF
   0BDC FF                 2888 	.db #0xFF
   0BDD FF                 2889 	.db #0xFF
   0BDE FF                 2890 	.db #0xFF
   0BDF FF                 2891 	.db #0xFF
   0BE0 FF                 2892 	.db #0xFF
   0BE1 FF                 2893 	.db #0xFF
   0BE2 FF                 2894 	.db #0xFF
   0BE3 FF                 2895 	.db #0xFF
   0BE4 FF                 2896 	.db #0xFF
   0BE5 FF                 2897 	.db #0xFF
   0BE6 FF                 2898 	.db #0xFF
   0BE7 FF                 2899 	.db #0xFF
   0BE8 FF                 2900 	.db #0xFF
   0BE9 FF                 2901 	.db #0xFF
   0BEA FF                 2902 	.db #0xFF
   0BEB FF                 2903 	.db #0xFF
   0BEC FF                 2904 	.db #0xFF
   0BED FF                 2905 	.db #0xFF
   0BEE FF                 2906 	.db #0xFF
   0BEF E7                 2907 	.db #0xE7
   0BF0 E7                 2908 	.db #0xE7
   0BF1 E1                 2909 	.db #0xE1
   0BF2 E1                 2910 	.db #0xE1
   0BF3 00                 2911 	.db #0x00
   0BF4 00                 2912 	.db #0x00
   0BF5 00                 2913 	.db #0x00
   0BF6 00                 2914 	.db #0x00
   0BF7 00                 2915 	.db #0x00
   0BF8 00                 2916 	.db #0x00
   0BF9 00                 2917 	.db #0x00
   0BFA 00                 2918 	.db #0x00
   0BFB 00                 2919 	.db #0x00
   0BFC 00                 2920 	.db #0x00
   0BFD 00                 2921 	.db #0x00
   0BFE 00                 2922 	.db #0x00
   0BFF 00                 2923 	.db #0x00
   0C00 00                 2924 	.db #0x00
   0C01 00                 2925 	.db #0x00
   0C02 00                 2926 	.db #0x00
   0C03 00                 2927 	.db #0x00
   0C04 00                 2928 	.db #0x00
   0C05 FC                 2929 	.db #0xFC
   0C06 FC                 2930 	.db #0xFC
   0C07 FF                 2931 	.db #0xFF
   0C08 FF                 2932 	.db #0xFF
   0C09 FF                 2933 	.db #0xFF
   0C0A FF                 2934 	.db #0xFF
   0C0B FF                 2935 	.db #0xFF
   0C0C FF                 2936 	.db #0xFF
   0C0D FF                 2937 	.db #0xFF
   0C0E FF                 2938 	.db #0xFF
   0C0F FF                 2939 	.db #0xFF
   0C10 FF                 2940 	.db #0xFF
   0C11 FF                 2941 	.db #0xFF
   0C12 FF                 2942 	.db #0xFF
   0C13 00                 2943 	.db #0x00
   0C14 00                 2944 	.db #0x00
   0C15 00                 2945 	.db #0x00
   0C16 00                 2946 	.db #0x00
   0C17 00                 2947 	.db #0x00
   0C18 00                 2948 	.db #0x00
   0C19 00                 2949 	.db #0x00
   0C1A 00                 2950 	.db #0x00
   0C1B 00                 2951 	.db #0x00
   0C1C 00                 2952 	.db #0x00
   0C1D 00                 2953 	.db #0x00
   0C1E 00                 2954 	.db #0x00
   0C1F 00                 2955 	.db #0x00
   0C20 00                 2956 	.db #0x00
   0C21 00                 2957 	.db #0x00
   0C22 00                 2958 	.db #0x00
   0C23 00                 2959 	.db #0x00
   0C24 00                 2960 	.db #0x00
   0C25 00                 2961 	.db #0x00
   0C26 00                 2962 	.db #0x00
   0C27 00                 2963 	.db #0x00
   0C28 00                 2964 	.db #0x00
   0C29 80                 2965 	.db #0x80
   0C2A 80                 2966 	.db #0x80
   0C2B E0                 2967 	.db #0xE0
   0C2C E0                 2968 	.db #0xE0
   0C2D F0                 2969 	.db #0xF0
   0C2E F0                 2970 	.db #0xF0
   0C2F F8                 2971 	.db #0xF8
   0C30 F8                 2972 	.db #0xF8
   0C31 FC                 2973 	.db #0xFC
   0C32 FC                 2974 	.db #0xFC
   0C33 FF                 2975 	.db #0xFF
   0C34 FF                 2976 	.db #0xFF
   0C35 FF                 2977 	.db #0xFF
   0C36 FF                 2978 	.db #0xFF
   0C37 FF                 2979 	.db #0xFF
   0C38 FF                 2980 	.db #0xFF
   0C39 FF                 2981 	.db #0xFF
   0C3A FF                 2982 	.db #0xFF
   0C3B FF                 2983 	.db #0xFF
   0C3C FF                 2984 	.db #0xFF
   0C3D FF                 2985 	.db #0xFF
   0C3E FF                 2986 	.db #0xFF
   0C3F FF                 2987 	.db #0xFF
   0C40 FF                 2988 	.db #0xFF
   0C41 FF                 2989 	.db #0xFF
   0C42 FF                 2990 	.db #0xFF
   0C43 FF                 2991 	.db #0xFF
   0C44 FF                 2992 	.db #0xFF
   0C45 FF                 2993 	.db #0xFF
   0C46 FF                 2994 	.db #0xFF
   0C47 FF                 2995 	.db #0xFF
   0C48 FF                 2996 	.db #0xFF
   0C49 F9                 2997 	.db #0xF9
   0C4A F9                 2998 	.db #0xF9
   0C4B F8                 2999 	.db #0xF8
   0C4C F8                 3000 	.db #0xF8
   0C4D F8                 3001 	.db #0xF8
   0C4E F8                 3002 	.db #0xF8
   0C4F F8                 3003 	.db #0xF8
   0C50 F8                 3004 	.db #0xF8
   0C51 F8                 3005 	.db #0xF8
   0C52 F8                 3006 	.db #0xF8
   0C53 FC                 3007 	.db #0xFC
   0C54 FC                 3008 	.db #0xFC
   0C55 FE                 3009 	.db #0xFE
   0C56 FE                 3010 	.db #0xFE
   0C57 FE                 3011 	.db #0xFE
   0C58 FE                 3012 	.db #0xFE
   0C59 FE                 3013 	.db #0xFE
   0C5A FE                 3014 	.db #0xFE
   0C5B FE                 3015 	.db #0xFE
   0C5C FE                 3016 	.db #0xFE
   0C5D FF                 3017 	.db #0xFF
   0C5E FF                 3018 	.db #0xFF
   0C5F FF                 3019 	.db #0xFF
   0C60 FF                 3020 	.db #0xFF
   0C61 FF                 3021 	.db #0xFF
   0C62 FF                 3022 	.db #0xFF
   0C63 FF                 3023 	.db #0xFF
   0C64 FF                 3024 	.db #0xFF
   0C65 FF                 3025 	.db #0xFF
   0C66 FF                 3026 	.db #0xFF
   0C67 FF                 3027 	.db #0xFF
   0C68 FF                 3028 	.db #0xFF
   0C69 FF                 3029 	.db #0xFF
   0C6A FF                 3030 	.db #0xFF
   0C6B 3F                 3031 	.db #0x3F
   0C6C 3F                 3032 	.db #0x3F
   0C6D 0F                 3033 	.db #0x0F
   0C6E 0F                 3034 	.db #0x0F
   0C6F 00                 3035 	.db #0x00
   0C70 00                 3036 	.db #0x00
   0C71 00                 3037 	.db #0x00
   0C72 00                 3038 	.db #0x00
   0C73 00                 3039 	.db #0x00
   0C74 00                 3040 	.db #0x00
   0C75 00                 3041 	.db #0x00
   0C76 00                 3042 	.db #0x00
   0C77 00                 3043 	.db #0x00
   0C78 00                 3044 	.db #0x00
   0C79 00                 3045 	.db #0x00
   0C7A 00                 3046 	.db #0x00
   0C7B 00                 3047 	.db #0x00
   0C7C 00                 3048 	.db #0x00
   0C7D 00                 3049 	.db #0x00
   0C7E 00                 3050 	.db #0x00
   0C7F 00                 3051 	.db #0x00
   0C80 00                 3052 	.db #0x00
   0C81 00                 3053 	.db #0x00
   0C82 00                 3054 	.db #0x00
   0C83 00                 3055 	.db #0x00
   0C84 00                 3056 	.db #0x00
   0C85 00                 3057 	.db #0x00
   0C86 00                 3058 	.db #0x00
   0C87 00                 3059 	.db #0x00
   0C88 00                 3060 	.db #0x00
   0C89 00                 3061 	.db #0x00
   0C8A 00                 3062 	.db #0x00
   0C8B 00                 3063 	.db #0x00
   0C8C 00                 3064 	.db #0x00
   0C8D 00                 3065 	.db #0x00
   0C8E 00                 3066 	.db #0x00
   0C8F 00                 3067 	.db #0x00
   0C90 00                 3068 	.db #0x00
   0C91 00                 3069 	.db #0x00
   0C92 00                 3070 	.db #0x00
   0C93 00                 3071 	.db #0x00
   0C94 00                 3072 	.db #0x00
   0C95 00                 3073 	.db #0x00
   0C96 00                 3074 	.db #0x00
   0C97 00                 3075 	.db #0x00
   0C98 00                 3076 	.db #0x00
   0C99 00                 3077 	.db #0x00
   0C9A 00                 3078 	.db #0x00
   0C9B 00                 3079 	.db #0x00
   0C9C 00                 3080 	.db #0x00
   0C9D 00                 3081 	.db #0x00
   0C9E 00                 3082 	.db #0x00
   0C9F 00                 3083 	.db #0x00
   0CA0 00                 3084 	.db #0x00
   0CA1 00                 3085 	.db #0x00
   0CA2 00                 3086 	.db #0x00
   0CA3 00                 3087 	.db #0x00
   0CA4 00                 3088 	.db #0x00
   0CA5 00                 3089 	.db #0x00
   0CA6 00                 3090 	.db #0x00
   0CA7 00                 3091 	.db #0x00
   0CA8 00                 3092 	.db #0x00
   0CA9 00                 3093 	.db #0x00
   0CAA 00                 3094 	.db #0x00
   0CAB 00                 3095 	.db #0x00
   0CAC 00                 3096 	.db #0x00
   0CAD 00                 3097 	.db #0x00
   0CAE 00                 3098 	.db #0x00
   0CAF 00                 3099 	.db #0x00
   0CB0 00                 3100 	.db #0x00
   0CB1 00                 3101 	.db #0x00
   0CB2 00                 3102 	.db #0x00
   0CB3 00                 3103 	.db #0x00
   0CB4 00                 3104 	.db #0x00
   0CB5 00                 3105 	.db #0x00
   0CB6 00                 3106 	.db #0x00
   0CB7 00                 3107 	.db #0x00
   0CB8 00                 3108 	.db #0x00
   0CB9 00                 3109 	.db #0x00
   0CBA 00                 3110 	.db #0x00
   0CBB 00                 3111 	.db #0x00
   0CBC 00                 3112 	.db #0x00
   0CBD 00                 3113 	.db #0x00
   0CBE 00                 3114 	.db #0x00
   0CBF 00                 3115 	.db #0x00
   0CC0 00                 3116 	.db #0x00
   0CC1 00                 3117 	.db #0x00
   0CC2 00                 3118 	.db #0x00
   0CC3 00                 3119 	.db #0x00
   0CC4 00                 3120 	.db #0x00
   0CC5 00                 3121 	.db #0x00
   0CC6 00                 3122 	.db #0x00
   0CC7 00                 3123 	.db #0x00
   0CC8 00                 3124 	.db #0x00
   0CC9 00                 3125 	.db #0x00
   0CCA 00                 3126 	.db #0x00
   0CCB 00                 3127 	.db #0x00
   0CCC 00                 3128 	.db #0x00
   0CCD 00                 3129 	.db #0x00
   0CCE 00                 3130 	.db #0x00
   0CCF 00                 3131 	.db #0x00
   0CD0 00                 3132 	.db #0x00
   0CD1 00                 3133 	.db #0x00
   0CD2 00                 3134 	.db #0x00
   0CD3 00                 3135 	.db #0x00
   0CD4 00                 3136 	.db #0x00
   0CD5 00                 3137 	.db #0x00
   0CD6 00                 3138 	.db #0x00
   0CD7 00                 3139 	.db #0x00
   0CD8 00                 3140 	.db #0x00
   0CD9 00                 3141 	.db #0x00
   0CDA 00                 3142 	.db #0x00
   0CDB 00                 3143 	.db #0x00
   0CDC 00                 3144 	.db #0x00
   0CDD 00                 3145 	.db #0x00
   0CDE 00                 3146 	.db #0x00
   0CDF 00                 3147 	.db #0x00
   0CE0 00                 3148 	.db #0x00
   0CE1 00                 3149 	.db #0x00
   0CE2 00                 3150 	.db #0x00
   0CE3 00                 3151 	.db #0x00
   0CE4 00                 3152 	.db #0x00
   0CE5 00                 3153 	.db #0x00
   0CE6 00                 3154 	.db #0x00
   0CE7 00                 3155 	.db #0x00
   0CE8 00                 3156 	.db #0x00
   0CE9 00                 3157 	.db #0x00
   0CEA 00                 3158 	.db #0x00
   0CEB 00                 3159 	.db #0x00
   0CEC 00                 3160 	.db #0x00
   0CED 00                 3161 	.db #0x00
   0CEE 00                 3162 	.db #0x00
   0CEF 00                 3163 	.db #0x00
   0CF0 00                 3164 	.db #0x00
   0CF1 00                 3165 	.db #0x00
   0CF2 00                 3166 	.db #0x00
   0CF3 00                 3167 	.db #0x00
   0CF4 00                 3168 	.db #0x00
   0CF5 00                 3169 	.db #0x00
   0CF6 00                 3170 	.db #0x00
   0CF7 00                 3171 	.db #0x00
   0CF8 00                 3172 	.db #0x00
   0CF9 00                 3173 	.db #0x00
   0CFA 00                 3174 	.db #0x00
   0CFB 00                 3175 	.db #0x00
   0CFC 00                 3176 	.db #0x00
   0CFD 00                 3177 	.db #0x00
   0CFE 00                 3178 	.db #0x00
   0CFF 00                 3179 	.db #0x00
   0D00 00                 3180 	.db #0x00
   0D01 00                 3181 	.db #0x00
   0D02 00                 3182 	.db #0x00
   0D03 00                 3183 	.db #0x00
   0D04 00                 3184 	.db #0x00
   0D05 00                 3185 	.db #0x00
   0D06 00                 3186 	.db #0x00
   0D07 00                 3187 	.db #0x00
   0D08 00                 3188 	.db #0x00
   0D09 00                 3189 	.db #0x00
   0D0A 00                 3190 	.db #0x00
   0D0B 00                 3191 	.db #0x00
   0D0C 00                 3192 	.db #0x00
   0D0D 00                 3193 	.db #0x00
   0D0E 00                 3194 	.db #0x00
   0D0F 00                 3195 	.db #0x00
   0D10 00                 3196 	.db #0x00
   0D11 00                 3197 	.db #0x00
   0D12 00                 3198 	.db #0x00
   0D13 00                 3199 	.db #0x00
   0D14 00                 3200 	.db #0x00
   0D15 00                 3201 	.db #0x00
   0D16 00                 3202 	.db #0x00
   0D17 00                 3203 	.db #0x00
   0D18 00                 3204 	.db #0x00
   0D19 00                 3205 	.db #0x00
   0D1A 00                 3206 	.db #0x00
   0D1B 00                 3207 	.db #0x00
   0D1C 00                 3208 	.db #0x00
   0D1D 00                 3209 	.db #0x00
   0D1E 00                 3210 	.db #0x00
   0D1F 00                 3211 	.db #0x00
   0D20 00                 3212 	.db #0x00
   0D21 00                 3213 	.db #0x00
   0D22 00                 3214 	.db #0x00
   0D23 00                 3215 	.db #0x00
   0D24 00                 3216 	.db #0x00
   0D25 00                 3217 	.db #0x00
   0D26 00                 3218 	.db #0x00
   0D27 00                 3219 	.db #0x00
   0D28 00                 3220 	.db #0x00
   0D29 00                 3221 	.db #0x00
   0D2A 00                 3222 	.db #0x00
   0D2B 00                 3223 	.db #0x00
   0D2C 00                 3224 	.db #0x00
   0D2D 00                 3225 	.db #0x00
   0D2E 00                 3226 	.db #0x00
   0D2F 00                 3227 	.db #0x00
   0D30 00                 3228 	.db #0x00
   0D31 00                 3229 	.db #0x00
   0D32 00                 3230 	.db #0x00
   0D33 00                 3231 	.db #0x00
   0D34 00                 3232 	.db #0x00
   0D35 00                 3233 	.db #0x00
   0D36 00                 3234 	.db #0x00
   0D37 00                 3235 	.db #0x00
   0D38 00                 3236 	.db #0x00
   0D39 00                 3237 	.db #0x00
   0D3A 00                 3238 	.db #0x00
   0D3B 00                 3239 	.db #0x00
   0D3C 00                 3240 	.db #0x00
   0D3D 00                 3241 	.db #0x00
   0D3E 00                 3242 	.db #0x00
   0D3F 00                 3243 	.db #0x00
   0D40 00                 3244 	.db #0x00
   0D41 00                 3245 	.db #0x00
   0D42 00                 3246 	.db #0x00
   0D43 00                 3247 	.db #0x00
   0D44 00                 3248 	.db #0x00
   0D45 00                 3249 	.db #0x00
   0D46 00                 3250 	.db #0x00
   0D47 00                 3251 	.db #0x00
   0D48 00                 3252 	.db #0x00
   0D49 00                 3253 	.db #0x00
   0D4A 00                 3254 	.db #0x00
   0D4B 00                 3255 	.db #0x00
   0D4C 00                 3256 	.db #0x00
   0D4D 00                 3257 	.db #0x00
   0D4E 00                 3258 	.db #0x00
   0D4F 00                 3259 	.db #0x00
   0D50 00                 3260 	.db #0x00
   0D51 00                 3261 	.db #0x00
   0D52 00                 3262 	.db #0x00
   0D53 00                 3263 	.db #0x00
   0D54 00                 3264 	.db #0x00
   0D55 00                 3265 	.db #0x00
   0D56 00                 3266 	.db #0x00
   0D57 00                 3267 	.db #0x00
   0D58 00                 3268 	.db #0x00
   0D59 00                 3269 	.db #0x00
   0D5A 00                 3270 	.db #0x00
   0D5B 00                 3271 	.db #0x00
   0D5C 00                 3272 	.db #0x00
   0D5D 00                 3273 	.db #0x00
   0D5E 00                 3274 	.db #0x00
   0D5F 00                 3275 	.db #0x00
   0D60 00                 3276 	.db #0x00
   0D61 00                 3277 	.db #0x00
   0D62 00                 3278 	.db #0x00
   0D63 00                 3279 	.db #0x00
   0D64 00                 3280 	.db #0x00
   0D65 00                 3281 	.db #0x00
   0D66 00                 3282 	.db #0x00
   0D67 00                 3283 	.db #0x00
   0D68 00                 3284 	.db #0x00
   0D69 00                 3285 	.db #0x00
   0D6A 00                 3286 	.db #0x00
   0D6B 00                 3287 	.db #0x00
   0D6C 00                 3288 	.db #0x00
   0D6D 00                 3289 	.db #0x00
   0D6E 00                 3290 	.db #0x00
   0D6F 00                 3291 	.db #0x00
   0D70 00                 3292 	.db #0x00
   0D71 00                 3293 	.db #0x00
   0D72 00                 3294 	.db #0x00
   0D73 3F                 3295 	.db #0x3F
   0D74 3F                 3296 	.db #0x3F
   0D75 3E                 3297 	.db #0x3E
   0D76 3E                 3298 	.db #0x3E
   0D77 3C                 3299 	.db #0x3C
   0D78 3C                 3300 	.db #0x3C
   0D79 38                 3301 	.db #0x38
   0D7A 38                 3302 	.db #0x38
   0D7B 00                 3303 	.db #0x00
   0D7C 00                 3304 	.db #0x00
   0D7D 00                 3305 	.db #0x00
   0D7E 00                 3306 	.db #0x00
   0D7F 01                 3307 	.db #0x01
   0D80 01                 3308 	.db #0x01
   0D81 01                 3309 	.db #0x01
   0D82 01                 3310 	.db #0x01
   0D83 01                 3311 	.db #0x01
   0D84 01                 3312 	.db #0x01
   0D85 01                 3313 	.db #0x01
   0D86 01                 3314 	.db #0x01
   0D87 01                 3315 	.db #0x01
   0D88 01                 3316 	.db #0x01
   0D89 03                 3317 	.db #0x03
   0D8A 03                 3318 	.db #0x03
   0D8B 03                 3319 	.db #0x03
   0D8C 03                 3320 	.db #0x03
   0D8D 03                 3321 	.db #0x03
   0D8E 03                 3322 	.db #0x03
   0D8F 03                 3323 	.db #0x03
   0D90 03                 3324 	.db #0x03
   0D91 07                 3325 	.db #0x07
   0D92 07                 3326 	.db #0x07
   0D93 FF                 3327 	.db #0xFF
   0D94 FF                 3328 	.db #0xFF
   0D95 FF                 3329 	.db #0xFF
   0D96 FF                 3330 	.db #0xFF
   0D97 F8                 3331 	.db #0xF8
   0D98 F8                 3332 	.db #0xF8
   0D99 F0                 3333 	.db #0xF0
   0D9A F0                 3334 	.db #0xF0
   0D9B F0                 3335 	.db #0xF0
   0D9C F0                 3336 	.db #0xF0
   0D9D F0                 3337 	.db #0xF0
   0D9E F0                 3338 	.db #0xF0
   0D9F E0                 3339 	.db #0xE0
   0DA0 E0                 3340 	.db #0xE0
   0DA1 E0                 3341 	.db #0xE0
   0DA2 E0                 3342 	.db #0xE0
   0DA3 E0                 3343 	.db #0xE0
   0DA4 E0                 3344 	.db #0xE0
   0DA5 E0                 3345 	.db #0xE0
   0DA6 E0                 3346 	.db #0xE0
   0DA7 E0                 3347 	.db #0xE0
   0DA8 E0                 3348 	.db #0xE0
   0DA9 C0                 3349 	.db #0xC0
   0DAA C0                 3350 	.db #0xC0
   0DAB C0                 3351 	.db #0xC0
   0DAC C0                 3352 	.db #0xC0
   0DAD C1                 3353 	.db #0xC1
   0DAE C1                 3354 	.db #0xC1
   0DAF C1                 3355 	.db #0xC1
   0DB0 C1                 3356 	.db #0xC1
   0DB1 81                 3357 	.db #0x81
   0DB2 81                 3358 	.db #0x81
   0DB3 07                 3359 	.db #0x07
   0DB4 07                 3360 	.db #0x07
   0DB5 07                 3361 	.db #0x07
   0DB6 07                 3362 	.db #0x07
   0DB7 07                 3363 	.db #0x07
   0DB8 07                 3364 	.db #0x07
   0DB9 0F                 3365 	.db #0x0F
   0DBA 0F                 3366 	.db #0x0F
   0DBB 0F                 3367 	.db #0x0F
   0DBC 0F                 3368 	.db #0x0F
   0DBD 0F                 3369 	.db #0x0F
   0DBE 0F                 3370 	.db #0x0F
   0DBF 0F                 3371 	.db #0x0F
   0DC0 0F                 3372 	.db #0x0F
   0DC1 0F                 3373 	.db #0x0F
   0DC2 0F                 3374 	.db #0x0F
   0DC3 1E                 3375 	.db #0x1E
   0DC4 1E                 3376 	.db #0x1E
   0DC5 1E                 3377 	.db #0x1E
   0DC6 1E                 3378 	.db #0x1E
   0DC7 1E                 3379 	.db #0x1E
   0DC8 1E                 3380 	.db #0x1E
   0DC9 1E                 3381 	.db #0x1E
   0DCA 1E                 3382 	.db #0x1E
   0DCB 3C                 3383 	.db #0x3C
   0DCC 3C                 3384 	.db #0x3C
   0DCD 3F                 3385 	.db #0x3F
   0DCE 3F                 3386 	.db #0x3F
   0DCF 0F                 3387 	.db #0x0F
   0DD0 0F                 3388 	.db #0x0F
   0DD1 0F                 3389 	.db #0x0F
   0DD2 0F                 3390 	.db #0x0F
   0DD3 83                 3391 	.db #0x83
   0DD4 83                 3392 	.db #0x83
   0DD5 83                 3393 	.db #0x83
   0DD6 83                 3394 	.db #0x83
   0DD7 83                 3395 	.db #0x83
   0DD8 83                 3396 	.db #0x83
   0DD9 07                 3397 	.db #0x07
   0DDA 07                 3398 	.db #0x07
   0DDB 07                 3399 	.db #0x07
   0DDC 07                 3400 	.db #0x07
   0DDD 07                 3401 	.db #0x07
   0DDE 07                 3402 	.db #0x07
   0DDF 07                 3403 	.db #0x07
   0DE0 07                 3404 	.db #0x07
   0DE1 0F                 3405 	.db #0x0F
   0DE2 0F                 3406 	.db #0x0F
   0DE3 0F                 3407 	.db #0x0F
   0DE4 0F                 3408 	.db #0x0F
   0DE5 00                 3409 	.db #0x00
   0DE6 00                 3410 	.db #0x00
   0DE7 00                 3411 	.db #0x00
   0DE8 00                 3412 	.db #0x00
   0DE9 00                 3413 	.db #0x00
   0DEA 00                 3414 	.db #0x00
   0DEB 00                 3415 	.db #0x00
   0DEC 00                 3416 	.db #0x00
   0DED C0                 3417 	.db #0xC0
   0DEE C0                 3418 	.db #0xC0
   0DEF FF                 3419 	.db #0xFF
   0DF0 FF                 3420 	.db #0xFF
   0DF1 FF                 3421 	.db #0xFF
   0DF2 FF                 3422 	.db #0xFF
   0DF3 FF                 3423 	.db #0xFF
   0DF4 FF                 3424 	.db #0xFF
   0DF5 1F                 3425 	.db #0x1F
   0DF6 1F                 3426 	.db #0x1F
   0DF7 1F                 3427 	.db #0x1F
   0DF8 1F                 3428 	.db #0x1F
   0DF9 3E                 3429 	.db #0x3E
   0DFA 3E                 3430 	.db #0x3E
   0DFB 3C                 3431 	.db #0x3C
   0DFC 3C                 3432 	.db #0x3C
   0DFD 3C                 3433 	.db #0x3C
   0DFE 3C                 3434 	.db #0x3C
   0DFF 7C                 3435 	.db #0x7C
   0E00 7C                 3436 	.db #0x7C
   0E01 78                 3437 	.db #0x78
   0E02 78                 3438 	.db #0x78
   0E03 78                 3439 	.db #0x78
   0E04 78                 3440 	.db #0x78
   0E05 F8                 3441 	.db #0xF8
   0E06 F8                 3442 	.db #0xF8
   0E07 F0                 3443 	.db #0xF0
   0E08 F0                 3444 	.db #0xF0
   0E09 F0                 3445 	.db #0xF0
   0E0A F0                 3446 	.db #0xF0
   0E0B F0                 3447 	.db #0xF0
   0E0C F0                 3448 	.db #0xF0
   0E0D F0                 3449 	.db #0xF0
   0E0E F0                 3450 	.db #0xF0
   0E0F E0                 3451 	.db #0xE0
   0E10 E0                 3452 	.db #0xE0
   0E11 E0                 3453 	.db #0xE0
   0E12 E0                 3454 	.db #0xE0
   0E13 E0                 3455 	.db #0xE0
   0E14 E0                 3456 	.db #0xE0
   0E15 80                 3457 	.db #0x80
   0E16 80                 3458 	.db #0x80
   0E17 80                 3459 	.db #0x80
   0E18 80                 3460 	.db #0x80
   0E19 00                 3461 	.db #0x00
   0E1A 00                 3462 	.db #0x00
   0E1B 00                 3463 	.db #0x00
   0E1C 00                 3464 	.db #0x00
   0E1D 00                 3465 	.db #0x00
   0E1E 00                 3466 	.db #0x00
   0E1F 01                 3467 	.db #0x01
   0E20 01                 3468 	.db #0x01
   0E21 01                 3469 	.db #0x01
   0E22 01                 3470 	.db #0x01
   0E23 03                 3471 	.db #0x03
   0E24 03                 3472 	.db #0x03
   0E25 03                 3473 	.db #0x03
   0E26 03                 3474 	.db #0x03
   0E27 07                 3475 	.db #0x07
   0E28 07                 3476 	.db #0x07
   0E29 0F                 3477 	.db #0x0F
   0E2A 0F                 3478 	.db #0x0F
   0E2B 0F                 3479 	.db #0x0F
   0E2C 0F                 3480 	.db #0x0F
   0E2D 1F                 3481 	.db #0x1F
   0E2E 1F                 3482 	.db #0x1F
   0E2F 1E                 3483 	.db #0x1E
   0E30 1E                 3484 	.db #0x1E
   0E31 3E                 3485 	.db #0x3E
   0E32 3E                 3486 	.db #0x3E
   0E33 E0                 3487 	.db #0xE0
   0E34 E0                 3488 	.db #0xE0
   0E35 C0                 3489 	.db #0xC0
   0E36 C0                 3490 	.db #0xC0
   0E37 C0                 3491 	.db #0xC0
   0E38 C0                 3492 	.db #0xC0
   0E39 C0                 3493 	.db #0xC0
   0E3A C0                 3494 	.db #0xC0
   0E3B 80                 3495 	.db #0x80
   0E3C 80                 3496 	.db #0x80
   0E3D 81                 3497 	.db #0x81
   0E3E 81                 3498 	.db #0x81
   0E3F F1                 3499 	.db #0xF1
   0E40 F1                 3500 	.db #0xF1
   0E41 FF                 3501 	.db #0xFF
   0E42 FF                 3502 	.db #0xFF
   0E43 FF                 3503 	.db #0xFF
   0E44 FF                 3504 	.db #0xFF
   0E45 3F                 3505 	.db #0x3F
   0E46 3F                 3506 	.db #0x3F
   0E47 07                 3507 	.db #0x07
   0E48 07                 3508 	.db #0x07
   0E49 00                 3509 	.db #0x00
   0E4A 00                 3510 	.db #0x00
   0E4B 00                 3511 	.db #0x00
   0E4C 00                 3512 	.db #0x00
   0E4D 00                 3513 	.db #0x00
   0E4E 00                 3514 	.db #0x00
   0E4F 00                 3515 	.db #0x00
   0E50 00                 3516 	.db #0x00
   0E51 FC                 3517 	.db #0xFC
   0E52 FC                 3518 	.db #0xFC
   0E53 3C                 3519 	.db #0x3C
   0E54 3C                 3520 	.db #0x3C
   0E55 7C                 3521 	.db #0x7C
   0E56 7C                 3522 	.db #0x7C
   0E57 78                 3523 	.db #0x78
   0E58 78                 3524 	.db #0x78
   0E59 F8                 3525 	.db #0xF8
   0E5A F8                 3526 	.db #0xF8
   0E5B F0                 3527 	.db #0xF0
   0E5C F0                 3528 	.db #0xF0
   0E5D F0                 3529 	.db #0xF0
   0E5E F0                 3530 	.db #0xF0
   0E5F E0                 3531 	.db #0xE0
   0E60 E0                 3532 	.db #0xE0
   0E61 E0                 3533 	.db #0xE0
   0E62 E0                 3534 	.db #0xE0
   0E63 E0                 3535 	.db #0xE0
   0E64 E0                 3536 	.db #0xE0
   0E65 FE                 3537 	.db #0xFE
   0E66 FE                 3538 	.db #0xFE
   0E67 FE                 3539 	.db #0xFE
   0E68 FE                 3540 	.db #0xFE
   0E69 7C                 3541 	.db #0x7C
   0E6A 7C                 3542 	.db #0x7C
   0E6B 1E                 3543 	.db #0x1E
   0E6C 1E                 3544 	.db #0x1E
   0E6D 3E                 3545 	.db #0x3E
   0E6E 3E                 3546 	.db #0x3E
   0E6F 3C                 3547 	.db #0x3C
   0E70 3C                 3548 	.db #0x3C
   0E71 3F                 3549 	.db #0x3F
   0E72 3F                 3550 	.db #0x3F
   0E73 3F                 3551 	.db #0x3F
   0E74 3F                 3552 	.db #0x3F
   0E75 3C                 3553 	.db #0x3C
   0E76 3C                 3554 	.db #0x3C
   0E77 7C                 3555 	.db #0x7C
   0E78 7C                 3556 	.db #0x7C
   0E79 78                 3557 	.db #0x78
   0E7A 78                 3558 	.db #0x78
   0E7B F8                 3559 	.db #0xF8
   0E7C F8                 3560 	.db #0xF8
   0E7D F0                 3561 	.db #0xF0
   0E7E F0                 3562 	.db #0xF0
   0E7F F0                 3563 	.db #0xF0
   0E80 F0                 3564 	.db #0xF0
   0E81 E0                 3565 	.db #0xE0
   0E82 E0                 3566 	.db #0xE0
   0E83 E0                 3567 	.db #0xE0
   0E84 E0                 3568 	.db #0xE0
   0E85 C0                 3569 	.db #0xC0
   0E86 C0                 3570 	.db #0xC0
   0E87 C0                 3571 	.db #0xC0
   0E88 C0                 3572 	.db #0xC0
   0E89 80                 3573 	.db #0x80
   0E8A 80                 3574 	.db #0x80
   0E8B 87                 3575 	.db #0x87
   0E8C 87                 3576 	.db #0x87
   0E8D 0F                 3577 	.db #0x0F
   0E8E 0F                 3578 	.db #0x0F
   0E8F 0F                 3579 	.db #0x0F
   0E90 0F                 3580 	.db #0x0F
   0E91 03                 3581 	.db #0x03
   0E92 03                 3582 	.db #0x03
   0E93 FF                 3583 	.db #0xFF
   0E94 FF                 3584 	.db #0xFF
   0E95 07                 3585 	.db #0x07
   0E96 07                 3586 	.db #0x07
   0E97 07                 3587 	.db #0x07
   0E98 07                 3588 	.db #0x07
   0E99 03                 3589 	.db #0x03
   0E9A 03                 3590 	.db #0x03
   0E9B 03                 3591 	.db #0x03
   0E9C 03                 3592 	.db #0x03
   0E9D 03                 3593 	.db #0x03
   0E9E 03                 3594 	.db #0x03
   0E9F 03                 3595 	.db #0x03
   0EA0 03                 3596 	.db #0x03
   0EA1 03                 3597 	.db #0x03
   0EA2 03                 3598 	.db #0x03
   0EA3 03                 3599 	.db #0x03
   0EA4 03                 3600 	.db #0x03
   0EA5 01                 3601 	.db #0x01
   0EA6 01                 3602 	.db #0x01
   0EA7 01                 3603 	.db #0x01
   0EA8 01                 3604 	.db #0x01
   0EA9 01                 3605 	.db #0x01
   0EAA 01                 3606 	.db #0x01
   0EAB F1                 3607 	.db #0xF1
   0EAC F1                 3608 	.db #0xF1
   0EAD F1                 3609 	.db #0xF1
   0EAE F1                 3610 	.db #0xF1
   0EAF E0                 3611 	.db #0xE0
   0EB0 E0                 3612 	.db #0xE0
   0EB1 C0                 3613 	.db #0xC0
   0EB2 C0                 3614 	.db #0xC0
   0EB3 03                 3615 	.db #0x03
   0EB4 03                 3616 	.db #0x03
   0EB5 00                 3617 	.db #0x00
   0EB6 00                 3618 	.db #0x00
   0EB7 00                 3619 	.db #0x00
   0EB8 00                 3620 	.db #0x00
   0EB9 00                 3621 	.db #0x00
   0EBA 00                 3622 	.db #0x00
   0EBB 07                 3623 	.db #0x07
   0EBC 07                 3624 	.db #0x07
   0EBD 07                 3625 	.db #0x07
   0EBE 07                 3626 	.db #0x07
   0EBF 3F                 3627 	.db #0x3F
   0EC0 3F                 3628 	.db #0x3F
   0EC1 3C                 3629 	.db #0x3C
   0EC2 3C                 3630 	.db #0x3C
   0EC3 38                 3631 	.db #0x38
   0EC4 38                 3632 	.db #0x38
   0EC5 78                 3633 	.db #0x78
   0EC6 78                 3634 	.db #0x78
   0EC7 78                 3635 	.db #0x78
   0EC8 78                 3636 	.db #0x78
   0EC9 78                 3637 	.db #0x78
   0ECA 78                 3638 	.db #0x78
   0ECB 78                 3639 	.db #0x78
   0ECC 78                 3640 	.db #0x78
   0ECD 78                 3641 	.db #0x78
   0ECE 78                 3642 	.db #0x78
   0ECF F8                 3643 	.db #0xF8
   0ED0 F8                 3644 	.db #0xF8
   0ED1 F0                 3645 	.db #0xF0
   0ED2 F0                 3646 	.db #0xF0
   0ED3 C0                 3647 	.db #0xC0
   0ED4 C0                 3648 	.db #0xC0
   0ED5 00                 3649 	.db #0x00
   0ED6 00                 3650 	.db #0x00
   0ED7 00                 3651 	.db #0x00
   0ED8 00                 3652 	.db #0x00
   0ED9 00                 3653 	.db #0x00
   0EDA 00                 3654 	.db #0x00
   0EDB E0                 3655 	.db #0xE0
   0EDC E0                 3656 	.db #0xE0
   0EDD E0                 3657 	.db #0xE0
   0EDE E0                 3658 	.db #0xE0
   0EDF F0                 3659 	.db #0xF0
   0EE0 F0                 3660 	.db #0xF0
   0EE1 F0                 3661 	.db #0xF0
   0EE2 F0                 3662 	.db #0xF0
   0EE3 F0                 3663 	.db #0xF0
   0EE4 F0                 3664 	.db #0xF0
   0EE5 F0                 3665 	.db #0xF0
   0EE6 F0                 3666 	.db #0xF0
   0EE7 F0                 3667 	.db #0xF0
   0EE8 F0                 3668 	.db #0xF0
   0EE9 F0                 3669 	.db #0xF0
   0EEA F0                 3670 	.db #0xF0
   0EEB F0                 3671 	.db #0xF0
   0EEC F0                 3672 	.db #0xF0
   0EED F0                 3673 	.db #0xF0
   0EEE F0                 3674 	.db #0xF0
   0EEF F0                 3675 	.db #0xF0
   0EF0 F0                 3676 	.db #0xF0
   0EF1 FF                 3677 	.db #0xFF
   0EF2 FF                 3678 	.db #0xFF
   0EF3 EE                 3679 	.db #0xEE
   0EF4 EE                 3680 	.db #0xEE
   0EF5 F6                 3681 	.db #0xF6
   0EF6 F6                 3682 	.db #0xF6
   0EF7 E0                 3683 	.db #0xE0
   0EF8 E0                 3684 	.db #0xE0
   0EF9 E0                 3685 	.db #0xE0
   0EFA E0                 3686 	.db #0xE0
   0EFB E0                 3687 	.db #0xE0
   0EFC E0                 3688 	.db #0xE0
   0EFD E0                 3689 	.db #0xE0
   0EFE E0                 3690 	.db #0xE0
   0EFF E0                 3691 	.db #0xE0
   0F00 E0                 3692 	.db #0xE0
   0F01 E0                 3693 	.db #0xE0
   0F02 E0                 3694 	.db #0xE0
   0F03 E0                 3695 	.db #0xE0
   0F04 E0                 3696 	.db #0xE0
   0F05 E0                 3697 	.db #0xE0
   0F06 E0                 3698 	.db #0xE0
   0F07 E0                 3699 	.db #0xE0
   0F08 E0                 3700 	.db #0xE0
   0F09 E0                 3701 	.db #0xE0
   0F0A E0                 3702 	.db #0xE0
   0F0B E0                 3703 	.db #0xE0
   0F0C E0                 3704 	.db #0xE0
   0F0D F0                 3705 	.db #0xF0
   0F0E F0                 3706 	.db #0xF0
   0F0F F0                 3707 	.db #0xF0
   0F10 F0                 3708 	.db #0xF0
   0F11 F0                 3709 	.db #0xF0
   0F12 F0                 3710 	.db #0xF0
   0F13 FF                 3711 	.db #0xFF
   0F14 FF                 3712 	.db #0xFF
   0F15 FF                 3713 	.db #0xFF
   0F16 FF                 3714 	.db #0xFF
   0F17 7F                 3715 	.db #0x7F
   0F18 7F                 3716 	.db #0x7F
   0F19 7F                 3717 	.db #0x7F
   0F1A 7F                 3718 	.db #0x7F
   0F1B 00                 3719 	.db #0x00
   0F1C 00                 3720 	.db #0x00
   0F1D 7F                 3721 	.db #0x7F
   0F1E 7F                 3722 	.db #0x7F
   0F1F 7F                 3723 	.db #0x7F
   0F20 7F                 3724 	.db #0x7F
   0F21 7F                 3725 	.db #0x7F
   0F22 7F                 3726 	.db #0x7F
   0F23 7F                 3727 	.db #0x7F
   0F24 7F                 3728 	.db #0x7F
   0F25 FF                 3729 	.db #0xFF
   0F26 FF                 3730 	.db #0xFF
   0F27 FF                 3731 	.db #0xFF
   0F28 FF                 3732 	.db #0xFF
   0F29 FF                 3733 	.db #0xFF
   0F2A FF                 3734 	.db #0xFF
   0F2B FF                 3735 	.db #0xFF
   0F2C FF                 3736 	.db #0xFF
   0F2D FF                 3737 	.db #0xFF
   0F2E FF                 3738 	.db #0xFF
   0F2F FF                 3739 	.db #0xFF
   0F30 FF                 3740 	.db #0xFF
   0F31 FF                 3741 	.db #0xFF
   0F32 FF                 3742 	.db #0xFF
   0F33 F0                 3743 	.db #0xF0
   0F34 F0                 3744 	.db #0xF0
   0F35 F0                 3745 	.db #0xF0
   0F36 F0                 3746 	.db #0xF0
   0F37 F0                 3747 	.db #0xF0
   0F38 F0                 3748 	.db #0xF0
   0F39 F0                 3749 	.db #0xF0
   0F3A F0                 3750 	.db #0xF0
   0F3B 78                 3751 	.db #0x78
   0F3C 78                 3752 	.db #0x78
   0F3D 78                 3753 	.db #0x78
   0F3E 78                 3754 	.db #0x78
   0F3F 78                 3755 	.db #0x78
   0F40 78                 3756 	.db #0x78
   0F41 78                 3757 	.db #0x78
   0F42 78                 3758 	.db #0x78
   0F43 78                 3759 	.db #0x78
   0F44 78                 3760 	.db #0x78
   0F45 3C                 3761 	.db #0x3C
   0F46 3C                 3762 	.db #0x3C
   0F47 3C                 3763 	.db #0x3C
   0F48 3C                 3764 	.db #0x3C
   0F49 3C                 3765 	.db #0x3C
   0F4A 3C                 3766 	.db #0x3C
   0F4B 3C                 3767 	.db #0x3C
   0F4C 3C                 3768 	.db #0x3C
   0F4D 3C                 3769 	.db #0x3C
   0F4E 3C                 3770 	.db #0x3C
   0F4F 3C                 3771 	.db #0x3C
   0F50 3C                 3772 	.db #0x3C
   0F51 FF                 3773 	.db #0xFF
   0F52 FF                 3774 	.db #0xFF
   0F53 FF                 3775 	.db #0xFF
   0F54 FF                 3776 	.db #0xFF
   0F55 FF                 3777 	.db #0xFF
   0F56 FF                 3778 	.db #0xFF
   0F57 3F                 3779 	.db #0x3F
   0F58 3F                 3780 	.db #0x3F
   0F59 3F                 3781 	.db #0x3F
   0F5A 3F                 3782 	.db #0x3F
   0F5B 00                 3783 	.db #0x00
   0F5C 00                 3784 	.db #0x00
   0F5D 00                 3785 	.db #0x00
   0F5E 00                 3786 	.db #0x00
   0F5F 00                 3787 	.db #0x00
   0F60 00                 3788 	.db #0x00
   0F61 00                 3789 	.db #0x00
   0F62 00                 3790 	.db #0x00
   0F63 00                 3791 	.db #0x00
   0F64 00                 3792 	.db #0x00
   0F65 00                 3793 	.db #0x00
   0F66 00                 3794 	.db #0x00
   0F67 00                 3795 	.db #0x00
   0F68 00                 3796 	.db #0x00
   0F69 00                 3797 	.db #0x00
   0F6A 00                 3798 	.db #0x00
   0F6B 00                 3799 	.db #0x00
   0F6C 00                 3800 	.db #0x00
   0F6D 00                 3801 	.db #0x00
   0F6E 00                 3802 	.db #0x00
   0F6F 00                 3803 	.db #0x00
   0F70 00                 3804 	.db #0x00
   0F71 FF                 3805 	.db #0xFF
   0F72 FF                 3806 	.db #0xFF
   0F73 DD                 3807 	.db #0xDD
   0F74 DD                 3808 	.db #0xDD
   0F75 DD                 3809 	.db #0xDD
   0F76 DD                 3810 	.db #0xDD
   0F77 FB                 3811 	.db #0xFB
   0F78 FB                 3812 	.db #0xFB
   0F79 F7                 3813 	.db #0xF7
   0F7A F7                 3814 	.db #0xF7
   0F7B 0F                 3815 	.db #0x0F
   0F7C 0F                 3816 	.db #0x0F
   0F7D 81                 3817 	.db #0x81
   0F7E 81                 3818 	.db #0x81
   0F7F 81                 3819 	.db #0x81
   0F80 81                 3820 	.db #0x81
   0F81 81                 3821 	.db #0x81
   0F82 81                 3822 	.db #0x81
   0F83 81                 3823 	.db #0x81
   0F84 81                 3824 	.db #0x81
   0F85 81                 3825 	.db #0x81
   0F86 81                 3826 	.db #0x81
   0F87 81                 3827 	.db #0x81
   0F88 81                 3828 	.db #0x81
   0F89 81                 3829 	.db #0x81
   0F8A 81                 3830 	.db #0x81
   0F8B 81                 3831 	.db #0x81
   0F8C 81                 3832 	.db #0x81
   0F8D C0                 3833 	.db #0xC0
   0F8E C0                 3834 	.db #0xC0
   0F8F C0                 3835 	.db #0xC0
   0F90 C0                 3836 	.db #0xC0
   0F91 C0                 3837 	.db #0xC0
   0F92 C0                 3838 	.db #0xC0
   0F93 FF                 3839 	.db #0xFF
   0F94 FF                 3840 	.db #0xFF
   0F95 FF                 3841 	.db #0xFF
   0F96 FF                 3842 	.db #0xFF
   0F97 FF                 3843 	.db #0xFF
   0F98 FF                 3844 	.db #0xFF
   0F99 FE                 3845 	.db #0xFE
   0F9A FE                 3846 	.db #0xFE
   0F9B FE                 3847 	.db #0xFE
   0F9C FE                 3848 	.db #0xFE
   0F9D FC                 3849 	.db #0xFC
   0F9E FC                 3850 	.db #0xFC
   0F9F F8                 3851 	.db #0xF8
   0FA0 F8                 3852 	.db #0xF8
   0FA1 E0                 3853 	.db #0xE0
   0FA2 E0                 3854 	.db #0xE0
   0FA3 E0                 3855 	.db #0xE0
   0FA4 E0                 3856 	.db #0xE0
   0FA5 E0                 3857 	.db #0xE0
   0FA6 E0                 3858 	.db #0xE0
   0FA7 E0                 3859 	.db #0xE0
   0FA8 E0                 3860 	.db #0xE0
   0FA9 E0                 3861 	.db #0xE0
   0FAA E0                 3862 	.db #0xE0
   0FAB E0                 3863 	.db #0xE0
   0FAC E0                 3864 	.db #0xE0
   0FAD F0                 3865 	.db #0xF0
   0FAE F0                 3866 	.db #0xF0
   0FAF F0                 3867 	.db #0xF0
   0FB0 F0                 3868 	.db #0xF0
   0FB1 F7                 3869 	.db #0xF7
   0FB2 F7                 3870 	.db #0xF7
   0FB3 C0                 3871 	.db #0xC0
   0FB4 C0                 3872 	.db #0xC0
   0FB5 C0                 3873 	.db #0xC0
   0FB6 C0                 3874 	.db #0xC0
   0FB7 C0                 3875 	.db #0xC0
   0FB8 C0                 3876 	.db #0xC0
   0FB9 C0                 3877 	.db #0xC0
   0FBA C0                 3878 	.db #0xC0
   0FBB 00                 3879 	.db #0x00
   0FBC 00                 3880 	.db #0x00
   0FBD 00                 3881 	.db #0x00
   0FBE 00                 3882 	.db #0x00
   0FBF 01                 3883 	.db #0x01
   0FC0 01                 3884 	.db #0x01
   0FC1 03                 3885 	.db #0x03
   0FC2 03                 3886 	.db #0x03
   0FC3 07                 3887 	.db #0x07
   0FC4 07                 3888 	.db #0x07
   0FC5 0F                 3889 	.db #0x0F
   0FC6 0F                 3890 	.db #0x0F
   0FC7 0F                 3891 	.db #0x0F
   0FC8 0F                 3892 	.db #0x0F
   0FC9 1E                 3893 	.db #0x1E
   0FCA 1E                 3894 	.db #0x1E
   0FCB 3E                 3895 	.db #0x3E
   0FCC 3E                 3896 	.db #0x3E
   0FCD 7C                 3897 	.db #0x7C
   0FCE 7C                 3898 	.db #0x7C
   0FCF FE                 3899 	.db #0xFE
   0FD0 FE                 3900 	.db #0xFE
   0FD1 FF                 3901 	.db #0xFF
   0FD2 FF                 3902 	.db #0xFF
   0FD3 F7                 3903 	.db #0xF7
   0FD4 F7                 3904 	.db #0xF7
   0FD5 FF                 3905 	.db #0xFF
   0FD6 FF                 3906 	.db #0xFF
   0FD7 F7                 3907 	.db #0xF7
   0FD8 F7                 3908 	.db #0xF7
   0FD9 F1                 3909 	.db #0xF1
   0FDA F1                 3910 	.db #0xF1
   0FDB F0                 3911 	.db #0xF0
   0FDC F0                 3912 	.db #0xF0
   0FDD F0                 3913 	.db #0xF0
   0FDE F0                 3914 	.db #0xF0
   0FDF FC                 3915 	.db #0xFC
   0FE0 FC                 3916 	.db #0xFC
   0FE1 FE                 3917 	.db #0xFE
   0FE2 FE                 3918 	.db #0xFE
   0FE3 FF                 3919 	.db #0xFF
   0FE4 FF                 3920 	.db #0xFF
   0FE5 9F                 3921 	.db #0x9F
   0FE6 9F                 3922 	.db #0x9F
   0FE7 0F                 3923 	.db #0x0F
   0FE8 0F                 3924 	.db #0x0F
   0FE9 03                 3925 	.db #0x03
   0FEA 03                 3926 	.db #0x03
   0FEB 00                 3927 	.db #0x00
   0FEC 00                 3928 	.db #0x00
   0FED 00                 3929 	.db #0x00
   0FEE 00                 3930 	.db #0x00
   0FEF 00                 3931 	.db #0x00
   0FF0 00                 3932 	.db #0x00
   0FF1 80                 3933 	.db #0x80
   0FF2 80                 3934 	.db #0x80
   0FF3 FC                 3935 	.db #0xFC
   0FF4 FC                 3936 	.db #0xFC
   0FF5 FE                 3937 	.db #0xFE
   0FF6 FE                 3938 	.db #0xFE
   0FF7 3F                 3939 	.db #0x3F
   0FF8 3F                 3940 	.db #0x3F
   0FF9 0F                 3941 	.db #0x0F
   0FFA 0F                 3942 	.db #0x0F
   0FFB 07                 3943 	.db #0x07
   0FFC 07                 3944 	.db #0x07
   0FFD 03                 3945 	.db #0x03
   0FFE 03                 3946 	.db #0x03
   0FFF 01                 3947 	.db #0x01
   1000 01                 3948 	.db #0x01
   1001 00                 3949 	.db #0x00
   1002 00                 3950 	.db #0x00
   1003 00                 3951 	.db #0x00
   1004 00                 3952 	.db #0x00
   1005 00                 3953 	.db #0x00
   1006 00                 3954 	.db #0x00
   1007 00                 3955 	.db #0x00
   1008 00                 3956 	.db #0x00
   1009 00                 3957 	.db #0x00
   100A 00                 3958 	.db #0x00
   100B 03                 3959 	.db #0x03
   100C 03                 3960 	.db #0x03
   100D 03                 3961 	.db #0x03
   100E 03                 3962 	.db #0x03
   100F 07                 3963 	.db #0x07
   1010 07                 3964 	.db #0x07
   1011 03                 3965 	.db #0x03
   1012 03                 3966 	.db #0x03
   1013 00                 3967 	.db #0x00
   1014 00                 3968 	.db #0x00
   1015 00                 3969 	.db #0x00
   1016 00                 3970 	.db #0x00
   1017 9F                 3971 	.db #0x9F
   1018 9F                 3972 	.db #0x9F
   1019 FF                 3973 	.db #0xFF
   101A FF                 3974 	.db #0xFF
   101B FF                 3975 	.db #0xFF
   101C FF                 3976 	.db #0xFF
   101D F8                 3977 	.db #0xF8
   101E F8                 3978 	.db #0xF8
   101F FE                 3979 	.db #0xFE
   1020 FE                 3980 	.db #0xFE
   1021 7F                 3981 	.db #0x7F
   1022 7F                 3982 	.db #0x7F
   1023 3F                 3983 	.db #0x3F
   1024 3F                 3984 	.db #0x3F
   1025 0F                 3985 	.db #0x0F
   1026 0F                 3986 	.db #0x0F
   1027 07                 3987 	.db #0x07
   1028 07                 3988 	.db #0x07
   1029 03                 3989 	.db #0x03
   102A 03                 3990 	.db #0x03
   102B FF                 3991 	.db #0xFF
   102C FF                 3992 	.db #0xFF
   102D FF                 3993 	.db #0xFF
   102E FF                 3994 	.db #0xFF
   102F FF                 3995 	.db #0xFF
   1030 FF                 3996 	.db #0xFF
   1031 F8                 3997 	.db #0xF8
   1032 F8                 3998 	.db #0xF8
   1033 C0                 3999 	.db #0xC0
   1034 C0                 4000 	.db #0xC0
   1035 F0                 4001 	.db #0xF0
   1036 F0                 4002 	.db #0xF0
   1037 F8                 4003 	.db #0xF8
   1038 F8                 4004 	.db #0xF8
   1039 FC                 4005 	.db #0xFC
   103A FC                 4006 	.db #0xFC
   103B 7F                 4007 	.db #0x7F
   103C 7F                 4008 	.db #0x7F
   103D 3E                 4009 	.db #0x3E
   103E 3E                 4010 	.db #0x3E
   103F 1E                 4011 	.db #0x1E
   1040 1E                 4012 	.db #0x1E
   1041 1F                 4013 	.db #0x1F
   1042 1F                 4014 	.db #0x1F
   1043 BE                 4015 	.db #0xBE
   1044 BE                 4016 	.db #0xBE
   1045 FC                 4017 	.db #0xFC
   1046 FC                 4018 	.db #0xFC
   1047 F8                 4019 	.db #0xF8
   1048 F8                 4020 	.db #0xF8
   1049 F0                 4021 	.db #0xF0
   104A F0                 4022 	.db #0xF0
   104B 00                 4023 	.db #0x00
   104C 00                 4024 	.db #0x00
   104D 00                 4025 	.db #0x00
   104E 00                 4026 	.db #0x00
   104F 00                 4027 	.db #0x00
   1050 00                 4028 	.db #0x00
   1051 00                 4029 	.db #0x00
   1052 00                 4030 	.db #0x00
   1053 FC                 4031 	.db #0xFC
   1054 FC                 4032 	.db #0xFC
   1055 7F                 4033 	.db #0x7F
   1056 7F                 4034 	.db #0x7F
   1057 3F                 4035 	.db #0x3F
   1058 3F                 4036 	.db #0x3F
   1059 1F                 4037 	.db #0x1F
   105A 1F                 4038 	.db #0x1F
   105B 07                 4039 	.db #0x07
   105C 07                 4040 	.db #0x07
   105D 03                 4041 	.db #0x03
   105E 03                 4042 	.db #0x03
   105F 03                 4043 	.db #0x03
   1060 03                 4044 	.db #0x03
   1061 03                 4045 	.db #0x03
   1062 03                 4046 	.db #0x03
   1063 07                 4047 	.db #0x07
   1064 07                 4048 	.db #0x07
   1065 07                 4049 	.db #0x07
   1066 07                 4050 	.db #0x07
   1067 07                 4051 	.db #0x07
   1068 07                 4052 	.db #0x07
   1069 07                 4053 	.db #0x07
   106A 07                 4054 	.db #0x07
   106B 07                 4055 	.db #0x07
   106C 07                 4056 	.db #0x07
   106D 07                 4057 	.db #0x07
   106E 07                 4058 	.db #0x07
   106F 0F                 4059 	.db #0x0F
   1070 0F                 4060 	.db #0x0F
   1071 0F                 4061 	.db #0x0F
   1072 0F                 4062 	.db #0x0F
   1073 07                 4063 	.db #0x07
   1074 07                 4064 	.db #0x07
   1075 01                 4065 	.db #0x01
   1076 01                 4066 	.db #0x01
   1077 FF                 4067 	.db #0xFF
   1078 FF                 4068 	.db #0xFF
   1079 FF                 4069 	.db #0xFF
   107A FF                 4070 	.db #0xFF
   107B FF                 4071 	.db #0xFF
   107C FF                 4072 	.db #0xFF
   107D 00                 4073 	.db #0x00
   107E 00                 4074 	.db #0x00
   107F 00                 4075 	.db #0x00
   1080 00                 4076 	.db #0x00
   1081 00                 4077 	.db #0x00
   1082 00                 4078 	.db #0x00
   1083 80                 4079 	.db #0x80
   1084 80                 4080 	.db #0x80
   1085 E0                 4081 	.db #0xE0
   1086 E0                 4082 	.db #0xE0
   1087 F0                 4083 	.db #0xF0
   1088 F0                 4084 	.db #0xF0
   1089 E0                 4085 	.db #0xE0
   108A E0                 4086 	.db #0xE0
   108B F0                 4087 	.db #0xF0
   108C F0                 4088 	.db #0xF0
   108D F0                 4089 	.db #0xF0
   108E F0                 4090 	.db #0xF0
   108F F0                 4091 	.db #0xF0
   1090 F0                 4092 	.db #0xF0
   1091 F0                 4093 	.db #0xF0
   1092 F0                 4094 	.db #0xF0
   1093 E0                 4095 	.db #0xE0
   1094 E0                 4096 	.db #0xE0
   1095 E0                 4097 	.db #0xE0
   1096 E0                 4098 	.db #0xE0
   1097 C0                 4099 	.db #0xC0
   1098 C0                 4100 	.db #0xC0
   1099 FF                 4101 	.db #0xFF
   109A FF                 4102 	.db #0xFF
   109B FF                 4103 	.db #0xFF
   109C FF                 4104 	.db #0xFF
   109D 7F                 4105 	.db #0x7F
   109E 7F                 4106 	.db #0x7F
   109F 00                 4107 	.db #0x00
   10A0 00                 4108 	.db #0x00
   10A1 00                 4109 	.db #0x00
   10A2 00                 4110 	.db #0x00
   10A3 00                 4111 	.db #0x00
   10A4 00                 4112 	.db #0x00
   10A5 00                 4113 	.db #0x00
   10A6 00                 4114 	.db #0x00
   10A7 00                 4115 	.db #0x00
   10A8 00                 4116 	.db #0x00
   10A9 00                 4117 	.db #0x00
   10AA 00                 4118 	.db #0x00
   10AB 00                 4119 	.db #0x00
   10AC 00                 4120 	.db #0x00
   10AD 07                 4121 	.db #0x07
   10AE 07                 4122 	.db #0x07
   10AF 07                 4123 	.db #0x07
   10B0 07                 4124 	.db #0x07
   10B1 3F                 4125 	.db #0x3F
   10B2 3F                 4126 	.db #0x3F
   10B3 F0                 4127 	.db #0xF0
   10B4 F0                 4128 	.db #0xF0
   10B5 F0                 4129 	.db #0xF0
   10B6 F0                 4130 	.db #0xF0
   10B7 E0                 4131 	.db #0xE0
   10B8 E0                 4132 	.db #0xE0
   10B9 E0                 4133 	.db #0xE0
   10BA E0                 4134 	.db #0xE0
   10BB E0                 4135 	.db #0xE0
   10BC E0                 4136 	.db #0xE0
   10BD C0                 4137 	.db #0xC0
   10BE C0                 4138 	.db #0xC0
   10BF C0                 4139 	.db #0xC0
   10C0 C0                 4140 	.db #0xC0
   10C1 C0                 4141 	.db #0xC0
   10C2 C0                 4142 	.db #0xC0
   10C3 80                 4143 	.db #0x80
   10C4 80                 4144 	.db #0x80
   10C5 80                 4145 	.db #0x80
   10C6 80                 4146 	.db #0x80
   10C7 80                 4147 	.db #0x80
   10C8 80                 4148 	.db #0x80
   10C9 80                 4149 	.db #0x80
   10CA 80                 4150 	.db #0x80
   10CB 80                 4151 	.db #0x80
   10CC 80                 4152 	.db #0x80
   10CD 80                 4153 	.db #0x80
   10CE 80                 4154 	.db #0x80
   10CF 00                 4155 	.db #0x00
   10D0 00                 4156 	.db #0x00
   10D1 00                 4157 	.db #0x00
   10D2 00                 4158 	.db #0x00
   10D3 3C                 4159 	.db #0x3C
   10D4 3C                 4160 	.db #0x3C
   10D5 3C                 4161 	.db #0x3C
   10D6 3C                 4162 	.db #0x3C
   10D7 3C                 4163 	.db #0x3C
   10D8 3C                 4164 	.db #0x3C
   10D9 3C                 4165 	.db #0x3C
   10DA 3C                 4166 	.db #0x3C
   10DB 3C                 4167 	.db #0x3C
   10DC 3C                 4168 	.db #0x3C
   10DD 3C                 4169 	.db #0x3C
   10DE 3C                 4170 	.db #0x3C
   10DF 3C                 4171 	.db #0x3C
   10E0 3C                 4172 	.db #0x3C
   10E1 3C                 4173 	.db #0x3C
   10E2 3C                 4174 	.db #0x3C
   10E3 3C                 4175 	.db #0x3C
   10E4 3C                 4176 	.db #0x3C
   10E5 3C                 4177 	.db #0x3C
   10E6 3C                 4178 	.db #0x3C
   10E7 3C                 4179 	.db #0x3C
   10E8 3C                 4180 	.db #0x3C
   10E9 3C                 4181 	.db #0x3C
   10EA 3C                 4182 	.db #0x3C
   10EB 3C                 4183 	.db #0x3C
   10EC 3C                 4184 	.db #0x3C
   10ED 3C                 4185 	.db #0x3C
   10EE 3C                 4186 	.db #0x3C
   10EF 3C                 4187 	.db #0x3C
   10F0 3C                 4188 	.db #0x3C
   10F1 3C                 4189 	.db #0x3C
   10F2 3C                 4190 	.db #0x3C
   10F3 F8                 4191 	.db #0xF8
   10F4 F8                 4192 	.db #0xF8
   10F5 78                 4193 	.db #0x78
   10F6 78                 4194 	.db #0x78
   10F7 00                 4195 	.db #0x00
   10F8 00                 4196 	.db #0x00
   10F9 FF                 4197 	.db #0xFF
   10FA FF                 4198 	.db #0xFF
   10FB FF                 4199 	.db #0xFF
   10FC FF                 4200 	.db #0xFF
   10FD FF                 4201 	.db #0xFF
   10FE FF                 4202 	.db #0xFF
   10FF 03                 4203 	.db #0x03
   1100 03                 4204 	.db #0x03
   1101 03                 4205 	.db #0x03
   1102 03                 4206 	.db #0x03
   1103 03                 4207 	.db #0x03
   1104 03                 4208 	.db #0x03
   1105 03                 4209 	.db #0x03
   1106 03                 4210 	.db #0x03
   1107 03                 4211 	.db #0x03
   1108 03                 4212 	.db #0x03
   1109 07                 4213 	.db #0x07
   110A 07                 4214 	.db #0x07
   110B 07                 4215 	.db #0x07
   110C 07                 4216 	.db #0x07
   110D FF                 4217 	.db #0xFF
   110E FF                 4218 	.db #0xFF
   110F FF                 4219 	.db #0xFF
   1110 FF                 4220 	.db #0xFF
   1111 FF                 4221 	.db #0xFF
   1112 FF                 4222 	.db #0xFF
   1113 00                 4223 	.db #0x00
   1114 00                 4224 	.db #0x00
   1115 00                 4225 	.db #0x00
   1116 00                 4226 	.db #0x00
   1117 00                 4227 	.db #0x00
   1118 00                 4228 	.db #0x00
   1119 80                 4229 	.db #0x80
   111A 80                 4230 	.db #0x80
   111B 80                 4231 	.db #0x80
   111C 80                 4232 	.db #0x80
   111D 80                 4233 	.db #0x80
   111E 80                 4234 	.db #0x80
   111F C0                 4235 	.db #0xC0
   1120 C0                 4236 	.db #0xC0
   1121 C0                 4237 	.db #0xC0
   1122 C0                 4238 	.db #0xC0
   1123 C0                 4239 	.db #0xC0
   1124 C0                 4240 	.db #0xC0
   1125 C0                 4241 	.db #0xC0
   1126 C0                 4242 	.db #0xC0
   1127 C0                 4243 	.db #0xC0
   1128 C0                 4244 	.db #0xC0
   1129 80                 4245 	.db #0x80
   112A 80                 4246 	.db #0x80
   112B 80                 4247 	.db #0x80
   112C 80                 4248 	.db #0x80
   112D 80                 4249 	.db #0x80
   112E 80                 4250 	.db #0x80
   112F 80                 4251 	.db #0x80
   1130 80                 4252 	.db #0x80
   1131 80                 4253 	.db #0x80
   1132 80                 4254 	.db #0x80
   1133 00                 4255 	.db #0x00
   1134 00                 4256 	.db #0x00
   1135 00                 4257 	.db #0x00
   1136 00                 4258 	.db #0x00
   1137 00                 4259 	.db #0x00
   1138 00                 4260 	.db #0x00
   1139 00                 4261 	.db #0x00
   113A 00                 4262 	.db #0x00
   113B 00                 4263 	.db #0x00
   113C 00                 4264 	.db #0x00
   113D 00                 4265 	.db #0x00
   113E 00                 4266 	.db #0x00
   113F 00                 4267 	.db #0x00
   1140 00                 4268 	.db #0x00
   1141 00                 4269 	.db #0x00
   1142 00                 4270 	.db #0x00
   1143 00                 4271 	.db #0x00
   1144 00                 4272 	.db #0x00
   1145 00                 4273 	.db #0x00
   1146 00                 4274 	.db #0x00
   1147 00                 4275 	.db #0x00
   1148 00                 4276 	.db #0x00
   1149 00                 4277 	.db #0x00
   114A 00                 4278 	.db #0x00
   114B 00                 4279 	.db #0x00
   114C 00                 4280 	.db #0x00
   114D 00                 4281 	.db #0x00
   114E 00                 4282 	.db #0x00
   114F 00                 4283 	.db #0x00
   1150 00                 4284 	.db #0x00
   1151 00                 4285 	.db #0x00
   1152 00                 4286 	.db #0x00
   1153 00                 4287 	.db #0x00
   1154 00                 4288 	.db #0x00
   1155 00                 4289 	.db #0x00
   1156 00                 4290 	.db #0x00
   1157 00                 4291 	.db #0x00
   1158 00                 4292 	.db #0x00
   1159 00                 4293 	.db #0x00
   115A 00                 4294 	.db #0x00
   115B 00                 4295 	.db #0x00
   115C 00                 4296 	.db #0x00
   115D 00                 4297 	.db #0x00
   115E 00                 4298 	.db #0x00
   115F 00                 4299 	.db #0x00
   1160 00                 4300 	.db #0x00
   1161 00                 4301 	.db #0x00
   1162 00                 4302 	.db #0x00
   1163 00                 4303 	.db #0x00
   1164 00                 4304 	.db #0x00
   1165 00                 4305 	.db #0x00
   1166 00                 4306 	.db #0x00
   1167 00                 4307 	.db #0x00
   1168 00                 4308 	.db #0x00
   1169 00                 4309 	.db #0x00
   116A 00                 4310 	.db #0x00
   116B 00                 4311 	.db #0x00
   116C 00                 4312 	.db #0x00
   116D 00                 4313 	.db #0x00
   116E 00                 4314 	.db #0x00
   116F 00                 4315 	.db #0x00
   1170 00                 4316 	.db #0x00
   1171 00                 4317 	.db #0x00
   1172 00                 4318 	.db #0x00
   1173 00                 4319 	.db #0x00
   1174 00                 4320 	.db #0x00
   1175 00                 4321 	.db #0x00
   1176 00                 4322 	.db #0x00
   1177 00                 4323 	.db #0x00
   1178 00                 4324 	.db #0x00
   1179 00                 4325 	.db #0x00
   117A 00                 4326 	.db #0x00
   117B 00                 4327 	.db #0x00
   117C 00                 4328 	.db #0x00
   117D 00                 4329 	.db #0x00
   117E 00                 4330 	.db #0x00
   117F 00                 4331 	.db #0x00
   1180 00                 4332 	.db #0x00
   1181 00                 4333 	.db #0x00
   1182 00                 4334 	.db #0x00
   1183 00                 4335 	.db #0x00
   1184 00                 4336 	.db #0x00
   1185 00                 4337 	.db #0x00
   1186 00                 4338 	.db #0x00
   1187 00                 4339 	.db #0x00
   1188 00                 4340 	.db #0x00
   1189 00                 4341 	.db #0x00
   118A 00                 4342 	.db #0x00
   118B 00                 4343 	.db #0x00
   118C 00                 4344 	.db #0x00
   118D 00                 4345 	.db #0x00
   118E 00                 4346 	.db #0x00
   118F 00                 4347 	.db #0x00
   1190 00                 4348 	.db #0x00
   1191 00                 4349 	.db #0x00
   1192 00                 4350 	.db #0x00
   1193 00                 4351 	.db #0x00
   1194 00                 4352 	.db #0x00
   1195 00                 4353 	.db #0x00
   1196 00                 4354 	.db #0x00
   1197 00                 4355 	.db #0x00
   1198 00                 4356 	.db #0x00
   1199 00                 4357 	.db #0x00
   119A 00                 4358 	.db #0x00
   119B 00                 4359 	.db #0x00
   119C 00                 4360 	.db #0x00
   119D 00                 4361 	.db #0x00
   119E 00                 4362 	.db #0x00
   119F 00                 4363 	.db #0x00
   11A0 00                 4364 	.db #0x00
   11A1 00                 4365 	.db #0x00
   11A2 00                 4366 	.db #0x00
   11A3 00                 4367 	.db #0x00
   11A4 00                 4368 	.db #0x00
   11A5 00                 4369 	.db #0x00
   11A6 00                 4370 	.db #0x00
   11A7 00                 4371 	.db #0x00
   11A8 00                 4372 	.db #0x00
   11A9 00                 4373 	.db #0x00
   11AA 00                 4374 	.db #0x00
   11AB 00                 4375 	.db #0x00
   11AC 00                 4376 	.db #0x00
   11AD 00                 4377 	.db #0x00
   11AE 00                 4378 	.db #0x00
   11AF 00                 4379 	.db #0x00
   11B0 00                 4380 	.db #0x00
   11B1 00                 4381 	.db #0x00
   11B2 00                 4382 	.db #0x00
   11B3 00                 4383 	.db #0x00
   11B4 00                 4384 	.db #0x00
   11B5 00                 4385 	.db #0x00
   11B6 00                 4386 	.db #0x00
   11B7 00                 4387 	.db #0x00
   11B8 00                 4388 	.db #0x00
   11B9 00                 4389 	.db #0x00
   11BA 00                 4390 	.db #0x00
   11BB 00                 4391 	.db #0x00
   11BC 00                 4392 	.db #0x00
   11BD 00                 4393 	.db #0x00
   11BE 00                 4394 	.db #0x00
   11BF 00                 4395 	.db #0x00
   11C0 00                 4396 	.db #0x00
   11C1 00                 4397 	.db #0x00
   11C2 00                 4398 	.db #0x00
   11C3 00                 4399 	.db #0x00
   11C4 00                 4400 	.db #0x00
   11C5 00                 4401 	.db #0x00
   11C6 00                 4402 	.db #0x00
   11C7 00                 4403 	.db #0x00
   11C8 00                 4404 	.db #0x00
   11C9 00                 4405 	.db #0x00
   11CA 00                 4406 	.db #0x00
   11CB 00                 4407 	.db #0x00
   11CC 00                 4408 	.db #0x00
   11CD 00                 4409 	.db #0x00
   11CE 00                 4410 	.db #0x00
   11CF 00                 4411 	.db #0x00
   11D0 00                 4412 	.db #0x00
   11D1 00                 4413 	.db #0x00
   11D2 00                 4414 	.db #0x00
   11D3 00                 4415 	.db #0x00
   11D4 00                 4416 	.db #0x00
   11D5 00                 4417 	.db #0x00
   11D6 00                 4418 	.db #0x00
   11D7 00                 4419 	.db #0x00
   11D8 00                 4420 	.db #0x00
   11D9 00                 4421 	.db #0x00
   11DA 00                 4422 	.db #0x00
   11DB 00                 4423 	.db #0x00
   11DC 00                 4424 	.db #0x00
   11DD 00                 4425 	.db #0x00
   11DE 00                 4426 	.db #0x00
   11DF 00                 4427 	.db #0x00
   11E0 00                 4428 	.db #0x00
   11E1 00                 4429 	.db #0x00
   11E2 00                 4430 	.db #0x00
   11E3 00                 4431 	.db #0x00
   11E4 00                 4432 	.db #0x00
   11E5 00                 4433 	.db #0x00
   11E6 00                 4434 	.db #0x00
   11E7 00                 4435 	.db #0x00
   11E8 00                 4436 	.db #0x00
   11E9 00                 4437 	.db #0x00
   11EA 00                 4438 	.db #0x00
   11EB 00                 4439 	.db #0x00
   11EC 00                 4440 	.db #0x00
   11ED 00                 4441 	.db #0x00
   11EE 00                 4442 	.db #0x00
   11EF 00                 4443 	.db #0x00
   11F0 00                 4444 	.db #0x00
   11F1 00                 4445 	.db #0x00
   11F2 00                 4446 	.db #0x00
   11F3 00                 4447 	.db #0x00
   11F4 00                 4448 	.db #0x00
   11F5 00                 4449 	.db #0x00
   11F6 00                 4450 	.db #0x00
   11F7 00                 4451 	.db #0x00
   11F8 00                 4452 	.db #0x00
   11F9 00                 4453 	.db #0x00
   11FA 00                 4454 	.db #0x00
   11FB 00                 4455 	.db #0x00
   11FC 00                 4456 	.db #0x00
   11FD 00                 4457 	.db #0x00
   11FE 00                 4458 	.db #0x00
   11FF 00                 4459 	.db #0x00
   1200 00                 4460 	.db #0x00
   1201 00                 4461 	.db #0x00
   1202 00                 4462 	.db #0x00
   1203 00                 4463 	.db #0x00
   1204 00                 4464 	.db #0x00
   1205 00                 4465 	.db #0x00
   1206 00                 4466 	.db #0x00
   1207 00                 4467 	.db #0x00
   1208 00                 4468 	.db #0x00
   1209 00                 4469 	.db #0x00
   120A 00                 4470 	.db #0x00
   120B 00                 4471 	.db #0x00
   120C 00                 4472 	.db #0x00
   120D 00                 4473 	.db #0x00
   120E 00                 4474 	.db #0x00
   120F 00                 4475 	.db #0x00
   1210 00                 4476 	.db #0x00
   1211 00                 4477 	.db #0x00
   1212 00                 4478 	.db #0x00
   1213 00                 4479 	.db #0x00
   1214 00                 4480 	.db #0x00
   1215 00                 4481 	.db #0x00
   1216 00                 4482 	.db #0x00
   1217 00                 4483 	.db #0x00
   1218 00                 4484 	.db #0x00
   1219 00                 4485 	.db #0x00
   121A 00                 4486 	.db #0x00
   121B 00                 4487 	.db #0x00
   121C 00                 4488 	.db #0x00
   121D 00                 4489 	.db #0x00
   121E 00                 4490 	.db #0x00
   121F 00                 4491 	.db #0x00
   1220 00                 4492 	.db #0x00
   1221 00                 4493 	.db #0x00
   1222 00                 4494 	.db #0x00
   1223 00                 4495 	.db #0x00
   1224 00                 4496 	.db #0x00
   1225 00                 4497 	.db #0x00
   1226 00                 4498 	.db #0x00
   1227 00                 4499 	.db #0x00
   1228 00                 4500 	.db #0x00
   1229 00                 4501 	.db #0x00
   122A 00                 4502 	.db #0x00
   122B 00                 4503 	.db #0x00
   122C 00                 4504 	.db #0x00
   122D 00                 4505 	.db #0x00
   122E 00                 4506 	.db #0x00
   122F 00                 4507 	.db #0x00
   1230 00                 4508 	.db #0x00
   1231 00                 4509 	.db #0x00
   1232 00                 4510 	.db #0x00
   1233 00                 4511 	.db #0x00
   1234 00                 4512 	.db #0x00
   1235 00                 4513 	.db #0x00
   1236 00                 4514 	.db #0x00
   1237 00                 4515 	.db #0x00
   1238 00                 4516 	.db #0x00
   1239 00                 4517 	.db #0x00
   123A 00                 4518 	.db #0x00
   123B 00                 4519 	.db #0x00
   123C 00                 4520 	.db #0x00
   123D 00                 4521 	.db #0x00
   123E 00                 4522 	.db #0x00
   123F 00                 4523 	.db #0x00
   1240 00                 4524 	.db #0x00
   1241 00                 4525 	.db #0x00
   1242 00                 4526 	.db #0x00
   1243 00                 4527 	.db #0x00
   1244 00                 4528 	.db #0x00
   1245 00                 4529 	.db #0x00
   1246 00                 4530 	.db #0x00
   1247 00                 4531 	.db #0x00
   1248 00                 4532 	.db #0x00
   1249 00                 4533 	.db #0x00
   124A 00                 4534 	.db #0x00
   124B 00                 4535 	.db #0x00
   124C 00                 4536 	.db #0x00
   124D 00                 4537 	.db #0x00
   124E 00                 4538 	.db #0x00
   124F 00                 4539 	.db #0x00
   1250 00                 4540 	.db #0x00
   1251 00                 4541 	.db #0x00
   1252 00                 4542 	.db #0x00
   1253 00                 4543 	.db #0x00
   1254 00                 4544 	.db #0x00
   1255 00                 4545 	.db #0x00
   1256 00                 4546 	.db #0x00
   1257 00                 4547 	.db #0x00
   1258 00                 4548 	.db #0x00
   1259 00                 4549 	.db #0x00
   125A 00                 4550 	.db #0x00
   125B 00                 4551 	.db #0x00
   125C 00                 4552 	.db #0x00
   125D 00                 4553 	.db #0x00
   125E 00                 4554 	.db #0x00
   125F 00                 4555 	.db #0x00
   1260 00                 4556 	.db #0x00
   1261 00                 4557 	.db #0x00
   1262 00                 4558 	.db #0x00
   1263 00                 4559 	.db #0x00
   1264 00                 4560 	.db #0x00
   1265 00                 4561 	.db #0x00
   1266 00                 4562 	.db #0x00
   1267 00                 4563 	.db #0x00
   1268 00                 4564 	.db #0x00
   1269 00                 4565 	.db #0x00
   126A 00                 4566 	.db #0x00
   126B 00                 4567 	.db #0x00
   126C 00                 4568 	.db #0x00
   126D 00                 4569 	.db #0x00
   126E 00                 4570 	.db #0x00
   126F 00                 4571 	.db #0x00
   1270 00                 4572 	.db #0x00
   1271 00                 4573 	.db #0x00
   1272 00                 4574 	.db #0x00
   1273 00                 4575 	.db #0x00
   1274 00                 4576 	.db #0x00
   1275 00                 4577 	.db #0x00
   1276 00                 4578 	.db #0x00
   1277 00                 4579 	.db #0x00
   1278 00                 4580 	.db #0x00
   1279 00                 4581 	.db #0x00
   127A 00                 4582 	.db #0x00
   127B 00                 4583 	.db #0x00
   127C 00                 4584 	.db #0x00
   127D 00                 4585 	.db #0x00
   127E 00                 4586 	.db #0x00
   127F 00                 4587 	.db #0x00
   1280 00                 4588 	.db #0x00
   1281 00                 4589 	.db #0x00
   1282 00                 4590 	.db #0x00
   1283 00                 4591 	.db #0x00
   1284 00                 4592 	.db #0x00
   1285 00                 4593 	.db #0x00
   1286 00                 4594 	.db #0x00
   1287 00                 4595 	.db #0x00
   1288 00                 4596 	.db #0x00
   1289 00                 4597 	.db #0x00
   128A 00                 4598 	.db #0x00
   128B 00                 4599 	.db #0x00
   128C 00                 4600 	.db #0x00
   128D 00                 4601 	.db #0x00
   128E 00                 4602 	.db #0x00
   128F 00                 4603 	.db #0x00
   1290 00                 4604 	.db #0x00
   1291 00                 4605 	.db #0x00
   1292 00                 4606 	.db #0x00
   1293 7F                 4607 	.db #0x7F
   1294 7F                 4608 	.db #0x7F
   1295 01                 4609 	.db #0x01
   1296 01                 4610 	.db #0x01
   1297 00                 4611 	.db #0x00
   1298 00                 4612 	.db #0x00
   1299 00                 4613 	.db #0x00
   129A 00                 4614 	.db #0x00
   129B 00                 4615 	.db #0x00
   129C 00                 4616 	.db #0x00
   129D 00                 4617 	.db #0x00
   129E 00                 4618 	.db #0x00
   129F 00                 4619 	.db #0x00
   12A0 00                 4620 	.db #0x00
   12A1 00                 4621 	.db #0x00
   12A2 00                 4622 	.db #0x00
   12A3 00                 4623 	.db #0x00
   12A4 00                 4624 	.db #0x00
   12A5 00                 4625 	.db #0x00
   12A6 00                 4626 	.db #0x00
   12A7 00                 4627 	.db #0x00
   12A8 00                 4628 	.db #0x00
   12A9 00                 4629 	.db #0x00
   12AA 00                 4630 	.db #0x00
   12AB 00                 4631 	.db #0x00
   12AC 00                 4632 	.db #0x00
   12AD 00                 4633 	.db #0x00
   12AE 00                 4634 	.db #0x00
   12AF 00                 4635 	.db #0x00
   12B0 00                 4636 	.db #0x00
   12B1 00                 4637 	.db #0x00
   12B2 00                 4638 	.db #0x00
   12B3 00                 4639 	.db #0x00
   12B4 00                 4640 	.db #0x00
   12B5 00                 4641 	.db #0x00
   12B6 00                 4642 	.db #0x00
   12B7 00                 4643 	.db #0x00
   12B8 00                 4644 	.db #0x00
   12B9 00                 4645 	.db #0x00
   12BA 00                 4646 	.db #0x00
   12BB 00                 4647 	.db #0x00
   12BC 00                 4648 	.db #0x00
   12BD 00                 4649 	.db #0x00
   12BE 00                 4650 	.db #0x00
   12BF 00                 4651 	.db #0x00
   12C0 00                 4652 	.db #0x00
   12C1 00                 4653 	.db #0x00
   12C2 00                 4654 	.db #0x00
   12C3 00                 4655 	.db #0x00
   12C4 00                 4656 	.db #0x00
   12C5 00                 4657 	.db #0x00
   12C6 00                 4658 	.db #0x00
   12C7 00                 4659 	.db #0x00
   12C8 00                 4660 	.db #0x00
   12C9 00                 4661 	.db #0x00
   12CA 00                 4662 	.db #0x00
   12CB 00                 4663 	.db #0x00
   12CC 00                 4664 	.db #0x00
   12CD 00                 4665 	.db #0x00
   12CE 00                 4666 	.db #0x00
   12CF 00                 4667 	.db #0x00
   12D0 00                 4668 	.db #0x00
   12D1 00                 4669 	.db #0x00
   12D2 00                 4670 	.db #0x00
   12D3 00                 4671 	.db #0x00
   12D4 00                 4672 	.db #0x00
   12D5 00                 4673 	.db #0x00
   12D6 00                 4674 	.db #0x00
   12D7 00                 4675 	.db #0x00
   12D8 00                 4676 	.db #0x00
   12D9 00                 4677 	.db #0x00
   12DA 00                 4678 	.db #0x00
   12DB 00                 4679 	.db #0x00
   12DC 00                 4680 	.db #0x00
   12DD 00                 4681 	.db #0x00
   12DE 00                 4682 	.db #0x00
   12DF 00                 4683 	.db #0x00
   12E0 00                 4684 	.db #0x00
   12E1 00                 4685 	.db #0x00
   12E2 00                 4686 	.db #0x00
   12E3 00                 4687 	.db #0x00
   12E4 00                 4688 	.db #0x00
   12E5 00                 4689 	.db #0x00
   12E6 00                 4690 	.db #0x00
   12E7 00                 4691 	.db #0x00
   12E8 00                 4692 	.db #0x00
   12E9 00                 4693 	.db #0x00
   12EA 00                 4694 	.db #0x00
   12EB 00                 4695 	.db #0x00
   12EC 00                 4696 	.db #0x00
   12ED 00                 4697 	.db #0x00
   12EE 00                 4698 	.db #0x00
   12EF 00                 4699 	.db #0x00
   12F0 00                 4700 	.db #0x00
   12F1 00                 4701 	.db #0x00
   12F2 00                 4702 	.db #0x00
   12F3 FF                 4703 	.db #0xFF
   12F4 FF                 4704 	.db #0xFF
   12F5 FF                 4705 	.db #0xFF
   12F6 FF                 4706 	.db #0xFF
   12F7 07                 4707 	.db #0x07
   12F8 07                 4708 	.db #0x07
   12F9 00                 4709 	.db #0x00
   12FA 00                 4710 	.db #0x00
   12FB 00                 4711 	.db #0x00
   12FC 00                 4712 	.db #0x00
   12FD 00                 4713 	.db #0x00
   12FE 00                 4714 	.db #0x00
   12FF 00                 4715 	.db #0x00
   1300 00                 4716 	.db #0x00
   1301 00                 4717 	.db #0x00
   1302 00                 4718 	.db #0x00
   1303 00                 4719 	.db #0x00
   1304 00                 4720 	.db #0x00
   1305 00                 4721 	.db #0x00
   1306 00                 4722 	.db #0x00
   1307 00                 4723 	.db #0x00
   1308 00                 4724 	.db #0x00
   1309 00                 4725 	.db #0x00
   130A 00                 4726 	.db #0x00
   130B 00                 4727 	.db #0x00
   130C 00                 4728 	.db #0x00
   130D 00                 4729 	.db #0x00
   130E 00                 4730 	.db #0x00
   130F 00                 4731 	.db #0x00
   1310 00                 4732 	.db #0x00
   1311 00                 4733 	.db #0x00
   1312 00                 4734 	.db #0x00
   1313 FF                 4735 	.db #0xFF
   1314 FF                 4736 	.db #0xFF
   1315 F8                 4737 	.db #0xF8
   1316 F8                 4738 	.db #0xF8
   1317 E0                 4739 	.db #0xE0
   1318 E0                 4740 	.db #0xE0
   1319 00                 4741 	.db #0x00
   131A 00                 4742 	.db #0x00
   131B 00                 4743 	.db #0x00
   131C 00                 4744 	.db #0x00
   131D 00                 4745 	.db #0x00
   131E 00                 4746 	.db #0x00
   131F 00                 4747 	.db #0x00
   1320 00                 4748 	.db #0x00
   1321 00                 4749 	.db #0x00
   1322 00                 4750 	.db #0x00
   1323 00                 4751 	.db #0x00
   1324 00                 4752 	.db #0x00
   1325 00                 4753 	.db #0x00
   1326 00                 4754 	.db #0x00
   1327 00                 4755 	.db #0x00
   1328 00                 4756 	.db #0x00
   1329 00                 4757 	.db #0x00
   132A 00                 4758 	.db #0x00
   132B 00                 4759 	.db #0x00
   132C 00                 4760 	.db #0x00
   132D 00                 4761 	.db #0x00
   132E 00                 4762 	.db #0x00
   132F 00                 4763 	.db #0x00
   1330 00                 4764 	.db #0x00
   1331 00                 4765 	.db #0x00
   1332 00                 4766 	.db #0x00
   1333 00                 4767 	.db #0x00
   1334 00                 4768 	.db #0x00
   1335 00                 4769 	.db #0x00
   1336 00                 4770 	.db #0x00
   1337 00                 4771 	.db #0x00
   1338 00                 4772 	.db #0x00
   1339 00                 4773 	.db #0x00
   133A 00                 4774 	.db #0x00
   133B 00                 4775 	.db #0x00
   133C 00                 4776 	.db #0x00
   133D 00                 4777 	.db #0x00
   133E 00                 4778 	.db #0x00
   133F 00                 4779 	.db #0x00
   1340 00                 4780 	.db #0x00
   1341 00                 4781 	.db #0x00
   1342 00                 4782 	.db #0x00
   1343 00                 4783 	.db #0x00
   1344 00                 4784 	.db #0x00
   1345 00                 4785 	.db #0x00
   1346 00                 4786 	.db #0x00
   1347 00                 4787 	.db #0x00
   1348 00                 4788 	.db #0x00
   1349 00                 4789 	.db #0x00
   134A 00                 4790 	.db #0x00
   134B 00                 4791 	.db #0x00
   134C 00                 4792 	.db #0x00
   134D 00                 4793 	.db #0x00
   134E 00                 4794 	.db #0x00
   134F 00                 4795 	.db #0x00
   1350 00                 4796 	.db #0x00
   1351 00                 4797 	.db #0x00
   1352 00                 4798 	.db #0x00
   1353 00                 4799 	.db #0x00
   1354 00                 4800 	.db #0x00
   1355 00                 4801 	.db #0x00
   1356 00                 4802 	.db #0x00
   1357 00                 4803 	.db #0x00
   1358 00                 4804 	.db #0x00
   1359 00                 4805 	.db #0x00
   135A 00                 4806 	.db #0x00
   135B 00                 4807 	.db #0x00
   135C 00                 4808 	.db #0x00
   135D 00                 4809 	.db #0x00
   135E 00                 4810 	.db #0x00
   135F 00                 4811 	.db #0x00
   1360 00                 4812 	.db #0x00
   1361 00                 4813 	.db #0x00
   1362 00                 4814 	.db #0x00
   1363 00                 4815 	.db #0x00
   1364 00                 4816 	.db #0x00
   1365 00                 4817 	.db #0x00
   1366 00                 4818 	.db #0x00
   1367 00                 4819 	.db #0x00
   1368 00                 4820 	.db #0x00
   1369 00                 4821 	.db #0x00
   136A 00                 4822 	.db #0x00
   136B 00                 4823 	.db #0x00
   136C 00                 4824 	.db #0x00
   136D 00                 4825 	.db #0x00
   136E 00                 4826 	.db #0x00
   136F 00                 4827 	.db #0x00
   1370 00                 4828 	.db #0x00
   1371 00                 4829 	.db #0x00
   1372 00                 4830 	.db #0x00
   1373 F0                 4831 	.db #0xF0
   1374 F0                 4832 	.db #0xF0
   1375 00                 4833 	.db #0x00
   1376 00                 4834 	.db #0x00
   1377 00                 4835 	.db #0x00
   1378 00                 4836 	.db #0x00
   1379 00                 4837 	.db #0x00
   137A 00                 4838 	.db #0x00
   137B 00                 4839 	.db #0x00
   137C 00                 4840 	.db #0x00
   137D 00                 4841 	.db #0x00
   137E 00                 4842 	.db #0x00
   137F 00                 4843 	.db #0x00
   1380 00                 4844 	.db #0x00
   1381 00                 4845 	.db #0x00
   1382 00                 4846 	.db #0x00
   1383 00                 4847 	.db #0x00
   1384 00                 4848 	.db #0x00
   1385 00                 4849 	.db #0x00
   1386 00                 4850 	.db #0x00
   1387 00                 4851 	.db #0x00
   1388 00                 4852 	.db #0x00
   1389 00                 4853 	.db #0x00
   138A 00                 4854 	.db #0x00
   138B 00                 4855 	.db #0x00
   138C 00                 4856 	.db #0x00
   138D 00                 4857 	.db #0x00
   138E 00                 4858 	.db #0x00
   138F 00                 4859 	.db #0x00
   1390 00                 4860 	.db #0x00
   1391 00                 4861 	.db #0x00
   1392 00                 4862 	.db #0x00
   1393 7F                 4863 	.db #0x7F
   1394 7F                 4864 	.db #0x7F
   1395 00                 4865 	.db #0x00
   1396 00                 4866 	.db #0x00
   1397 00                 4867 	.db #0x00
   1398 00                 4868 	.db #0x00
   1399 00                 4869 	.db #0x00
   139A 00                 4870 	.db #0x00
   139B 00                 4871 	.db #0x00
   139C 00                 4872 	.db #0x00
   139D 00                 4873 	.db #0x00
   139E 00                 4874 	.db #0x00
   139F 00                 4875 	.db #0x00
   13A0 00                 4876 	.db #0x00
   13A1 00                 4877 	.db #0x00
   13A2 00                 4878 	.db #0x00
   13A3 00                 4879 	.db #0x00
   13A4 00                 4880 	.db #0x00
   13A5 00                 4881 	.db #0x00
   13A6 00                 4882 	.db #0x00
   13A7 00                 4883 	.db #0x00
   13A8 00                 4884 	.db #0x00
   13A9 00                 4885 	.db #0x00
   13AA 00                 4886 	.db #0x00
   13AB 00                 4887 	.db #0x00
   13AC 00                 4888 	.db #0x00
   13AD 00                 4889 	.db #0x00
   13AE 00                 4890 	.db #0x00
   13AF 00                 4891 	.db #0x00
   13B0 00                 4892 	.db #0x00
   13B1 00                 4893 	.db #0x00
   13B2 00                 4894 	.db #0x00
   13B3 00                 4895 	.db #0x00
   13B4 00                 4896 	.db #0x00
   13B5 00                 4897 	.db #0x00
   13B6 00                 4898 	.db #0x00
   13B7 00                 4899 	.db #0x00
   13B8 00                 4900 	.db #0x00
   13B9 00                 4901 	.db #0x00
   13BA 00                 4902 	.db #0x00
   13BB 00                 4903 	.db #0x00
   13BC 00                 4904 	.db #0x00
   13BD 00                 4905 	.db #0x00
   13BE 00                 4906 	.db #0x00
   13BF 00                 4907 	.db #0x00
   13C0 00                 4908 	.db #0x00
   13C1 00                 4909 	.db #0x00
   13C2 00                 4910 	.db #0x00
   13C3 00                 4911 	.db #0x00
   13C4 00                 4912 	.db #0x00
   13C5 00                 4913 	.db #0x00
   13C6 00                 4914 	.db #0x00
   13C7 00                 4915 	.db #0x00
   13C8 00                 4916 	.db #0x00
   13C9 00                 4917 	.db #0x00
   13CA 00                 4918 	.db #0x00
   13CB 00                 4919 	.db #0x00
   13CC 00                 4920 	.db #0x00
   13CD 00                 4921 	.db #0x00
   13CE 00                 4922 	.db #0x00
   13CF 00                 4923 	.db #0x00
   13D0 00                 4924 	.db #0x00
   13D1 00                 4925 	.db #0x00
   13D2 00                 4926 	.db #0x00
   13D3 00                 4927 	.db #0x00
   13D4 00                 4928 	.db #0x00
   13D5 00                 4929 	.db #0x00
   13D6 00                 4930 	.db #0x00
   13D7 00                 4931 	.db #0x00
   13D8 00                 4932 	.db #0x00
   13D9 00                 4933 	.db #0x00
   13DA 00                 4934 	.db #0x00
   13DB 00                 4935 	.db #0x00
   13DC 00                 4936 	.db #0x00
   13DD 00                 4937 	.db #0x00
   13DE 00                 4938 	.db #0x00
   13DF 00                 4939 	.db #0x00
   13E0 00                 4940 	.db #0x00
   13E1 00                 4941 	.db #0x00
   13E2 00                 4942 	.db #0x00
   13E3 00                 4943 	.db #0x00
   13E4 00                 4944 	.db #0x00
   13E5 00                 4945 	.db #0x00
   13E6 00                 4946 	.db #0x00
   13E7 00                 4947 	.db #0x00
   13E8 00                 4948 	.db #0x00
   13E9 00                 4949 	.db #0x00
   13EA 00                 4950 	.db #0x00
   13EB 00                 4951 	.db #0x00
   13EC 00                 4952 	.db #0x00
   13ED 00                 4953 	.db #0x00
   13EE 00                 4954 	.db #0x00
   13EF 00                 4955 	.db #0x00
   13F0 00                 4956 	.db #0x00
   13F1 00                 4957 	.db #0x00
   13F2 00                 4958 	.db #0x00
   13F3 FF                 4959 	.db #0xFF
   13F4 FF                 4960 	.db #0xFF
   13F5 3F                 4961 	.db #0x3F
   13F6 3F                 4962 	.db #0x3F
   13F7 3F                 4963 	.db #0x3F
   13F8 3F                 4964 	.db #0x3F
   13F9 1F                 4965 	.db #0x1F
   13FA 1F                 4966 	.db #0x1F
   13FB 0F                 4967 	.db #0x0F
   13FC 0F                 4968 	.db #0x0F
   13FD 0F                 4969 	.db #0x0F
   13FE 0F                 4970 	.db #0x0F
   13FF 07                 4971 	.db #0x07
   1400 07                 4972 	.db #0x07
   1401 07                 4973 	.db #0x07
   1402 07                 4974 	.db #0x07
   1403 03                 4975 	.db #0x03
   1404 03                 4976 	.db #0x03
   1405 03                 4977 	.db #0x03
   1406 03                 4978 	.db #0x03
   1407 03                 4979 	.db #0x03
   1408 03                 4980 	.db #0x03
   1409 03                 4981 	.db #0x03
   140A 03                 4982 	.db #0x03
   140B 01                 4983 	.db #0x01
   140C 01                 4984 	.db #0x01
   140D 01                 4985 	.db #0x01
   140E 01                 4986 	.db #0x01
   140F 01                 4987 	.db #0x01
   1410 01                 4988 	.db #0x01
   1411 01                 4989 	.db #0x01
   1412 01                 4990 	.db #0x01
   1413 FF                 4991 	.db #0xFF
   1414 FF                 4992 	.db #0xFF
   1415 FF                 4993 	.db #0xFF
   1416 FF                 4994 	.db #0xFF
   1417 FF                 4995 	.db #0xFF
   1418 FF                 4996 	.db #0xFF
   1419 FF                 4997 	.db #0xFF
   141A FF                 4998 	.db #0xFF
   141B FF                 4999 	.db #0xFF
   141C FF                 5000 	.db #0xFF
   141D FF                 5001 	.db #0xFF
   141E FF                 5002 	.db #0xFF
   141F FF                 5003 	.db #0xFF
   1420 FF                 5004 	.db #0xFF
   1421 FF                 5005 	.db #0xFF
   1422 FF                 5006 	.db #0xFF
   1423 FE                 5007 	.db #0xFE
   1424 FE                 5008 	.db #0xFE
   1425 FC                 5009 	.db #0xFC
   1426 FC                 5010 	.db #0xFC
   1427 FC                 5011 	.db #0xFC
   1428 FC                 5012 	.db #0xFC
   1429 F8                 5013 	.db #0xF8
   142A F8                 5014 	.db #0xF8
   142B F8                 5015 	.db #0xF8
   142C F8                 5016 	.db #0xF8
   142D F0                 5017 	.db #0xF0
   142E F0                 5018 	.db #0xF0
   142F F0                 5019 	.db #0xF0
   1430 F0                 5020 	.db #0xF0
   1431 F0                 5021 	.db #0xF0
   1432 F0                 5022 	.db #0xF0
   1433 01                 5023 	.db #0x01
   1434 01                 5024 	.db #0x01
   1435 00                 5025 	.db #0x00
   1436 00                 5026 	.db #0x00
   1437 00                 5027 	.db #0x00
   1438 00                 5028 	.db #0x00
   1439 00                 5029 	.db #0x00
   143A 00                 5030 	.db #0x00
   143B 00                 5031 	.db #0x00
   143C 00                 5032 	.db #0x00
   143D 00                 5033 	.db #0x00
   143E 00                 5034 	.db #0x00
   143F 00                 5035 	.db #0x00
   1440 00                 5036 	.db #0x00
   1441 00                 5037 	.db #0x00
   1442 00                 5038 	.db #0x00
   1443 00                 5039 	.db #0x00
   1444 00                 5040 	.db #0x00
   1445 00                 5041 	.db #0x00
   1446 00                 5042 	.db #0x00
   1447 00                 5043 	.db #0x00
   1448 00                 5044 	.db #0x00
   1449 00                 5045 	.db #0x00
   144A 00                 5046 	.db #0x00
   144B 00                 5047 	.db #0x00
   144C 00                 5048 	.db #0x00
   144D 00                 5049 	.db #0x00
   144E 00                 5050 	.db #0x00
   144F 00                 5051 	.db #0x00
   1450 00                 5052 	.db #0x00
   1451 00                 5053 	.db #0x00
   1452 00                 5054 	.db #0x00
   1453 F0                 5055 	.db #0xF0
   1454 F0                 5056 	.db #0xF0
   1455 E0                 5057 	.db #0xE0
   1456 E0                 5058 	.db #0xE0
   1457 E0                 5059 	.db #0xE0
   1458 E0                 5060 	.db #0xE0
   1459 00                 5061 	.db #0x00
   145A 00                 5062 	.db #0x00
   145B 00                 5063 	.db #0x00
   145C 00                 5064 	.db #0x00
   145D 00                 5065 	.db #0x00
   145E 00                 5066 	.db #0x00
   145F 00                 5067 	.db #0x00
   1460 00                 5068 	.db #0x00
   1461 00                 5069 	.db #0x00
   1462 00                 5070 	.db #0x00
   1463 00                 5071 	.db #0x00
   1464 00                 5072 	.db #0x00
   1465 00                 5073 	.db #0x00
   1466 00                 5074 	.db #0x00
   1467 00                 5075 	.db #0x00
   1468 00                 5076 	.db #0x00
   1469 00                 5077 	.db #0x00
   146A 00                 5078 	.db #0x00
   146B 00                 5079 	.db #0x00
   146C 00                 5080 	.db #0x00
   146D 00                 5081 	.db #0x00
   146E 00                 5082 	.db #0x00
   146F 00                 5083 	.db #0x00
   1470 00                 5084 	.db #0x00
   1471 00                 5085 	.db #0x00
   1472 00                 5086 	.db #0x00
   1473 FF                 5087 	.db #0xFF
   1474 FF                 5088 	.db #0xFF
   1475 E7                 5089 	.db #0xE7
   1476 E7                 5090 	.db #0xE7
   1477 E1                 5091 	.db #0xE1
   1478 E1                 5092 	.db #0xE1
   1479 E0                 5093 	.db #0xE0
   147A E0                 5094 	.db #0xE0
   147B C0                 5095 	.db #0xC0
   147C C0                 5096 	.db #0xC0
   147D 80                 5097 	.db #0x80
   147E 80                 5098 	.db #0x80
   147F 00                 5099 	.db #0x00
   1480 00                 5100 	.db #0x00
   1481 00                 5101 	.db #0x00
   1482 00                 5102 	.db #0x00
   1483 00                 5103 	.db #0x00
   1484 00                 5104 	.db #0x00
   1485 00                 5105 	.db #0x00
   1486 00                 5106 	.db #0x00
   1487 00                 5107 	.db #0x00
   1488 00                 5108 	.db #0x00
   1489 00                 5109 	.db #0x00
   148A 00                 5110 	.db #0x00
   148B 00                 5111 	.db #0x00
   148C 00                 5112 	.db #0x00
   148D 00                 5113 	.db #0x00
   148E 00                 5114 	.db #0x00
   148F 00                 5115 	.db #0x00
   1490 00                 5116 	.db #0x00
   1491 00                 5117 	.db #0x00
   1492 00                 5118 	.db #0x00
   1493 E0                 5119 	.db #0xE0
   1494 E0                 5120 	.db #0xE0
   1495 F8                 5121 	.db #0xF8
   1496 F8                 5122 	.db #0xF8
   1497 FE                 5123 	.db #0xFE
   1498 FE                 5124 	.db #0xFE
   1499 7F                 5125 	.db #0x7F
   149A 7F                 5126 	.db #0x7F
   149B 1F                 5127 	.db #0x1F
   149C 1F                 5128 	.db #0x1F
   149D 07                 5129 	.db #0x07
   149E 07                 5130 	.db #0x07
   149F 00                 5131 	.db #0x00
   14A0 00                 5132 	.db #0x00
   14A1 00                 5133 	.db #0x00
   14A2 00                 5134 	.db #0x00
   14A3 00                 5135 	.db #0x00
   14A4 00                 5136 	.db #0x00
   14A5 00                 5137 	.db #0x00
   14A6 00                 5138 	.db #0x00
   14A7 00                 5139 	.db #0x00
   14A8 00                 5140 	.db #0x00
   14A9 00                 5141 	.db #0x00
   14AA 00                 5142 	.db #0x00
   14AB 00                 5143 	.db #0x00
   14AC 00                 5144 	.db #0x00
   14AD 00                 5145 	.db #0x00
   14AE 00                 5146 	.db #0x00
   14AF 00                 5147 	.db #0x00
   14B0 00                 5148 	.db #0x00
   14B1 00                 5149 	.db #0x00
   14B2 00                 5150 	.db #0x00
   14B3 00                 5151 	.db #0x00
   14B4 00                 5152 	.db #0x00
   14B5 00                 5153 	.db #0x00
   14B6 00                 5154 	.db #0x00
   14B7 00                 5155 	.db #0x00
   14B8 00                 5156 	.db #0x00
   14B9 00                 5157 	.db #0x00
   14BA 00                 5158 	.db #0x00
   14BB 00                 5159 	.db #0x00
   14BC 00                 5160 	.db #0x00
   14BD 00                 5161 	.db #0x00
   14BE 00                 5162 	.db #0x00
   14BF 00                 5163 	.db #0x00
   14C0 00                 5164 	.db #0x00
   14C1 00                 5165 	.db #0x00
   14C2 00                 5166 	.db #0x00
   14C3 00                 5167 	.db #0x00
   14C4 00                 5168 	.db #0x00
   14C5 00                 5169 	.db #0x00
   14C6 00                 5170 	.db #0x00
   14C7 00                 5171 	.db #0x00
   14C8 00                 5172 	.db #0x00
   14C9 00                 5173 	.db #0x00
   14CA 00                 5174 	.db #0x00
   14CB 00                 5175 	.db #0x00
   14CC 00                 5176 	.db #0x00
   14CD 00                 5177 	.db #0x00
   14CE 00                 5178 	.db #0x00
   14CF 00                 5179 	.db #0x00
   14D0 00                 5180 	.db #0x00
   14D1 00                 5181 	.db #0x00
   14D2 00                 5182 	.db #0x00
   14D3 00                 5183 	.db #0x00
   14D4 00                 5184 	.db #0x00
   14D5 00                 5185 	.db #0x00
   14D6 00                 5186 	.db #0x00
   14D7 00                 5187 	.db #0x00
   14D8 00                 5188 	.db #0x00
   14D9 00                 5189 	.db #0x00
   14DA 00                 5190 	.db #0x00
   14DB 00                 5191 	.db #0x00
   14DC 00                 5192 	.db #0x00
   14DD 00                 5193 	.db #0x00
   14DE 00                 5194 	.db #0x00
   14DF 00                 5195 	.db #0x00
   14E0 00                 5196 	.db #0x00
   14E1 00                 5197 	.db #0x00
   14E2 00                 5198 	.db #0x00
   14E3 00                 5199 	.db #0x00
   14E4 00                 5200 	.db #0x00
   14E5 00                 5201 	.db #0x00
   14E6 00                 5202 	.db #0x00
   14E7 00                 5203 	.db #0x00
   14E8 00                 5204 	.db #0x00
   14E9 00                 5205 	.db #0x00
   14EA 00                 5206 	.db #0x00
   14EB 00                 5207 	.db #0x00
   14EC 00                 5208 	.db #0x00
   14ED 00                 5209 	.db #0x00
   14EE 00                 5210 	.db #0x00
   14EF 00                 5211 	.db #0x00
   14F0 00                 5212 	.db #0x00
   14F1 00                 5213 	.db #0x00
   14F2 00                 5214 	.db #0x00
   14F3 00                 5215 	.db #0x00
   14F4 00                 5216 	.db #0x00
   14F5 00                 5217 	.db #0x00
   14F6 00                 5218 	.db #0x00
   14F7 07                 5219 	.db #0x07
   14F8 07                 5220 	.db #0x07
   14F9 FF                 5221 	.db #0xFF
   14FA FF                 5222 	.db #0xFF
   14FB FF                 5223 	.db #0xFF
   14FC FF                 5224 	.db #0xFF
   14FD 7C                 5225 	.db #0x7C
   14FE 7C                 5226 	.db #0x7C
   14FF 00                 5227 	.db #0x00
   1500 00                 5228 	.db #0x00
   1501 00                 5229 	.db #0x00
   1502 00                 5230 	.db #0x00
   1503 00                 5231 	.db #0x00
   1504 00                 5232 	.db #0x00
   1505 00                 5233 	.db #0x00
   1506 00                 5234 	.db #0x00
   1507 00                 5235 	.db #0x00
   1508 00                 5236 	.db #0x00
   1509 00                 5237 	.db #0x00
   150A 00                 5238 	.db #0x00
   150B 00                 5239 	.db #0x00
   150C 00                 5240 	.db #0x00
   150D 00                 5241 	.db #0x00
   150E 00                 5242 	.db #0x00
   150F 00                 5243 	.db #0x00
   1510 00                 5244 	.db #0x00
   1511 00                 5245 	.db #0x00
   1512 00                 5246 	.db #0x00
   1513 0F                 5247 	.db #0x0F
   1514 0F                 5248 	.db #0x0F
   1515 3E                 5249 	.db #0x3E
   1516 3E                 5250 	.db #0x3E
   1517 FF                 5251 	.db #0xFF
   1518 FF                 5252 	.db #0xFF
   1519 FF                 5253 	.db #0xFF
   151A FF                 5254 	.db #0xFF
   151B E0                 5255 	.db #0xE0
   151C E0                 5256 	.db #0xE0
   151D 00                 5257 	.db #0x00
   151E 00                 5258 	.db #0x00
   151F 00                 5259 	.db #0x00
   1520 00                 5260 	.db #0x00
   1521 00                 5261 	.db #0x00
   1522 00                 5262 	.db #0x00
   1523 00                 5263 	.db #0x00
   1524 00                 5264 	.db #0x00
   1525 00                 5265 	.db #0x00
   1526 00                 5266 	.db #0x00
   1527 00                 5267 	.db #0x00
   1528 00                 5268 	.db #0x00
   1529 00                 5269 	.db #0x00
   152A 00                 5270 	.db #0x00
   152B 00                 5271 	.db #0x00
   152C 00                 5272 	.db #0x00
   152D 00                 5273 	.db #0x00
   152E 00                 5274 	.db #0x00
   152F 00                 5275 	.db #0x00
   1530 00                 5276 	.db #0x00
   1531 00                 5277 	.db #0x00
   1532 00                 5278 	.db #0x00
   1533 00                 5279 	.db #0x00
   1534 00                 5280 	.db #0x00
   1535 00                 5281 	.db #0x00
   1536 00                 5282 	.db #0x00
   1537 00                 5283 	.db #0x00
   1538 00                 5284 	.db #0x00
   1539 00                 5285 	.db #0x00
   153A 00                 5286 	.db #0x00
   153B 00                 5287 	.db #0x00
   153C 00                 5288 	.db #0x00
   153D 00                 5289 	.db #0x00
   153E 00                 5290 	.db #0x00
   153F 00                 5291 	.db #0x00
   1540 00                 5292 	.db #0x00
   1541 00                 5293 	.db #0x00
   1542 00                 5294 	.db #0x00
   1543 00                 5295 	.db #0x00
   1544 00                 5296 	.db #0x00
   1545 00                 5297 	.db #0x00
   1546 00                 5298 	.db #0x00
   1547 00                 5299 	.db #0x00
   1548 00                 5300 	.db #0x00
   1549 00                 5301 	.db #0x00
   154A 00                 5302 	.db #0x00
   154B 00                 5303 	.db #0x00
   154C 00                 5304 	.db #0x00
   154D 00                 5305 	.db #0x00
   154E 00                 5306 	.db #0x00
   154F 00                 5307 	.db #0x00
   1550 00                 5308 	.db #0x00
   1551 00                 5309 	.db #0x00
   1552 00                 5310 	.db #0x00
   1553 00                 5311 	.db #0x00
   1554 00                 5312 	.db #0x00
   1555 00                 5313 	.db #0x00
   1556 00                 5314 	.db #0x00
   1557 00                 5315 	.db #0x00
   1558 00                 5316 	.db #0x00
   1559 00                 5317 	.db #0x00
   155A 00                 5318 	.db #0x00
   155B 00                 5319 	.db #0x00
   155C 00                 5320 	.db #0x00
   155D 00                 5321 	.db #0x00
   155E 00                 5322 	.db #0x00
   155F 00                 5323 	.db #0x00
   1560 00                 5324 	.db #0x00
   1561 00                 5325 	.db #0x00
   1562 00                 5326 	.db #0x00
   1563 00                 5327 	.db #0x00
   1564 00                 5328 	.db #0x00
   1565 00                 5329 	.db #0x00
   1566 00                 5330 	.db #0x00
   1567 00                 5331 	.db #0x00
   1568 00                 5332 	.db #0x00
   1569 00                 5333 	.db #0x00
   156A 00                 5334 	.db #0x00
   156B 00                 5335 	.db #0x00
   156C 00                 5336 	.db #0x00
   156D 00                 5337 	.db #0x00
   156E 00                 5338 	.db #0x00
   156F 00                 5339 	.db #0x00
   1570 00                 5340 	.db #0x00
   1571 00                 5341 	.db #0x00
   1572 00                 5342 	.db #0x00
   1573 00                 5343 	.db #0x00
   1574 00                 5344 	.db #0x00
   1575 00                 5345 	.db #0x00
   1576 00                 5346 	.db #0x00
   1577 FF                 5347 	.db #0xFF
   1578 FF                 5348 	.db #0xFF
   1579 FF                 5349 	.db #0xFF
   157A FF                 5350 	.db #0xFF
   157B 00                 5351 	.db #0x00
   157C 00                 5352 	.db #0x00
   157D 00                 5353 	.db #0x00
   157E 00                 5354 	.db #0x00
   157F 00                 5355 	.db #0x00
   1580 00                 5356 	.db #0x00
   1581 00                 5357 	.db #0x00
   1582 00                 5358 	.db #0x00
   1583 00                 5359 	.db #0x00
   1584 00                 5360 	.db #0x00
   1585 00                 5361 	.db #0x00
   1586 00                 5362 	.db #0x00
   1587 00                 5363 	.db #0x00
   1588 00                 5364 	.db #0x00
   1589 00                 5365 	.db #0x00
   158A 00                 5366 	.db #0x00
   158B 00                 5367 	.db #0x00
   158C 00                 5368 	.db #0x00
   158D 00                 5369 	.db #0x00
   158E 00                 5370 	.db #0x00
   158F 00                 5371 	.db #0x00
   1590 00                 5372 	.db #0x00
   1591 00                 5373 	.db #0x00
   1592 00                 5374 	.db #0x00
   1593 3C                 5375 	.db #0x3C
   1594 3C                 5376 	.db #0x3C
   1595 3C                 5377 	.db #0x3C
   1596 3C                 5378 	.db #0x3C
   1597 FC                 5379 	.db #0xFC
   1598 FC                 5380 	.db #0xFC
   1599 F8                 5381 	.db #0xF8
   159A F8                 5382 	.db #0xF8
   159B 00                 5383 	.db #0x00
   159C 00                 5384 	.db #0x00
   159D 00                 5385 	.db #0x00
   159E 00                 5386 	.db #0x00
   159F 00                 5387 	.db #0x00
   15A0 00                 5388 	.db #0x00
   15A1 00                 5389 	.db #0x00
   15A2 00                 5390 	.db #0x00
   15A3                    5391 _TitleScreenMap:
   15A3 01                 5392 	.db #0x01
   15A4 02                 5393 	.db #0x02
   15A5 08                 5394 	.db #0x08
   15A6 0A                 5395 	.db #0x0A
   15A7 00                 5396 	.db #0x00
   15A8 00                 5397 	.db #0x00
   15A9 18                 5398 	.db #0x18
   15AA 1A                 5399 	.db #0x1A
   15AB 20                 5400 	.db #0x20
   15AC 22                 5401 	.db #0x22
   15AD 28                 5402 	.db #0x28
   15AE 2A                 5403 	.db #0x2A
   15AF 94                 5404 	.db #0x94
   15B0 94                 5405 	.db #0x94
   15B1 94                 5406 	.db #0x94
   15B2 94                 5407 	.db #0x94
   15B3 94                 5408 	.db #0x94
   15B4 94                 5409 	.db #0x94
   15B5 94                 5410 	.db #0x94
   15B6 94                 5411 	.db #0x94
   15B7 01                 5412 	.db #0x01
   15B8 03                 5413 	.db #0x03
   15B9 09                 5414 	.db #0x09
   15BA 0B                 5415 	.db #0x0B
   15BB 11                 5416 	.db #0x11
   15BC 13                 5417 	.db #0x13
   15BD 18                 5418 	.db #0x18
   15BE 1B                 5419 	.db #0x1B
   15BF 21                 5420 	.db #0x21
   15C0 23                 5421 	.db #0x23
   15C1 29                 5422 	.db #0x29
   15C2 2B                 5423 	.db #0x2B
   15C3 94                 5424 	.db #0x94
   15C4 94                 5425 	.db #0x94
   15C5 39                 5426 	.db #0x39
   15C6 3B                 5427 	.db #0x3B
   15C7 41                 5428 	.db #0x41
   15C8 43                 5429 	.db #0x43
   15C9 94                 5430 	.db #0x94
   15CA 94                 5431 	.db #0x94
   15CB 00                 5432 	.db #0x00
   15CC 06                 5433 	.db #0x06
   15CD 0C                 5434 	.db #0x0C
   15CE 0E                 5435 	.db #0x0E
   15CF 14                 5436 	.db #0x14
   15D0 16                 5437 	.db #0x16
   15D1 1C                 5438 	.db #0x1C
   15D2 1E                 5439 	.db #0x1E
   15D3 24                 5440 	.db #0x24
   15D4 26                 5441 	.db #0x26
   15D5 2C                 5442 	.db #0x2C
   15D6 2E                 5443 	.db #0x2E
   15D7 34                 5444 	.db #0x34
   15D8 36                 5445 	.db #0x36
   15D9 3C                 5446 	.db #0x3C
   15DA 3E                 5447 	.db #0x3E
   15DB 44                 5448 	.db #0x44
   15DC 46                 5449 	.db #0x46
   15DD 94                 5450 	.db #0x94
   15DE 94                 5451 	.db #0x94
   15DF 00                 5452 	.db #0x00
   15E0 07                 5453 	.db #0x07
   15E1 0D                 5454 	.db #0x0D
   15E2 0F                 5455 	.db #0x0F
   15E3 15                 5456 	.db #0x15
   15E4 17                 5457 	.db #0x17
   15E5 1D                 5458 	.db #0x1D
   15E6 1F                 5459 	.db #0x1F
   15E7 25                 5460 	.db #0x25
   15E8 27                 5461 	.db #0x27
   15E9 2D                 5462 	.db #0x2D
   15EA 2F                 5463 	.db #0x2F
   15EB 35                 5464 	.db #0x35
   15EC 37                 5465 	.db #0x37
   15ED 3D                 5466 	.db #0x3D
   15EE 3F                 5467 	.db #0x3F
   15EF 45                 5468 	.db #0x45
   15F0 47                 5469 	.db #0x47
   15F1 94                 5470 	.db #0x94
   15F2 94                 5471 	.db #0x94
   15F3 18                 5472 	.db #0x18
   15F4 18                 5473 	.db #0x18
   15F5 58                 5474 	.db #0x58
   15F6 5A                 5475 	.db #0x5A
   15F7 60                 5476 	.db #0x60
   15F8 62                 5477 	.db #0x62
   15F9 68                 5478 	.db #0x68
   15FA 6A                 5479 	.db #0x6A
   15FB 70                 5480 	.db #0x70
   15FC 72                 5481 	.db #0x72
   15FD 78                 5482 	.db #0x78
   15FE 7A                 5483 	.db #0x7A
   15FF 80                 5484 	.db #0x80
   1600 82                 5485 	.db #0x82
   1601 88                 5486 	.db #0x88
   1602 8A                 5487 	.db #0x8A
   1603 90                 5488 	.db #0x90
   1604 92                 5489 	.db #0x92
   1605 94                 5490 	.db #0x94
   1606 94                 5491 	.db #0x94
   1607 18                 5492 	.db #0x18
   1608 19                 5493 	.db #0x19
   1609 59                 5494 	.db #0x59
   160A 5B                 5495 	.db #0x5B
   160B 61                 5496 	.db #0x61
   160C 63                 5497 	.db #0x63
   160D 69                 5498 	.db #0x69
   160E 6B                 5499 	.db #0x6B
   160F 71                 5500 	.db #0x71
   1610 73                 5501 	.db #0x73
   1611 79                 5502 	.db #0x79
   1612 7B                 5503 	.db #0x7B
   1613 81                 5504 	.db #0x81
   1614 83                 5505 	.db #0x83
   1615 89                 5506 	.db #0x89
   1616 8B                 5507 	.db #0x8B
   1617 91                 5508 	.db #0x91
   1618 93                 5509 	.db #0x93
   1619 94                 5510 	.db #0x94
   161A 94                 5511 	.db #0x94
   161B 57                 5512 	.db #0x57
   161C 94                 5513 	.db #0x94
   161D 5C                 5514 	.db #0x5C
   161E 5E                 5515 	.db #0x5E
   161F 64                 5516 	.db #0x64
   1620 66                 5517 	.db #0x66
   1621 6C                 5518 	.db #0x6C
   1622 6E                 5519 	.db #0x6E
   1623 74                 5520 	.db #0x74
   1624 76                 5521 	.db #0x76
   1625 7C                 5522 	.db #0x7C
   1626 7E                 5523 	.db #0x7E
   1627 84                 5524 	.db #0x84
   1628 86                 5525 	.db #0x86
   1629 8C                 5526 	.db #0x8C
   162A 8E                 5527 	.db #0x8E
   162B 94                 5528 	.db #0x94
   162C 94                 5529 	.db #0x94
   162D 94                 5530 	.db #0x94
   162E 94                 5531 	.db #0x94
   162F 94                 5532 	.db #0x94
   1630 94                 5533 	.db #0x94
   1631 5D                 5534 	.db #0x5D
   1632 5F                 5535 	.db #0x5F
   1633 65                 5536 	.db #0x65
   1634 67                 5537 	.db #0x67
   1635 6D                 5538 	.db #0x6D
   1636 6F                 5539 	.db #0x6F
   1637 75                 5540 	.db #0x75
   1638 77                 5541 	.db #0x77
   1639 7D                 5542 	.db #0x7D
   163A 7F                 5543 	.db #0x7F
   163B 85                 5544 	.db #0x85
   163C 87                 5545 	.db #0x87
   163D 8D                 5546 	.db #0x8D
   163E 8F                 5547 	.db #0x8F
   163F 94                 5548 	.db #0x94
   1640 94                 5549 	.db #0x94
   1641 94                 5550 	.db #0x94
   1642 94                 5551 	.db #0x94
   1643 94                 5552 	.db #0x94
   1644 94                 5553 	.db #0x94
   1645 94                 5554 	.db #0x94
   1646 AA                 5555 	.db #0xAA
   1647 B0                 5556 	.db #0xB0
   1648 B2                 5557 	.db #0xB2
   1649 B8                 5558 	.db #0xB8
   164A BA                 5559 	.db #0xBA
   164B C0                 5560 	.db #0xC0
   164C C2                 5561 	.db #0xC2
   164D C8                 5562 	.db #0xC8
   164E CA                 5563 	.db #0xCA
   164F D0                 5564 	.db #0xD0
   1650 D2                 5565 	.db #0xD2
   1651 D8                 5566 	.db #0xD8
   1652 DA                 5567 	.db #0xDA
   1653 94                 5568 	.db #0x94
   1654 94                 5569 	.db #0x94
   1655 94                 5570 	.db #0x94
   1656 94                 5571 	.db #0x94
   1657 94                 5572 	.db #0x94
   1658 94                 5573 	.db #0x94
   1659 94                 5574 	.db #0x94
   165A 94                 5575 	.db #0x94
   165B 94                 5576 	.db #0x94
   165C 94                 5577 	.db #0x94
   165D 94                 5578 	.db #0x94
   165E 94                 5579 	.db #0x94
   165F C1                 5580 	.db #0xC1
   1660 C3                 5581 	.db #0xC3
   1661 94                 5582 	.db #0x94
   1662 94                 5583 	.db #0x94
   1663 CE                 5584 	.db #0xCE
   1664 94                 5585 	.db #0x94
   1665 94                 5586 	.db #0x94
   1666 94                 5587 	.db #0x94
   1667 94                 5588 	.db #0x94
   1668 94                 5589 	.db #0x94
   1669 94                 5590 	.db #0x94
   166A 94                 5591 	.db #0x94
   166B 94                 5592 	.db #0x94
   166C 94                 5593 	.db #0x94
   166D 94                 5594 	.db #0x94
   166E 94                 5595 	.db #0x94
   166F 94                 5596 	.db #0x94
   1670 94                 5597 	.db #0x94
   1671 94                 5598 	.db #0x94
   1672 94                 5599 	.db #0x94
   1673 C4                 5600 	.db #0xC4
   1674 C6                 5601 	.db #0xC6
   1675 94                 5602 	.db #0x94
   1676 94                 5603 	.db #0x94
   1677 94                 5604 	.db #0x94
   1678 94                 5605 	.db #0x94
   1679 94                 5606 	.db #0x94
   167A 94                 5607 	.db #0x94
   167B 94                 5608 	.db #0x94
   167C 94                 5609 	.db #0x94
   167D 94                 5610 	.db #0x94
   167E 94                 5611 	.db #0x94
   167F 94                 5612 	.db #0x94
   1680 94                 5613 	.db #0x94
   1681 94                 5614 	.db #0x94
   1682 94                 5615 	.db #0x94
   1683 94                 5616 	.db #0x94
   1684 94                 5617 	.db #0x94
   1685 94                 5618 	.db #0x94
   1686 94                 5619 	.db #0x94
   1687 94                 5620 	.db #0x94
   1688 94                 5621 	.db #0x94
   1689 94                 5622 	.db #0x94
   168A 94                 5623 	.db #0x94
   168B 94                 5624 	.db #0x94
   168C 94                 5625 	.db #0x94
   168D 94                 5626 	.db #0x94
   168E 94                 5627 	.db #0x94
   168F 94                 5628 	.db #0x94
   1690 94                 5629 	.db #0x94
   1691 94                 5630 	.db #0x94
   1692 94                 5631 	.db #0x94
   1693 94                 5632 	.db #0x94
   1694 94                 5633 	.db #0x94
   1695 94                 5634 	.db #0x94
   1696 94                 5635 	.db #0x94
   1697 94                 5636 	.db #0x94
   1698 94                 5637 	.db #0x94
   1699 94                 5638 	.db #0x94
   169A 94                 5639 	.db #0x94
   169B 94                 5640 	.db #0x94
   169C 94                 5641 	.db #0x94
   169D 94                 5642 	.db #0x94
   169E 94                 5643 	.db #0x94
   169F 94                 5644 	.db #0x94
   16A0 94                 5645 	.db #0x94
   16A1 94                 5646 	.db #0x94
   16A2 94                 5647 	.db #0x94
   16A3 94                 5648 	.db #0x94
   16A4 94                 5649 	.db #0x94
   16A5 94                 5650 	.db #0x94
   16A6 94                 5651 	.db #0x94
   16A7 94                 5652 	.db #0x94
   16A8 94                 5653 	.db #0x94
   16A9 94                 5654 	.db #0x94
   16AA 94                 5655 	.db #0x94
   16AB 94                 5656 	.db #0x94
   16AC 94                 5657 	.db #0x94
   16AD 94                 5658 	.db #0x94
   16AE 94                 5659 	.db #0x94
   16AF 94                 5660 	.db #0x94
   16B0 94                 5661 	.db #0x94
   16B1 94                 5662 	.db #0x94
   16B2 94                 5663 	.db #0x94
   16B3 94                 5664 	.db #0x94
   16B4 94                 5665 	.db #0x94
   16B5 94                 5666 	.db #0x94
   16B6 94                 5667 	.db #0x94
   16B7 94                 5668 	.db #0x94
   16B8 94                 5669 	.db #0x94
   16B9 94                 5670 	.db #0x94
   16BA 94                 5671 	.db #0x94
   16BB 94                 5672 	.db #0x94
   16BC 94                 5673 	.db #0x94
   16BD 94                 5674 	.db #0x94
   16BE 94                 5675 	.db #0x94
   16BF 94                 5676 	.db #0x94
   16C0 94                 5677 	.db #0x94
   16C1 94                 5678 	.db #0x94
   16C2 94                 5679 	.db #0x94
   16C3 94                 5680 	.db #0x94
   16C4 94                 5681 	.db #0x94
   16C5 94                 5682 	.db #0x94
   16C6 94                 5683 	.db #0x94
   16C7 94                 5684 	.db #0x94
   16C8 94                 5685 	.db #0x94
   16C9 94                 5686 	.db #0x94
   16CA 94                 5687 	.db #0x94
   16CB 94                 5688 	.db #0x94
   16CC 94                 5689 	.db #0x94
   16CD 94                 5690 	.db #0x94
   16CE 94                 5691 	.db #0x94
   16CF 94                 5692 	.db #0x94
   16D0 94                 5693 	.db #0x94
   16D1 94                 5694 	.db #0x94
   16D2 94                 5695 	.db #0x94
   16D3 94                 5696 	.db #0x94
   16D4 94                 5697 	.db #0x94
   16D5 94                 5698 	.db #0x94
   16D6 94                 5699 	.db #0x94
   16D7 94                 5700 	.db #0x94
   16D8 94                 5701 	.db #0x94
   16D9 94                 5702 	.db #0x94
   16DA 94                 5703 	.db #0x94
   16DB 94                 5704 	.db #0x94
   16DC 94                 5705 	.db #0x94
   16DD 94                 5706 	.db #0x94
   16DE 94                 5707 	.db #0x94
   16DF 94                 5708 	.db #0x94
   16E0 94                 5709 	.db #0x94
   16E1 94                 5710 	.db #0x94
   16E2 94                 5711 	.db #0x94
   16E3 94                 5712 	.db #0x94
   16E4 94                 5713 	.db #0x94
   16E5 94                 5714 	.db #0x94
   16E6 94                 5715 	.db #0x94
   16E7 94                 5716 	.db #0x94
   16E8 94                 5717 	.db #0x94
   16E9 94                 5718 	.db #0x94
   16EA 94                 5719 	.db #0x94
   16EB 94                 5720 	.db #0x94
   16EC 94                 5721 	.db #0x94
   16ED 94                 5722 	.db #0x94
   16EE 94                 5723 	.db #0x94
   16EF 94                 5724 	.db #0x94
   16F0 94                 5725 	.db #0x94
   16F1 94                 5726 	.db #0x94
   16F2 94                 5727 	.db #0x94
   16F3 94                 5728 	.db #0x94
   16F4 94                 5729 	.db #0x94
   16F5 94                 5730 	.db #0x94
   16F6 94                 5731 	.db #0x94
   16F7 94                 5732 	.db #0x94
   16F8 94                 5733 	.db #0x94
   16F9 94                 5734 	.db #0x94
   16FA 94                 5735 	.db #0x94
   16FB 94                 5736 	.db #0x94
   16FC 94                 5737 	.db #0x94
   16FD 94                 5738 	.db #0x94
   16FE 94                 5739 	.db #0x94
   16FF 94                 5740 	.db #0x94
   1700 94                 5741 	.db #0x94
   1701 94                 5742 	.db #0x94
   1702 94                 5743 	.db #0x94
   1703 94                 5744 	.db #0x94
   1704 94                 5745 	.db #0x94
   1705 94                 5746 	.db #0x94
   1706 94                 5747 	.db #0x94
   1707 94                 5748 	.db #0x94
   1708 94                 5749 	.db #0x94
   1709 94                 5750 	.db #0x94
   170A 94                 5751 	.db #0x94
   170B                    5752 _PressStart:
   170B 00                 5753 	.db #0x00
   170C 00                 5754 	.db #0x00
   170D F8                 5755 	.db #0xF8
   170E F8                 5756 	.db #0xF8
   170F CC                 5757 	.db #0xCC
   1710 CC                 5758 	.db #0xCC
   1711 CC                 5759 	.db #0xCC
   1712 CC                 5760 	.db #0xCC
   1713 F8                 5761 	.db #0xF8
   1714 F8                 5762 	.db #0xF8
   1715 C0                 5763 	.db #0xC0
   1716 C0                 5764 	.db #0xC0
   1717 C0                 5765 	.db #0xC0
   1718 C0                 5766 	.db #0xC0
   1719 C0                 5767 	.db #0xC0
   171A C0                 5768 	.db #0xC0
   171B 00                 5769 	.db #0x00
   171C 00                 5770 	.db #0x00
   171D 00                 5771 	.db #0x00
   171E 00                 5772 	.db #0x00
   171F 00                 5773 	.db #0x00
   1720 00                 5774 	.db #0x00
   1721 DC                 5775 	.db #0xDC
   1722 DC                 5776 	.db #0xDC
   1723 E0                 5777 	.db #0xE0
   1724 E0                 5778 	.db #0xE0
   1725 C0                 5779 	.db #0xC0
   1726 C0                 5780 	.db #0xC0
   1727 C0                 5781 	.db #0xC0
   1728 C0                 5782 	.db #0xC0
   1729 C0                 5783 	.db #0xC0
   172A C0                 5784 	.db #0xC0
   172B 00                 5785 	.db #0x00
   172C 00                 5786 	.db #0x00
   172D 00                 5787 	.db #0x00
   172E 00                 5788 	.db #0x00
   172F 00                 5789 	.db #0x00
   1730 00                 5790 	.db #0x00
   1731 7C                 5791 	.db #0x7C
   1732 7C                 5792 	.db #0x7C
   1733 C6                 5793 	.db #0xC6
   1734 C6                 5794 	.db #0xC6
   1735 FE                 5795 	.db #0xFE
   1736 FE                 5796 	.db #0xFE
   1737 C0                 5797 	.db #0xC0
   1738 C0                 5798 	.db #0xC0
   1739 7E                 5799 	.db #0x7E
   173A 7E                 5800 	.db #0x7E
   173B 00                 5801 	.db #0x00
   173C 00                 5802 	.db #0x00
   173D 00                 5803 	.db #0x00
   173E 00                 5804 	.db #0x00
   173F 00                 5805 	.db #0x00
   1740 00                 5806 	.db #0x00
   1741 7E                 5807 	.db #0x7E
   1742 7E                 5808 	.db #0x7E
   1743 C0                 5809 	.db #0xC0
   1744 C0                 5810 	.db #0xC0
   1745 7C                 5811 	.db #0x7C
   1746 7C                 5812 	.db #0x7C
   1747 06                 5813 	.db #0x06
   1748 06                 5814 	.db #0x06
   1749 FC                 5815 	.db #0xFC
   174A FC                 5816 	.db #0xFC
   174B 00                 5817 	.db #0x00
   174C 00                 5818 	.db #0x00
   174D 00                 5819 	.db #0x00
   174E 00                 5820 	.db #0x00
   174F 00                 5821 	.db #0x00
   1750 00                 5822 	.db #0x00
   1751 7C                 5823 	.db #0x7C
   1752 7C                 5824 	.db #0x7C
   1753 C0                 5825 	.db #0xC0
   1754 C0                 5826 	.db #0xC0
   1755 7C                 5827 	.db #0x7C
   1756 7C                 5828 	.db #0x7C
   1757 06                 5829 	.db #0x06
   1758 06                 5830 	.db #0x06
   1759 FC                 5831 	.db #0xFC
   175A FC                 5832 	.db #0xFC
   175B 00                 5833 	.db #0x00
   175C 00                 5834 	.db #0x00
   175D 7C                 5835 	.db #0x7C
   175E 7C                 5836 	.db #0x7C
   175F C6                 5837 	.db #0xC6
   1760 C6                 5838 	.db #0xC6
   1761 C0                 5839 	.db #0xC0
   1762 C0                 5840 	.db #0xC0
   1763 7C                 5841 	.db #0x7C
   1764 7C                 5842 	.db #0x7C
   1765 06                 5843 	.db #0x06
   1766 06                 5844 	.db #0x06
   1767 C6                 5845 	.db #0xC6
   1768 C6                 5846 	.db #0xC6
   1769 7C                 5847 	.db #0x7C
   176A 7C                 5848 	.db #0x7C
   176B 00                 5849 	.db #0x00
   176C 00                 5850 	.db #0x00
   176D 18                 5851 	.db #0x18
   176E 18                 5852 	.db #0x18
   176F 18                 5853 	.db #0x18
   1770 18                 5854 	.db #0x18
   1771 18                 5855 	.db #0x18
   1772 18                 5856 	.db #0x18
   1773 7E                 5857 	.db #0x7E
   1774 7E                 5858 	.db #0x7E
   1775 18                 5859 	.db #0x18
   1776 18                 5860 	.db #0x18
   1777 18                 5861 	.db #0x18
   1778 18                 5862 	.db #0x18
   1779 18                 5863 	.db #0x18
   177A 18                 5864 	.db #0x18
   177B 00                 5865 	.db #0x00
   177C 00                 5866 	.db #0x00
   177D 00                 5867 	.db #0x00
   177E 00                 5868 	.db #0x00
   177F 00                 5869 	.db #0x00
   1780 00                 5870 	.db #0x00
   1781 7C                 5871 	.db #0x7C
   1782 7C                 5872 	.db #0x7C
   1783 06                 5873 	.db #0x06
   1784 06                 5874 	.db #0x06
   1785 7E                 5875 	.db #0x7E
   1786 7E                 5876 	.db #0x7E
   1787 C6                 5877 	.db #0xC6
   1788 C6                 5878 	.db #0xC6
   1789 7E                 5879 	.db #0x7E
   178A 7E                 5880 	.db #0x7E
   178B 00                 5881 	.db #0x00
   178C 00                 5882 	.db #0x00
   178D 00                 5883 	.db #0x00
   178E 00                 5884 	.db #0x00
   178F 00                 5885 	.db #0x00
   1790 00                 5886 	.db #0x00
   1791 DC                 5887 	.db #0xDC
   1792 DC                 5888 	.db #0xDC
   1793 E0                 5889 	.db #0xE0
   1794 E0                 5890 	.db #0xE0
   1795 C0                 5891 	.db #0xC0
   1796 C0                 5892 	.db #0xC0
   1797 C0                 5893 	.db #0xC0
   1798 C0                 5894 	.db #0xC0
   1799 C0                 5895 	.db #0xC0
   179A C0                 5896 	.db #0xC0
   179B 00                 5897 	.db #0x00
   179C 00                 5898 	.db #0x00
   179D 18                 5899 	.db #0x18
   179E 18                 5900 	.db #0x18
   179F 18                 5901 	.db #0x18
   17A0 18                 5902 	.db #0x18
   17A1 18                 5903 	.db #0x18
   17A2 18                 5904 	.db #0x18
   17A3 7E                 5905 	.db #0x7E
   17A4 7E                 5906 	.db #0x7E
   17A5 18                 5907 	.db #0x18
   17A6 18                 5908 	.db #0x18
   17A7 18                 5909 	.db #0x18
   17A8 18                 5910 	.db #0x18
   17A9 18                 5911 	.db #0x18
   17AA 18                 5912 	.db #0x18
   17AB                    5913 _By:
   17AB 00                 5914 	.db #0x00
   17AC 00                 5915 	.db #0x00
   17AD 78                 5916 	.db #0x78
   17AE 78                 5917 	.db #0x78
   17AF CC                 5918 	.db #0xCC
   17B0 CC                 5919 	.db #0xCC
   17B1 0C                 5920 	.db #0x0C
   17B2 0C                 5921 	.db #0x0C
   17B3 38                 5922 	.db #0x38
   17B4 38                 5923 	.db #0x38
   17B5 60                 5924 	.db #0x60
   17B6 60                 5925 	.db #0x60
   17B7 CC                 5926 	.db #0xCC
   17B8 CC                 5927 	.db #0xCC
   17B9 FC                 5928 	.db #0xFC
   17BA FC                 5929 	.db #0xFC
   17BB 00                 5930 	.db #0x00
   17BC 00                 5931 	.db #0x00
   17BD 7C                 5932 	.db #0x7C
   17BE 7C                 5933 	.db #0x7C
   17BF C6                 5934 	.db #0xC6
   17C0 C6                 5935 	.db #0xC6
   17C1 CE                 5936 	.db #0xCE
   17C2 CE                 5937 	.db #0xCE
   17C3 DE                 5938 	.db #0xDE
   17C4 DE                 5939 	.db #0xDE
   17C5 F6                 5940 	.db #0xF6
   17C6 F6                 5941 	.db #0xF6
   17C7 E6                 5942 	.db #0xE6
   17C8 E6                 5943 	.db #0xE6
   17C9 7C                 5944 	.db #0x7C
   17CA 7C                 5945 	.db #0x7C
   17CB 00                 5946 	.db #0x00
   17CC 00                 5947 	.db #0x00
   17CD 18                 5948 	.db #0x18
   17CE 18                 5949 	.db #0x18
   17CF 38                 5950 	.db #0x38
   17D0 38                 5951 	.db #0x38
   17D1 18                 5952 	.db #0x18
   17D2 18                 5953 	.db #0x18
   17D3 18                 5954 	.db #0x18
   17D4 18                 5955 	.db #0x18
   17D5 18                 5956 	.db #0x18
   17D6 18                 5957 	.db #0x18
   17D7 18                 5958 	.db #0x18
   17D8 18                 5959 	.db #0x18
   17D9 7E                 5960 	.db #0x7E
   17DA 7E                 5961 	.db #0x7E
   17DB 00                 5962 	.db #0x00
   17DC 00                 5963 	.db #0x00
   17DD FC                 5964 	.db #0xFC
   17DE FC                 5965 	.db #0xFC
   17DF CC                 5966 	.db #0xCC
   17E0 CC                 5967 	.db #0xCC
   17E1 0C                 5968 	.db #0x0C
   17E2 0C                 5969 	.db #0x0C
   17E3 18                 5970 	.db #0x18
   17E4 18                 5971 	.db #0x18
   17E5 30                 5972 	.db #0x30
   17E6 30                 5973 	.db #0x30
   17E7 30                 5974 	.db #0x30
   17E8 30                 5975 	.db #0x30
   17E9 30                 5976 	.db #0x30
   17EA 30                 5977 	.db #0x30
   17EB 3E                 5978 	.db #0x3E
   17EC 3E                 5979 	.db #0x3E
   17ED 0C                 5980 	.db #0x0C
   17EE 0C                 5981 	.db #0x0C
   17EF 0C                 5982 	.db #0x0C
   17F0 0C                 5983 	.db #0x0C
   17F1 0C                 5984 	.db #0x0C
   17F2 0C                 5985 	.db #0x0C
   17F3 0C                 5986 	.db #0x0C
   17F4 0C                 5987 	.db #0x0C
   17F5 CC                 5988 	.db #0xCC
   17F6 CC                 5989 	.db #0xCC
   17F7 CC                 5990 	.db #0xCC
   17F8 CC                 5991 	.db #0xCC
   17F9 78                 5992 	.db #0x78
   17FA 78                 5993 	.db #0x78
   17FB 00                 5994 	.db #0x00
   17FC 00                 5995 	.db #0x00
   17FD 00                 5996 	.db #0x00
   17FE 00                 5997 	.db #0x00
   17FF C6                 5998 	.db #0xC6
   1800 C6                 5999 	.db #0xC6
   1801 C6                 6000 	.db #0xC6
   1802 C6                 6001 	.db #0xC6
   1803 C6                 6002 	.db #0xC6
   1804 C6                 6003 	.db #0xC6
   1805 C6                 6004 	.db #0xC6
   1806 C6                 6005 	.db #0xC6
   1807 C6                 6006 	.db #0xC6
   1808 C6                 6007 	.db #0xC6
   1809 7B                 6008 	.db #0x7B
   180A 7B                 6009 	.db #0x7B
   180B 70                 6010 	.db #0x70
   180C 70                 6011 	.db #0x70
   180D 30                 6012 	.db #0x30
   180E 30                 6013 	.db #0x30
   180F 30                 6014 	.db #0x30
   1810 30                 6015 	.db #0x30
   1811 30                 6016 	.db #0x30
   1812 30                 6017 	.db #0x30
   1813 30                 6018 	.db #0x30
   1814 30                 6019 	.db #0x30
   1815 30                 6020 	.db #0x30
   1816 30                 6021 	.db #0x30
   1817 30                 6022 	.db #0x30
   1818 30                 6023 	.db #0x30
   1819 78                 6024 	.db #0x78
   181A 78                 6025 	.db #0x78
   181B 00                 6026 	.db #0x00
   181C 00                 6027 	.db #0x00
   181D 18                 6028 	.db #0x18
   181E 18                 6029 	.db #0x18
   181F 00                 6030 	.db #0x00
   1820 00                 6031 	.db #0x00
   1821 38                 6032 	.db #0x38
   1822 38                 6033 	.db #0x38
   1823 18                 6034 	.db #0x18
   1824 18                 6035 	.db #0x18
   1825 18                 6036 	.db #0x18
   1826 18                 6037 	.db #0x18
   1827 18                 6038 	.db #0x18
   1828 18                 6039 	.db #0x18
   1829 3C                 6040 	.db #0x3C
   182A 3C                 6041 	.db #0x3C
   182B 00                 6042 	.db #0x00
   182C 00                 6043 	.db #0x00
   182D 00                 6044 	.db #0x00
   182E 00                 6045 	.db #0x00
   182F 00                 6046 	.db #0x00
   1830 00                 6047 	.db #0x00
   1831 78                 6048 	.db #0x78
   1832 78                 6049 	.db #0x78
   1833 CC                 6050 	.db #0xCC
   1834 CC                 6051 	.db #0xCC
   1835 FC                 6052 	.db #0xFC
   1836 FC                 6053 	.db #0xFC
   1837 C0                 6054 	.db #0xC0
   1838 C0                 6055 	.db #0xC0
   1839 78                 6056 	.db #0x78
   183A 78                 6057 	.db #0x78
   183B 00                 6058 	.db #0x00
   183C 00                 6059 	.db #0x00
   183D 00                 6060 	.db #0x00
   183E 00                 6061 	.db #0x00
   183F 00                 6062 	.db #0x00
   1840 00                 6063 	.db #0x00
   1841 F8                 6064 	.db #0xF8
   1842 F8                 6065 	.db #0xF8
   1843 CC                 6066 	.db #0xCC
   1844 CC                 6067 	.db #0xCC
   1845 CC                 6068 	.db #0xCC
   1846 CC                 6069 	.db #0xCC
   1847 CC                 6070 	.db #0xCC
   1848 CC                 6071 	.db #0xCC
   1849 CC                 6072 	.db #0xCC
   184A CC                 6073 	.db #0xCC
   184B 00                 6074 	.db #0x00
   184C 00                 6075 	.db #0x00
   184D C6                 6076 	.db #0xC6
   184E C6                 6077 	.db #0xC6
   184F EE                 6078 	.db #0xEE
   1850 EE                 6079 	.db #0xEE
   1851 FE                 6080 	.db #0xFE
   1852 FE                 6081 	.db #0xFE
   1853 FE                 6082 	.db #0xFE
   1854 FE                 6083 	.db #0xFE
   1855 D6                 6084 	.db #0xD6
   1856 D6                 6085 	.db #0xD6
   1857 C6                 6086 	.db #0xC6
   1858 C6                 6087 	.db #0xC6
   1859 C6                 6088 	.db #0xC6
   185A C6                 6089 	.db #0xC6
   185B 00                 6090 	.db #0x00
   185C 00                 6091 	.db #0x00
   185D 30                 6092 	.db #0x30
   185E 30                 6093 	.db #0x30
   185F 78                 6094 	.db #0x78
   1860 78                 6095 	.db #0x78
   1861 CC                 6096 	.db #0xCC
   1862 CC                 6097 	.db #0xCC
   1863 CC                 6098 	.db #0xCC
   1864 CC                 6099 	.db #0xCC
   1865 FC                 6100 	.db #0xFC
   1866 FC                 6101 	.db #0xFC
   1867 CC                 6102 	.db #0xCC
   1868 CC                 6103 	.db #0xCC
   1869 CC                 6104 	.db #0xCC
   186A CC                 6105 	.db #0xCC
   186B 00                 6106 	.db #0x00
   186C 00                 6107 	.db #0x00
   186D 3C                 6108 	.db #0x3C
   186E 3C                 6109 	.db #0x3C
   186F 66                 6110 	.db #0x66
   1870 66                 6111 	.db #0x66
   1871 C0                 6112 	.db #0xC0
   1872 C0                 6113 	.db #0xC0
   1873 C0                 6114 	.db #0xC0
   1874 C0                 6115 	.db #0xC0
   1875 CE                 6116 	.db #0xCE
   1876 CE                 6117 	.db #0xCE
   1877 66                 6118 	.db #0x66
   1878 66                 6119 	.db #0x66
   1879 3E                 6120 	.db #0x3E
   187A 3E                 6121 	.db #0x3E
   187B 00                 6122 	.db #0x00
   187C 00                 6123 	.db #0x00
   187D C6                 6124 	.db #0xC6
   187E C6                 6125 	.db #0xC6
   187F E6                 6126 	.db #0xE6
   1880 E6                 6127 	.db #0xE6
   1881 F6                 6128 	.db #0xF6
   1882 F6                 6129 	.db #0xF6
   1883 DE                 6130 	.db #0xDE
   1884 DE                 6131 	.db #0xDE
   1885 CE                 6132 	.db #0xCE
   1886 CE                 6133 	.db #0xCE
   1887 C6                 6134 	.db #0xC6
   1888 C6                 6135 	.db #0xC6
   1889 C6                 6136 	.db #0xC6
   188A C6                 6137 	.db #0xC6
   188B 00                 6138 	.db #0x00
   188C 00                 6139 	.db #0x00
   188D 3C                 6140 	.db #0x3C
   188E 3C                 6141 	.db #0x3C
   188F 18                 6142 	.db #0x18
   1890 18                 6143 	.db #0x18
   1891 18                 6144 	.db #0x18
   1892 18                 6145 	.db #0x18
   1893 18                 6146 	.db #0x18
   1894 18                 6147 	.db #0x18
   1895 18                 6148 	.db #0x18
   1896 18                 6149 	.db #0x18
   1897 18                 6150 	.db #0x18
   1898 18                 6151 	.db #0x18
   1899 3C                 6152 	.db #0x3C
   189A 3C                 6153 	.db #0x3C
   189B 00                 6154 	.db #0x00
   189C 00                 6155 	.db #0x00
   189D C6                 6156 	.db #0xC6
   189E C6                 6157 	.db #0xC6
   189F E6                 6158 	.db #0xE6
   18A0 E6                 6159 	.db #0xE6
   18A1 F6                 6160 	.db #0xF6
   18A2 F6                 6161 	.db #0xF6
   18A3 DE                 6162 	.db #0xDE
   18A4 DE                 6163 	.db #0xDE
   18A5 CE                 6164 	.db #0xCE
   18A6 CE                 6165 	.db #0xCE
   18A7 C6                 6166 	.db #0xC6
   18A8 C6                 6167 	.db #0xC6
   18A9 C6                 6168 	.db #0xC6
   18AA C6                 6169 	.db #0xC6
   18AB                    6170 _textIcon:
   18AB 00                 6171 	.db #0x00
   18AC 00                 6172 	.db #0x00
   18AD 00                 6173 	.db #0x00
   18AE 00                 6174 	.db #0x00
   18AF 00                 6175 	.db #0x00
   18B0 00                 6176 	.db #0x00
   18B1 7E                 6177 	.db #0x7E
   18B2 7E                 6178 	.db #0x7E
   18B3 7E                 6179 	.db #0x7E
   18B4 7E                 6180 	.db #0x7E
   18B5 3C                 6181 	.db #0x3C
   18B6 3C                 6182 	.db #0x3C
   18B7 18                 6183 	.db #0x18
   18B8 18                 6184 	.db #0x18
   18B9 00                 6185 	.db #0x00
   18BA 00                 6186 	.db #0x00
   18BB                    6187 __str_0:
   18BB 20 20 20 20 20 20  6188 	.ascii "        "
        20 20
   18C3 00                 6189 	.db 0x00
   18C4                    6190 __str_1:
   18C4 2E                 6191 	.ascii "."
   18C5 00                 6192 	.db 0x00
   18C6                    6193 __str_2:
   18C6 2E                 6194 	.ascii "."
   18C7 00                 6195 	.db 0x00
   18C8                    6196 __str_3:
   18C8 2E                 6197 	.ascii "."
   18C9 00                 6198 	.db 0x00
   18CA                    6199 __str_4:
   18CA 0A                 6200 	.db 0x0A
   18CB 0A                 6201 	.db 0x0A
   18CC 20 42              6202 	.ascii " B"
   18CE 00                 6203 	.db 0x00
   18CF                    6204 __str_5:
   18CF 69                 6205 	.ascii "i"
   18D0 00                 6206 	.db 0x00
   18D1                    6207 __str_6:
   18D1 65                 6208 	.ascii "e"
   18D2 00                 6209 	.db 0x00
   18D3                    6210 __str_7:
   18D3 6E                 6211 	.ascii "n"
   18D4 00                 6212 	.db 0x00
   18D5                    6213 __str_8:
   18D5 76                 6214 	.ascii "v"
   18D6 00                 6215 	.db 0x00
   18D7                    6216 __str_9:
   18D7 65                 6217 	.ascii "e"
   18D8 00                 6218 	.db 0x00
   18D9                    6219 __str_10:
   18D9 6E                 6220 	.ascii "n"
   18DA 00                 6221 	.db 0x00
   18DB                    6222 __str_11:
   18DB 75                 6223 	.ascii "u"
   18DC 00                 6224 	.db 0x00
   18DD                    6225 __str_12:
   18DD 65                 6226 	.ascii "e"
   18DE 00                 6227 	.db 0x00
   18DF                    6228 __str_13:
   18DF 20                 6229 	.ascii " "
   18E0 00                 6230 	.db 0x00
   18E1                    6231 __str_14:
   18E1 6D                 6232 	.ascii "m"
   18E2 00                 6233 	.db 0x00
   18E3                    6234 __str_15:
   18E3 6F                 6235 	.ascii "o"
   18E4 00                 6236 	.db 0x00
   18E5                    6237 __str_16:
   18E5 6E                 6238 	.ascii "n"
   18E6 00                 6239 	.db 0x00
   18E7                    6240 __str_17:
   18E7 20                 6241 	.ascii " "
   18E8 00                 6242 	.db 0x00
   18E9                    6243 __str_18:
   18E9 0A                 6244 	.db 0x0A
   18EA 0A                 6245 	.db 0x0A
   18EB 20                 6246 	.ascii " "
   18EC 00                 6247 	.db 0x00
   18ED                    6248 __str_19:
   18ED 65                 6249 	.ascii "e"
   18EE 00                 6250 	.db 0x00
   18EF                    6251 __str_20:
   18EF 6E                 6252 	.ascii "n"
   18F0 00                 6253 	.db 0x00
   18F1                    6254 __str_21:
   18F1 66                 6255 	.ascii "f"
   18F2 00                 6256 	.db 0x00
   18F3                    6257 __str_22:
   18F3 61                 6258 	.ascii "a"
   18F4 00                 6259 	.db 0x00
   18F5                    6260 __str_23:
   18F5 6E                 6261 	.ascii "n"
   18F6 00                 6262 	.db 0x00
   18F7                    6263 __str_24:
   18F7 74                 6264 	.ascii "t"
   18F8 00                 6265 	.db 0x00
   18F9                    6266 __str_25:
   18F9 2E                 6267 	.ascii "."
   18FA 00                 6268 	.db 0x00
   18FB                    6269 __str_26:
   18FB 20                 6270 	.ascii " "
   18FC 00                 6271 	.db 0x00
   18FD                    6272 __str_27:
   18FD 45                 6273 	.ascii "E"
   18FE 00                 6274 	.db 0x00
   18FF                    6275 __str_28:
   18FF 73                 6276 	.ascii "s"
   1900 00                 6277 	.db 0x00
   1901                    6278 __str_29:
   1901 2D                 6279 	.ascii "-"
   1902 00                 6280 	.db 0x00
   1903                    6281 __str_30:
   1903 74                 6282 	.ascii "t"
   1904 00                 6283 	.db 0x00
   1905                    6284 __str_31:
   1905 75                 6285 	.ascii "u"
   1906 00                 6286 	.db 0x00
   1907                    6287 __str_32:
   1907 0A                 6288 	.db 0x0A
   1908 0A                 6289 	.db 0x0A
   1909 20                 6290 	.ascii " "
   190A 00                 6291 	.db 0x00
   190B                    6292 __str_33:
   190B 70                 6293 	.ascii "p"
   190C 00                 6294 	.db 0x00
   190D                    6295 __str_34:
   190D 72                 6296 	.ascii "r"
   190E 00                 6297 	.db 0x00
   190F                    6298 __str_35:
   190F 65                 6299 	.ascii "e"
   1910 00                 6300 	.db 0x00
   1911                    6301 __str_36:
   1911 74                 6302 	.ascii "t"
   1912 00                 6303 	.db 0x00
   1913                    6304 __str_37:
   1913 73                 6305 	.ascii "s"
   1914 00                 6306 	.db 0x00
   1915                    6307 __str_38:
   1915 20                 6308 	.ascii " "
   1916 00                 6309 	.db 0x00
   1917                    6310 __str_39:
   1917 61                 6311 	.ascii "a"
   1918 00                 6312 	.db 0x00
   1919                    6313 __str_40:
   1919 20                 6314 	.ascii " "
   191A 00                 6315 	.db 0x00
   191B                    6316 __str_41:
   191B 61                 6317 	.ascii "a"
   191C 00                 6318 	.db 0x00
   191D                    6319 __str_42:
   191D 66                 6320 	.ascii "f"
   191E 00                 6321 	.db 0x00
   191F                    6322 __str_43:
   191F 66                 6323 	.ascii "f"
   1920 00                 6324 	.db 0x00
   1921                    6325 __str_44:
   1921 72                 6326 	.ascii "r"
   1922 00                 6327 	.db 0x00
   1923                    6328 __str_45:
   1923 6F                 6329 	.ascii "o"
   1924 00                 6330 	.db 0x00
   1925                    6331 __str_46:
   1925 6E                 6332 	.ascii "n"
   1926 00                 6333 	.db 0x00
   1927                    6334 __str_47:
   1927 74                 6335 	.ascii "t"
   1928 00                 6336 	.db 0x00
   1929                    6337 __str_48:
   1929 65                 6338 	.ascii "e"
   192A 00                 6339 	.db 0x00
   192B                    6340 __str_49:
   192B 72                 6341 	.ascii "r"
   192C 00                 6342 	.db 0x00
   192D                    6343 __str_50:
   192D 0A                 6344 	.db 0x0A
   192E 0A                 6345 	.db 0x0A
   192F 20                 6346 	.ascii " "
   1930 00                 6347 	.db 0x00
   1931                    6348 __str_51:
   1931 6C                 6349 	.ascii "l"
   1932 00                 6350 	.db 0x00
   1933                    6351 __str_52:
   1933 65                 6352 	.ascii "e"
   1934 00                 6353 	.db 0x00
   1935                    6354 __str_53:
   1935 20                 6355 	.ascii " "
   1936 00                 6356 	.db 0x00
   1937                    6357 __str_54:
   1937 73                 6358 	.ascii "s"
   1938 00                 6359 	.db 0x00
   1939                    6360 __str_55:
   1939 69                 6361 	.ascii "i"
   193A 00                 6362 	.db 0x00
   193B                    6363 __str_56:
   193B 6C                 6364 	.ascii "l"
   193C 00                 6365 	.db 0x00
   193D                    6366 __str_57:
   193D 65                 6367 	.ascii "e"
   193E 00                 6368 	.db 0x00
   193F                    6369 __str_58:
   193F 6E                 6370 	.ascii "n"
   1940 00                 6371 	.db 0x00
   1941                    6372 __str_59:
   1941 63                 6373 	.ascii "c"
   1942 00                 6374 	.db 0x00
   1943                    6375 __str_60:
   1943 65                 6376 	.ascii "e"
   1944 00                 6377 	.db 0x00
   1945                    6378 __str_61:
   1945 3F                 6379 	.ascii "?"
   1946 00                 6380 	.db 0x00
   1947                    6381 __str_62:
   1947 0A                 6382 	.db 0x0A
   1948 0A                 6383 	.db 0x0A
   1949 20                 6384 	.ascii " "
   194A 00                 6385 	.db 0x00
   194B                    6386 __str_63:
   194B 41                 6387 	.ascii "A"
   194C 00                 6388 	.db 0x00
   194D                    6389 __str_64:
   194D 20                 6390 	.ascii " "
   194E 00                 6391 	.db 0x00
   194F                    6392 __str_65:
   194F 6E                 6393 	.ascii "n"
   1950 00                 6394 	.db 0x00
   1951                    6395 __str_66:
   1951 65                 6396 	.ascii "e"
   1952 00                 6397 	.db 0x00
   1953                    6398 __str_67:
   1953 20                 6399 	.ascii " "
   1954 00                 6400 	.db 0x00
   1955                    6401 __str_68:
   1955 72                 6402 	.ascii "r"
   1956 00                 6403 	.db 0x00
   1957                    6404 __str_69:
   1957 69                 6405 	.ascii "i"
   1958 00                 6406 	.db 0x00
   1959                    6407 __str_70:
   1959 65                 6408 	.ascii "e"
   195A 00                 6409 	.db 0x00
   195B                    6410 __str_71:
   195B 6E                 6411 	.ascii "n"
   195C 00                 6412 	.db 0x00
   195D                    6413 __str_72:
   195D 20                 6414 	.ascii " "
   195E 00                 6415 	.db 0x00
   195F                    6416 __str_73:
   195F 65                 6417 	.ascii "e"
   1960 00                 6418 	.db 0x00
   1961                    6419 __str_74:
   1961 6E                 6420 	.ascii "n"
   1962 00                 6421 	.db 0x00
   1963                    6422 __str_75:
   1963 74                 6423 	.ascii "t"
   1964 00                 6424 	.db 0x00
   1965                    6425 __str_76:
   1965 65                 6426 	.ascii "e"
   1966 00                 6427 	.db 0x00
   1967                    6428 __str_77:
   1967 6E                 6429 	.ascii "n"
   1968 00                 6430 	.db 0x00
   1969                    6431 __str_78:
   1969 64                 6432 	.ascii "d"
   196A 00                 6433 	.db 0x00
   196B                    6434 __str_79:
   196B 72                 6435 	.ascii "r"
   196C 00                 6436 	.db 0x00
   196D                    6437 __str_80:
   196D 65                 6438 	.ascii "e"
   196E 00                 6439 	.db 0x00
   196F                    6440 __str_81:
   196F 0A                 6441 	.db 0x0A
   1970 0A                 6442 	.db 0x0A
   1971 20                 6443 	.ascii " "
   1972 00                 6444 	.db 0x00
   1973                    6445 __str_82:
   1973 73                 6446 	.ascii "s"
   1974 00                 6447 	.db 0x00
   1975                    6448 __str_83:
   1975 61                 6449 	.ascii "a"
   1976 00                 6450 	.db 0x00
   1977                    6451 __str_84:
   1977 75                 6452 	.ascii "u"
   1978 00                 6453 	.db 0x00
   1979                    6454 __str_85:
   1979 66                 6455 	.ascii "f"
   197A 00                 6456 	.db 0x00
   197B                    6457 __str_86:
   197B 20                 6458 	.ascii " "
   197C 00                 6459 	.db 0x00
   197D                    6460 __str_87:
   197D 70                 6461 	.ascii "p"
   197E 00                 6462 	.db 0x00
   197F                    6463 __str_88:
   197F 65                 6464 	.ascii "e"
   1980 00                 6465 	.db 0x00
   1981                    6466 __str_89:
   1981 75                 6467 	.ascii "u"
   1982 00                 6468 	.db 0x00
   1983                    6469 __str_90:
   1983 74                 6470 	.ascii "t"
   1984 00                 6471 	.db 0x00
   1985                    6472 __str_91:
   1985 20                 6473 	.ascii " "
   1986 00                 6474 	.db 0x00
   1987                    6475 __str_92:
   1987 65                 6476 	.ascii "e"
   1988 00                 6477 	.db 0x00
   1989                    6478 __str_93:
   1989 74                 6479 	.ascii "t"
   198A 00                 6480 	.db 0x00
   198B                    6481 __str_94:
   198B 72                 6482 	.ascii "r"
   198C 00                 6483 	.db 0x00
   198D                    6484 __str_95:
   198D 65                 6485 	.ascii "e"
   198E 00                 6486 	.db 0x00
   198F                    6487 __str_96:
   198F 0A                 6488 	.db 0x0A
   1990 0A                 6489 	.db 0x0A
   1991 20                 6490 	.ascii " "
   1992 00                 6491 	.db 0x00
   1993                    6492 __str_97:
   1993 6C                 6493 	.ascii "l"
   1994 00                 6494 	.db 0x00
   1995                    6495 __str_98:
   1995 65                 6496 	.ascii "e"
   1996 00                 6497 	.db 0x00
   1997                    6498 __str_99:
   1997 20                 6499 	.ascii " "
   1998 00                 6500 	.db 0x00
   1999                    6501 __str_100:
   1999 63                 6502 	.ascii "c"
   199A 00                 6503 	.db 0x00
   199B                    6504 __str_101:
   199B 72                 6505 	.ascii "r"
   199C 00                 6506 	.db 0x00
   199D                    6507 __str_102:
   199D 69                 6508 	.ascii "i"
   199E 00                 6509 	.db 0x00
   199F                    6510 __str_103:
   199F 20                 6511 	.ascii " "
   19A0 00                 6512 	.db 0x00
   19A1                    6513 __str_104:
   19A1 64                 6514 	.ascii "d"
   19A2 00                 6515 	.db 0x00
   19A3                    6516 __str_105:
   19A3 65                 6517 	.ascii "e"
   19A4 00                 6518 	.db 0x00
   19A5                    6519 __str_106:
   19A5 20                 6520 	.ascii " "
   19A6 00                 6521 	.db 0x00
   19A7                    6522 __str_107:
   19A7 74                 6523 	.ascii "t"
   19A8 00                 6524 	.db 0x00
   19A9                    6525 __str_108:
   19A9 6F                 6526 	.ascii "o"
   19AA 00                 6527 	.db 0x00
   19AB                    6528 __str_109:
   19AB 6E                 6529 	.ascii "n"
   19AC 00                 6530 	.db 0x00
   19AD                    6531 __str_110:
   19AD 20                 6532 	.ascii " "
   19AE 00                 6533 	.db 0x00
   19AF                    6534 __str_111:
   19AF 61                 6535 	.ascii "a"
   19B0 00                 6536 	.db 0x00
   19B1                    6537 __str_112:
   19B1 6D                 6538 	.ascii "m"
   19B2 00                 6539 	.db 0x00
   19B3                    6540 __str_113:
   19B3 65                 6541 	.ascii "e"
   19B4 00                 6542 	.db 0x00
   19B5                    6543 __str_114:
   19B5 3F                 6544 	.ascii "?"
   19B6 00                 6545 	.db 0x00
                           6546 ;	IncludeCustom/MessageIntro.c 236
                           6547 ;	genLabel
                           6548 ;	genFunction
                           6549 ;	---------------------------------
                           6550 ; Function messageIntroPart2
                           6551 ; ---------------------------------
   19B7                    6552 ___messageIntroPart2_start:
   19B7                    6553 _messageIntroPart2:
                           6554 	
                           6555 ;	IncludeCustom/MessageIntro.c 238
                           6556 ;	genIpush
                           6557 ; _saveRegsForCall: sendSetSize: 0 deInUse: 0 bcInUse: 0 deSending: 0
   19B7 21 A4 1E           6558 	ld	hl,#__str_115
   19BA E5                 6559 	push	hl
                           6560 ;	genCall
   19BB CD 00 00           6561 	call	_printf
   19BE E8 02              6562 	lda	sp,2(sp)
                           6563 ;	IncludeCustom/MessageIntro.c 239
                           6564 ;	genIpush
                           6565 ; _saveRegsForCall: sendSetSize: 0 deInUse: 0 bcInUse: 0 deSending: 0
   19C0 21 64 00           6566 	ld	hl,#0x0064
   19C3 E5                 6567 	push	hl
                           6568 ;	genCall
   19C4 CD 00 00           6569 	call	_delay
   19C7 E8 02              6570 	lda	sp,2(sp)
                           6571 ;	IncludeCustom/MessageIntro.c 240
                           6572 ;	genIpush
                           6573 ; _saveRegsForCall: sendSetSize: 0 deInUse: 0 bcInUse: 0 deSending: 0
   19C9 21 AA 1E           6574 	ld	hl,#__str_116
   19CC E5                 6575 	push	hl
                           6576 ;	genCall
   19CD CD 00 00           6577 	call	_printf
   19D0 E8 02              6578 	lda	sp,2(sp)
                           6579 ;	IncludeCustom/MessageIntro.c 241
                           6580 ;	genIpush
                           6581 ; _saveRegsForCall: sendSetSize: 0 deInUse: 0 bcInUse: 0 deSending: 0
   19D2 21 64 00           6582 	ld	hl,#0x0064
   19D5 E5                 6583 	push	hl
                           6584 ;	genCall
   19D6 CD 00 00           6585 	call	_delay
   19D9 E8 02              6586 	lda	sp,2(sp)
                           6587 ;	IncludeCustom/MessageIntro.c 242
                           6588 ;	genIpush
                           6589 ; _saveRegsForCall: sendSetSize: 0 deInUse: 0 bcInUse: 0 deSending: 0
   19DB 21 AC 1E           6590 	ld	hl,#__str_117
   19DE E5                 6591 	push	hl
                           6592 ;	genCall
   19DF CD 00 00           6593 	call	_printf
   19E2 E8 02              6594 	lda	sp,2(sp)
                           6595 ;	IncludeCustom/MessageIntro.c 243
                           6596 ;	genIpush
                           6597 ; _saveRegsForCall: sendSetSize: 0 deInUse: 0 bcInUse: 0 deSending: 0
   19E4 21 64 00           6598 	ld	hl,#0x0064
   19E7 E5                 6599 	push	hl
                           6600 ;	genCall
   19E8 CD 00 00           6601 	call	_delay
   19EB E8 02              6602 	lda	sp,2(sp)
                           6603 ;	IncludeCustom/MessageIntro.c 244
                           6604 ;	genIpush
                           6605 ; _saveRegsForCall: sendSetSize: 0 deInUse: 0 bcInUse: 0 deSending: 0
   19ED 21 AE 1E           6606 	ld	hl,#__str_118
   19F0 E5                 6607 	push	hl
                           6608 ;	genCall
   19F1 CD 00 00           6609 	call	_printf
   19F4 E8 02              6610 	lda	sp,2(sp)
                           6611 ;	IncludeCustom/MessageIntro.c 245
                           6612 ;	genIpush
                           6613 ; _saveRegsForCall: sendSetSize: 0 deInUse: 0 bcInUse: 0 deSending: 0
   19F6 21 BC 02           6614 	ld	hl,#0x02BC
   19F9 E5                 6615 	push	hl
                           6616 ;	genCall
   19FA CD 00 00           6617 	call	_delay
   19FD E8 02              6618 	lda	sp,2(sp)
                           6619 ;	IncludeCustom/MessageIntro.c 246
                           6620 ;	genIpush
                           6621 ; _saveRegsForCall: sendSetSize: 0 deInUse: 0 bcInUse: 0 deSending: 0
   19FF 21 B0 1E           6622 	ld	hl,#__str_119
   1A02 E5                 6623 	push	hl
                           6624 ;	genCall
   1A03 CD 00 00           6625 	call	_printf
   1A06 E8 02              6626 	lda	sp,2(sp)
                           6627 ;	IncludeCustom/MessageIntro.c 247
                           6628 ;	genIpush
                           6629 ; _saveRegsForCall: sendSetSize: 0 deInUse: 0 bcInUse: 0 deSending: 0
   1A08 21 64 00           6630 	ld	hl,#0x0064
   1A0B E5                 6631 	push	hl
                           6632 ;	genCall
   1A0C CD 00 00           6633 	call	_delay
   1A0F E8 02              6634 	lda	sp,2(sp)
                           6635 ;	IncludeCustom/MessageIntro.c 248
                           6636 ;	genIpush
                           6637 ; _saveRegsForCall: sendSetSize: 0 deInUse: 0 bcInUse: 0 deSending: 0
   1A11 21 B2 1E           6638 	ld	hl,#__str_120
   1A14 E5                 6639 	push	hl
                           6640 ;	genCall
   1A15 CD 00 00           6641 	call	_printf
   1A18 E8 02              6642 	lda	sp,2(sp)
                           6643 ;	IncludeCustom/MessageIntro.c 249
                           6644 ;	genIpush
                           6645 ; _saveRegsForCall: sendSetSize: 0 deInUse: 0 bcInUse: 0 deSending: 0
   1A1A 21 64 00           6646 	ld	hl,#0x0064
   1A1D E5                 6647 	push	hl
                           6648 ;	genCall
   1A1E CD 00 00           6649 	call	_delay
   1A21 E8 02              6650 	lda	sp,2(sp)
                           6651 ;	IncludeCustom/MessageIntro.c 250
                           6652 ;	genIpush
                           6653 ; _saveRegsForCall: sendSetSize: 0 deInUse: 0 bcInUse: 0 deSending: 0
   1A23 21 B4 1E           6654 	ld	hl,#__str_121
   1A26 E5                 6655 	push	hl
                           6656 ;	genCall
   1A27 CD 00 00           6657 	call	_printf
   1A2A E8 02              6658 	lda	sp,2(sp)
                           6659 ;	IncludeCustom/MessageIntro.c 251
                           6660 ;	genIpush
                           6661 ; _saveRegsForCall: sendSetSize: 0 deInUse: 0 bcInUse: 0 deSending: 0
   1A2C 21 64 00           6662 	ld	hl,#0x0064
   1A2F E5                 6663 	push	hl
                           6664 ;	genCall
   1A30 CD 00 00           6665 	call	_delay
   1A33 E8 02              6666 	lda	sp,2(sp)
                           6667 ;	IncludeCustom/MessageIntro.c 252
                           6668 ;	genIpush
                           6669 ; _saveRegsForCall: sendSetSize: 0 deInUse: 0 bcInUse: 0 deSending: 0
   1A35 21 B6 1E           6670 	ld	hl,#__str_122
   1A38 E5                 6671 	push	hl
                           6672 ;	genCall
   1A39 CD 00 00           6673 	call	_printf
   1A3C E8 02              6674 	lda	sp,2(sp)
                           6675 ;	IncludeCustom/MessageIntro.c 253
                           6676 ;	genIpush
                           6677 ; _saveRegsForCall: sendSetSize: 0 deInUse: 0 bcInUse: 0 deSending: 0
   1A3E 21 64 00           6678 	ld	hl,#0x0064
   1A41 E5                 6679 	push	hl
                           6680 ;	genCall
   1A42 CD 00 00           6681 	call	_delay
   1A45 E8 02              6682 	lda	sp,2(sp)
                           6683 ;	IncludeCustom/MessageIntro.c 254
                           6684 ;	genIpush
                           6685 ; _saveRegsForCall: sendSetSize: 0 deInUse: 0 bcInUse: 0 deSending: 0
   1A47 21 B8 1E           6686 	ld	hl,#__str_123
   1A4A E5                 6687 	push	hl
                           6688 ;	genCall
   1A4B CD 00 00           6689 	call	_printf
   1A4E E8 02              6690 	lda	sp,2(sp)
                           6691 ;	IncludeCustom/MessageIntro.c 255
                           6692 ;	genIpush
                           6693 ; _saveRegsForCall: sendSetSize: 0 deInUse: 0 bcInUse: 0 deSending: 0
   1A50 21 64 00           6694 	ld	hl,#0x0064
   1A53 E5                 6695 	push	hl
                           6696 ;	genCall
   1A54 CD 00 00           6697 	call	_delay
   1A57 E8 02              6698 	lda	sp,2(sp)
                           6699 ;	IncludeCustom/MessageIntro.c 256
                           6700 ;	genIpush
                           6701 ; _saveRegsForCall: sendSetSize: 0 deInUse: 0 bcInUse: 0 deSending: 0
   1A59 21 BA 1E           6702 	ld	hl,#__str_124
   1A5C E5                 6703 	push	hl
                           6704 ;	genCall
   1A5D CD 00 00           6705 	call	_printf
   1A60 E8 02              6706 	lda	sp,2(sp)
                           6707 ;	IncludeCustom/MessageIntro.c 257
                           6708 ;	genIpush
                           6709 ; _saveRegsForCall: sendSetSize: 0 deInUse: 0 bcInUse: 0 deSending: 0
   1A62 21 64 00           6710 	ld	hl,#0x0064
   1A65 E5                 6711 	push	hl
                           6712 ;	genCall
   1A66 CD 00 00           6713 	call	_delay
   1A69 E8 02              6714 	lda	sp,2(sp)
                           6715 ;	IncludeCustom/MessageIntro.c 258
                           6716 ;	genIpush
                           6717 ; _saveRegsForCall: sendSetSize: 0 deInUse: 0 bcInUse: 0 deSending: 0
   1A6B 21 BC 1E           6718 	ld	hl,#__str_125
   1A6E E5                 6719 	push	hl
                           6720 ;	genCall
   1A6F CD 00 00           6721 	call	_printf
   1A72 E8 02              6722 	lda	sp,2(sp)
                           6723 ;	IncludeCustom/MessageIntro.c 259
                           6724 ;	genIpush
                           6725 ; _saveRegsForCall: sendSetSize: 0 deInUse: 0 bcInUse: 0 deSending: 0
   1A74 21 64 00           6726 	ld	hl,#0x0064
   1A77 E5                 6727 	push	hl
                           6728 ;	genCall
   1A78 CD 00 00           6729 	call	_delay
   1A7B E8 02              6730 	lda	sp,2(sp)
                           6731 ;	IncludeCustom/MessageIntro.c 260
                           6732 ;	genIpush
                           6733 ; _saveRegsForCall: sendSetSize: 0 deInUse: 0 bcInUse: 0 deSending: 0
   1A7D 21 BE 1E           6734 	ld	hl,#__str_126
   1A80 E5                 6735 	push	hl
                           6736 ;	genCall
   1A81 CD 00 00           6737 	call	_printf
   1A84 E8 02              6738 	lda	sp,2(sp)
                           6739 ;	IncludeCustom/MessageIntro.c 261
                           6740 ;	genIpush
                           6741 ; _saveRegsForCall: sendSetSize: 0 deInUse: 0 bcInUse: 0 deSending: 0
   1A86 21 64 00           6742 	ld	hl,#0x0064
   1A89 E5                 6743 	push	hl
                           6744 ;	genCall
   1A8A CD 00 00           6745 	call	_delay
   1A8D E8 02              6746 	lda	sp,2(sp)
                           6747 ;	IncludeCustom/MessageIntro.c 262
                           6748 ;	genIpush
                           6749 ; _saveRegsForCall: sendSetSize: 0 deInUse: 0 bcInUse: 0 deSending: 0
   1A8F 21 C0 1E           6750 	ld	hl,#__str_127
   1A92 E5                 6751 	push	hl
                           6752 ;	genCall
   1A93 CD 00 00           6753 	call	_printf
   1A96 E8 02              6754 	lda	sp,2(sp)
                           6755 ;	IncludeCustom/MessageIntro.c 263
                           6756 ;	genIpush
                           6757 ; _saveRegsForCall: sendSetSize: 0 deInUse: 0 bcInUse: 0 deSending: 0
   1A98 21 64 00           6758 	ld	hl,#0x0064
   1A9B E5                 6759 	push	hl
                           6760 ;	genCall
   1A9C CD 00 00           6761 	call	_delay
   1A9F E8 02              6762 	lda	sp,2(sp)
                           6763 ;	IncludeCustom/MessageIntro.c 264
                           6764 ;	genIpush
                           6765 ; _saveRegsForCall: sendSetSize: 0 deInUse: 0 bcInUse: 0 deSending: 0
   1AA1 21 C2 1E           6766 	ld	hl,#__str_128
   1AA4 E5                 6767 	push	hl
                           6768 ;	genCall
   1AA5 CD 00 00           6769 	call	_printf
   1AA8 E8 02              6770 	lda	sp,2(sp)
                           6771 ;	IncludeCustom/MessageIntro.c 265
                           6772 ;	genIpush
                           6773 ; _saveRegsForCall: sendSetSize: 0 deInUse: 0 bcInUse: 0 deSending: 0
   1AAA 21 64 00           6774 	ld	hl,#0x0064
   1AAD E5                 6775 	push	hl
                           6776 ;	genCall
   1AAE CD 00 00           6777 	call	_delay
   1AB1 E8 02              6778 	lda	sp,2(sp)
                           6779 ;	IncludeCustom/MessageIntro.c 266
                           6780 ;	genIpush
                           6781 ; _saveRegsForCall: sendSetSize: 0 deInUse: 0 bcInUse: 0 deSending: 0
   1AB3 21 C4 1E           6782 	ld	hl,#__str_129
   1AB6 E5                 6783 	push	hl
                           6784 ;	genCall
   1AB7 CD 00 00           6785 	call	_printf
   1ABA E8 02              6786 	lda	sp,2(sp)
                           6787 ;	IncludeCustom/MessageIntro.c 267
                           6788 ;	genIpush
                           6789 ; _saveRegsForCall: sendSetSize: 0 deInUse: 0 bcInUse: 0 deSending: 0
   1ABC 21 F4 01           6790 	ld	hl,#0x01F4
   1ABF E5                 6791 	push	hl
                           6792 ;	genCall
   1AC0 CD 00 00           6793 	call	_delay
   1AC3 E8 02              6794 	lda	sp,2(sp)
                           6795 ;	IncludeCustom/MessageIntro.c 268
                           6796 ;	genIpush
                           6797 ; _saveRegsForCall: sendSetSize: 0 deInUse: 0 bcInUse: 0 deSending: 0
   1AC5 21 C6 1E           6798 	ld	hl,#__str_130
   1AC8 E5                 6799 	push	hl
                           6800 ;	genCall
   1AC9 CD 00 00           6801 	call	_printf
   1ACC E8 02              6802 	lda	sp,2(sp)
                           6803 ;	IncludeCustom/MessageIntro.c 269
                           6804 ;	genIpush
                           6805 ; _saveRegsForCall: sendSetSize: 0 deInUse: 0 bcInUse: 0 deSending: 0
   1ACE 21 F4 01           6806 	ld	hl,#0x01F4
   1AD1 E5                 6807 	push	hl
                           6808 ;	genCall
   1AD2 CD 00 00           6809 	call	_delay
   1AD5 E8 02              6810 	lda	sp,2(sp)
                           6811 ;	IncludeCustom/MessageIntro.c 270
                           6812 ;	genIpush
                           6813 ; _saveRegsForCall: sendSetSize: 0 deInUse: 0 bcInUse: 0 deSending: 0
   1AD7 21 C8 1E           6814 	ld	hl,#__str_131
   1ADA E5                 6815 	push	hl
                           6816 ;	genCall
   1ADB CD 00 00           6817 	call	_printf
   1ADE E8 02              6818 	lda	sp,2(sp)
                           6819 ;	IncludeCustom/MessageIntro.c 271
                           6820 ;	genIpush
                           6821 ; _saveRegsForCall: sendSetSize: 0 deInUse: 0 bcInUse: 0 deSending: 0
   1AE0 21 CA 1E           6822 	ld	hl,#__str_132
   1AE3 E5                 6823 	push	hl
                           6824 ;	genCall
   1AE4 CD 00 00           6825 	call	_printf
   1AE7 E8 02              6826 	lda	sp,2(sp)
                           6827 ;	IncludeCustom/MessageIntro.c 272
                           6828 ;	genIpush
                           6829 ; _saveRegsForCall: sendSetSize: 0 deInUse: 0 bcInUse: 0 deSending: 0
   1AE9 21 BC 02           6830 	ld	hl,#0x02BC
   1AEC E5                 6831 	push	hl
                           6832 ;	genCall
   1AED CD 00 00           6833 	call	_delay
   1AF0 E8 02              6834 	lda	sp,2(sp)
                           6835 ;	IncludeCustom/MessageIntro.c 273
                           6836 ;	genIpush
                           6837 ; _saveRegsForCall: sendSetSize: 0 deInUse: 0 bcInUse: 0 deSending: 0
   1AF2 21 CE 1E           6838 	ld	hl,#__str_133
   1AF5 E5                 6839 	push	hl
                           6840 ;	genCall
   1AF6 CD 00 00           6841 	call	_printf
   1AF9 E8 02              6842 	lda	sp,2(sp)
                           6843 ;	IncludeCustom/MessageIntro.c 274
                           6844 ;	genIpush
                           6845 ; _saveRegsForCall: sendSetSize: 0 deInUse: 0 bcInUse: 0 deSending: 0
   1AFB 21 64 00           6846 	ld	hl,#0x0064
   1AFE E5                 6847 	push	hl
                           6848 ;	genCall
   1AFF CD 00 00           6849 	call	_delay
   1B02 E8 02              6850 	lda	sp,2(sp)
                           6851 ;	IncludeCustom/MessageIntro.c 275
                           6852 ;	genIpush
                           6853 ; _saveRegsForCall: sendSetSize: 0 deInUse: 0 bcInUse: 0 deSending: 0
   1B04 21 D0 1E           6854 	ld	hl,#__str_134
   1B07 E5                 6855 	push	hl
                           6856 ;	genCall
   1B08 CD 00 00           6857 	call	_printf
   1B0B E8 02              6858 	lda	sp,2(sp)
                           6859 ;	IncludeCustom/MessageIntro.c 276
                           6860 ;	genIpush
                           6861 ; _saveRegsForCall: sendSetSize: 0 deInUse: 0 bcInUse: 0 deSending: 0
   1B0D 21 64 00           6862 	ld	hl,#0x0064
   1B10 E5                 6863 	push	hl
                           6864 ;	genCall
   1B11 CD 00 00           6865 	call	_delay
   1B14 E8 02              6866 	lda	sp,2(sp)
                           6867 ;	IncludeCustom/MessageIntro.c 277
                           6868 ;	genIpush
                           6869 ; _saveRegsForCall: sendSetSize: 0 deInUse: 0 bcInUse: 0 deSending: 0
   1B16 21 D2 1E           6870 	ld	hl,#__str_135
   1B19 E5                 6871 	push	hl
                           6872 ;	genCall
   1B1A CD 00 00           6873 	call	_printf
   1B1D E8 02              6874 	lda	sp,2(sp)
                           6875 ;	IncludeCustom/MessageIntro.c 278
                           6876 ;	genIpush
                           6877 ; _saveRegsForCall: sendSetSize: 0 deInUse: 0 bcInUse: 0 deSending: 0
   1B1F 21 64 00           6878 	ld	hl,#0x0064
   1B22 E5                 6879 	push	hl
                           6880 ;	genCall
   1B23 CD 00 00           6881 	call	_delay
   1B26 E8 02              6882 	lda	sp,2(sp)
                           6883 ;	IncludeCustom/MessageIntro.c 279
                           6884 ;	genIpush
                           6885 ; _saveRegsForCall: sendSetSize: 0 deInUse: 0 bcInUse: 0 deSending: 0
   1B28 21 D4 1E           6886 	ld	hl,#__str_136
   1B2B E5                 6887 	push	hl
                           6888 ;	genCall
   1B2C CD 00 00           6889 	call	_printf
   1B2F E8 02              6890 	lda	sp,2(sp)
                           6891 ;	IncludeCustom/MessageIntro.c 280
                           6892 ;	genIpush
                           6893 ; _saveRegsForCall: sendSetSize: 0 deInUse: 0 bcInUse: 0 deSending: 0
   1B31 21 64 00           6894 	ld	hl,#0x0064
   1B34 E5                 6895 	push	hl
                           6896 ;	genCall
   1B35 CD 00 00           6897 	call	_delay
   1B38 E8 02              6898 	lda	sp,2(sp)
                           6899 ;	IncludeCustom/MessageIntro.c 281
                           6900 ;	genIpush
                           6901 ; _saveRegsForCall: sendSetSize: 0 deInUse: 0 bcInUse: 0 deSending: 0
   1B3A 21 D6 1E           6902 	ld	hl,#__str_137
   1B3D E5                 6903 	push	hl
                           6904 ;	genCall
   1B3E CD 00 00           6905 	call	_printf
   1B41 E8 02              6906 	lda	sp,2(sp)
                           6907 ;	IncludeCustom/MessageIntro.c 282
                           6908 ;	genIpush
                           6909 ; _saveRegsForCall: sendSetSize: 0 deInUse: 0 bcInUse: 0 deSending: 0
   1B43 21 64 00           6910 	ld	hl,#0x0064
   1B46 E5                 6911 	push	hl
                           6912 ;	genCall
   1B47 CD 00 00           6913 	call	_delay
   1B4A E8 02              6914 	lda	sp,2(sp)
                           6915 ;	IncludeCustom/MessageIntro.c 283
                           6916 ;	genIpush
                           6917 ; _saveRegsForCall: sendSetSize: 0 deInUse: 0 bcInUse: 0 deSending: 0
   1B4C 21 D8 1E           6918 	ld	hl,#__str_138
   1B4F E5                 6919 	push	hl
                           6920 ;	genCall
   1B50 CD 00 00           6921 	call	_printf
   1B53 E8 02              6922 	lda	sp,2(sp)
                           6923 ;	IncludeCustom/MessageIntro.c 284
                           6924 ;	genIpush
                           6925 ; _saveRegsForCall: sendSetSize: 0 deInUse: 0 bcInUse: 0 deSending: 0
   1B55 21 64 00           6926 	ld	hl,#0x0064
   1B58 E5                 6927 	push	hl
                           6928 ;	genCall
   1B59 CD 00 00           6929 	call	_delay
   1B5C E8 02              6930 	lda	sp,2(sp)
                           6931 ;	IncludeCustom/MessageIntro.c 285
                           6932 ;	genIpush
                           6933 ; _saveRegsForCall: sendSetSize: 0 deInUse: 0 bcInUse: 0 deSending: 0
   1B5E 21 DA 1E           6934 	ld	hl,#__str_139
   1B61 E5                 6935 	push	hl
                           6936 ;	genCall
   1B62 CD 00 00           6937 	call	_printf
   1B65 E8 02              6938 	lda	sp,2(sp)
                           6939 ;	IncludeCustom/MessageIntro.c 286
                           6940 ;	genIpush
                           6941 ; _saveRegsForCall: sendSetSize: 0 deInUse: 0 bcInUse: 0 deSending: 0
   1B67 21 64 00           6942 	ld	hl,#0x0064
   1B6A E5                 6943 	push	hl
                           6944 ;	genCall
   1B6B CD 00 00           6945 	call	_delay
   1B6E E8 02              6946 	lda	sp,2(sp)
                           6947 ;	IncludeCustom/MessageIntro.c 287
                           6948 ;	genIpush
                           6949 ; _saveRegsForCall: sendSetSize: 0 deInUse: 0 bcInUse: 0 deSending: 0
   1B70 21 DC 1E           6950 	ld	hl,#__str_140
   1B73 E5                 6951 	push	hl
                           6952 ;	genCall
   1B74 CD 00 00           6953 	call	_printf
   1B77 E8 02              6954 	lda	sp,2(sp)
                           6955 ;	IncludeCustom/MessageIntro.c 288
                           6956 ;	genIpush
                           6957 ; _saveRegsForCall: sendSetSize: 0 deInUse: 0 bcInUse: 0 deSending: 0
   1B79 21 64 00           6958 	ld	hl,#0x0064
   1B7C E5                 6959 	push	hl
                           6960 ;	genCall
   1B7D CD 00 00           6961 	call	_delay
   1B80 E8 02              6962 	lda	sp,2(sp)
                           6963 ;	IncludeCustom/MessageIntro.c 289
                           6964 ;	genIpush
                           6965 ; _saveRegsForCall: sendSetSize: 0 deInUse: 0 bcInUse: 0 deSending: 0
   1B82 21 DE 1E           6966 	ld	hl,#__str_141
   1B85 E5                 6967 	push	hl
                           6968 ;	genCall
   1B86 CD 00 00           6969 	call	_printf
   1B89 E8 02              6970 	lda	sp,2(sp)
                           6971 ;	IncludeCustom/MessageIntro.c 290
                           6972 ;	genIpush
                           6973 ; _saveRegsForCall: sendSetSize: 0 deInUse: 0 bcInUse: 0 deSending: 0
   1B8B 21 64 00           6974 	ld	hl,#0x0064
   1B8E E5                 6975 	push	hl
                           6976 ;	genCall
   1B8F CD 00 00           6977 	call	_delay
   1B92 E8 02              6978 	lda	sp,2(sp)
                           6979 ;	IncludeCustom/MessageIntro.c 291
                           6980 ;	genIpush
                           6981 ; _saveRegsForCall: sendSetSize: 0 deInUse: 0 bcInUse: 0 deSending: 0
   1B94 21 E0 1E           6982 	ld	hl,#__str_142
   1B97 E5                 6983 	push	hl
                           6984 ;	genCall
   1B98 CD 00 00           6985 	call	_printf
   1B9B E8 02              6986 	lda	sp,2(sp)
                           6987 ;	IncludeCustom/MessageIntro.c 292
                           6988 ;	genIpush
                           6989 ; _saveRegsForCall: sendSetSize: 0 deInUse: 0 bcInUse: 0 deSending: 0
   1B9D 21 64 00           6990 	ld	hl,#0x0064
   1BA0 E5                 6991 	push	hl
                           6992 ;	genCall
   1BA1 CD 00 00           6993 	call	_delay
   1BA4 E8 02              6994 	lda	sp,2(sp)
                           6995 ;	IncludeCustom/MessageIntro.c 293
                           6996 ;	genIpush
                           6997 ; _saveRegsForCall: sendSetSize: 0 deInUse: 0 bcInUse: 0 deSending: 0
   1BA6 21 E2 1E           6998 	ld	hl,#__str_143
   1BA9 E5                 6999 	push	hl
                           7000 ;	genCall
   1BAA CD 00 00           7001 	call	_printf
   1BAD E8 02              7002 	lda	sp,2(sp)
                           7003 ;	IncludeCustom/MessageIntro.c 294
                           7004 ;	genIpush
                           7005 ; _saveRegsForCall: sendSetSize: 0 deInUse: 0 bcInUse: 0 deSending: 0
   1BAF 21 64 00           7006 	ld	hl,#0x0064
   1BB2 E5                 7007 	push	hl
                           7008 ;	genCall
   1BB3 CD 00 00           7009 	call	_delay
   1BB6 E8 02              7010 	lda	sp,2(sp)
                           7011 ;	IncludeCustom/MessageIntro.c 295
                           7012 ;	genIpush
                           7013 ; _saveRegsForCall: sendSetSize: 0 deInUse: 0 bcInUse: 0 deSending: 0
   1BB8 21 E4 1E           7014 	ld	hl,#__str_144
   1BBB E5                 7015 	push	hl
                           7016 ;	genCall
   1BBC CD 00 00           7017 	call	_printf
   1BBF E8 02              7018 	lda	sp,2(sp)
                           7019 ;	IncludeCustom/MessageIntro.c 296
                           7020 ;	genIpush
                           7021 ; _saveRegsForCall: sendSetSize: 0 deInUse: 0 bcInUse: 0 deSending: 0
   1BC1 21 64 00           7022 	ld	hl,#0x0064
   1BC4 E5                 7023 	push	hl
                           7024 ;	genCall
   1BC5 CD 00 00           7025 	call	_delay
   1BC8 E8 02              7026 	lda	sp,2(sp)
                           7027 ;	IncludeCustom/MessageIntro.c 297
                           7028 ;	genIpush
                           7029 ; _saveRegsForCall: sendSetSize: 0 deInUse: 0 bcInUse: 0 deSending: 0
   1BCA 21 E6 1E           7030 	ld	hl,#__str_145
   1BCD E5                 7031 	push	hl
                           7032 ;	genCall
   1BCE CD 00 00           7033 	call	_printf
   1BD1 E8 02              7034 	lda	sp,2(sp)
                           7035 ;	IncludeCustom/MessageIntro.c 298
                           7036 ;	genIpush
                           7037 ; _saveRegsForCall: sendSetSize: 0 deInUse: 0 bcInUse: 0 deSending: 0
   1BD3 21 64 00           7038 	ld	hl,#0x0064
   1BD6 E5                 7039 	push	hl
                           7040 ;	genCall
   1BD7 CD 00 00           7041 	call	_delay
   1BDA E8 02              7042 	lda	sp,2(sp)
                           7043 ;	IncludeCustom/MessageIntro.c 299
                           7044 ;	genIpush
                           7045 ; _saveRegsForCall: sendSetSize: 0 deInUse: 0 bcInUse: 0 deSending: 0
   1BDC 21 E8 1E           7046 	ld	hl,#__str_146
   1BDF E5                 7047 	push	hl
                           7048 ;	genCall
   1BE0 CD 00 00           7049 	call	_printf
   1BE3 E8 02              7050 	lda	sp,2(sp)
                           7051 ;	IncludeCustom/MessageIntro.c 300
                           7052 ;	genIpush
                           7053 ; _saveRegsForCall: sendSetSize: 0 deInUse: 0 bcInUse: 0 deSending: 0
   1BE5 21 64 00           7054 	ld	hl,#0x0064
   1BE8 E5                 7055 	push	hl
                           7056 ;	genCall
   1BE9 CD 00 00           7057 	call	_delay
   1BEC E8 02              7058 	lda	sp,2(sp)
                           7059 ;	IncludeCustom/MessageIntro.c 301
                           7060 ;	genIpush
                           7061 ; _saveRegsForCall: sendSetSize: 0 deInUse: 0 bcInUse: 0 deSending: 0
   1BEE 21 EA 1E           7062 	ld	hl,#__str_147
   1BF1 E5                 7063 	push	hl
                           7064 ;	genCall
   1BF2 CD 00 00           7065 	call	_printf
   1BF5 E8 02              7066 	lda	sp,2(sp)
                           7067 ;	IncludeCustom/MessageIntro.c 302
                           7068 ;	genIpush
                           7069 ; _saveRegsForCall: sendSetSize: 0 deInUse: 0 bcInUse: 0 deSending: 0
   1BF7 21 64 00           7070 	ld	hl,#0x0064
   1BFA E5                 7071 	push	hl
                           7072 ;	genCall
   1BFB CD 00 00           7073 	call	_delay
   1BFE E8 02              7074 	lda	sp,2(sp)
                           7075 ;	IncludeCustom/MessageIntro.c 303
                           7076 ;	genIpush
                           7077 ; _saveRegsForCall: sendSetSize: 0 deInUse: 0 bcInUse: 0 deSending: 0
   1C00 21 EC 1E           7078 	ld	hl,#__str_148
   1C03 E5                 7079 	push	hl
                           7080 ;	genCall
   1C04 CD 00 00           7081 	call	_printf
   1C07 E8 02              7082 	lda	sp,2(sp)
                           7083 ;	IncludeCustom/MessageIntro.c 304
                           7084 ;	genIpush
                           7085 ; _saveRegsForCall: sendSetSize: 0 deInUse: 0 bcInUse: 0 deSending: 0
   1C09 21 EE 1E           7086 	ld	hl,#__str_149
   1C0C E5                 7087 	push	hl
                           7088 ;	genCall
   1C0D CD 00 00           7089 	call	_printf
   1C10 E8 02              7090 	lda	sp,2(sp)
                           7091 ;	IncludeCustom/MessageIntro.c 305
                           7092 ;	genIpush
                           7093 ; _saveRegsForCall: sendSetSize: 0 deInUse: 0 bcInUse: 0 deSending: 0
   1C12 21 BC 02           7094 	ld	hl,#0x02BC
   1C15 E5                 7095 	push	hl
                           7096 ;	genCall
   1C16 CD 00 00           7097 	call	_delay
   1C19 E8 02              7098 	lda	sp,2(sp)
                           7099 ;	IncludeCustom/MessageIntro.c 306
                           7100 ;	genIpush
                           7101 ; _saveRegsForCall: sendSetSize: 0 deInUse: 0 bcInUse: 0 deSending: 0
   1C1B 21 F2 1E           7102 	ld	hl,#__str_150
   1C1E E5                 7103 	push	hl
                           7104 ;	genCall
   1C1F CD 00 00           7105 	call	_printf
   1C22 E8 02              7106 	lda	sp,2(sp)
                           7107 ;	IncludeCustom/MessageIntro.c 307
                           7108 ;	genIpush
                           7109 ; _saveRegsForCall: sendSetSize: 0 deInUse: 0 bcInUse: 0 deSending: 0
   1C24 21 64 00           7110 	ld	hl,#0x0064
   1C27 E5                 7111 	push	hl
                           7112 ;	genCall
   1C28 CD 00 00           7113 	call	_delay
   1C2B E8 02              7114 	lda	sp,2(sp)
                           7115 ;	IncludeCustom/MessageIntro.c 308
                           7116 ;	genIpush
                           7117 ; _saveRegsForCall: sendSetSize: 0 deInUse: 0 bcInUse: 0 deSending: 0
   1C2D 21 F4 1E           7118 	ld	hl,#__str_151
   1C30 E5                 7119 	push	hl
                           7120 ;	genCall
   1C31 CD 00 00           7121 	call	_printf
   1C34 E8 02              7122 	lda	sp,2(sp)
                           7123 ;	IncludeCustom/MessageIntro.c 309
                           7124 ;	genIpush
                           7125 ; _saveRegsForCall: sendSetSize: 0 deInUse: 0 bcInUse: 0 deSending: 0
   1C36 21 64 00           7126 	ld	hl,#0x0064
   1C39 E5                 7127 	push	hl
                           7128 ;	genCall
   1C3A CD 00 00           7129 	call	_delay
   1C3D E8 02              7130 	lda	sp,2(sp)
                           7131 ;	IncludeCustom/MessageIntro.c 310
                           7132 ;	genIpush
                           7133 ; _saveRegsForCall: sendSetSize: 0 deInUse: 0 bcInUse: 0 deSending: 0
   1C3F 21 F6 1E           7134 	ld	hl,#__str_152
   1C42 E5                 7135 	push	hl
                           7136 ;	genCall
   1C43 CD 00 00           7137 	call	_printf
   1C46 E8 02              7138 	lda	sp,2(sp)
                           7139 ;	IncludeCustom/MessageIntro.c 311
                           7140 ;	genIpush
                           7141 ; _saveRegsForCall: sendSetSize: 0 deInUse: 0 bcInUse: 0 deSending: 0
   1C48 21 64 00           7142 	ld	hl,#0x0064
   1C4B E5                 7143 	push	hl
                           7144 ;	genCall
   1C4C CD 00 00           7145 	call	_delay
   1C4F E8 02              7146 	lda	sp,2(sp)
                           7147 ;	IncludeCustom/MessageIntro.c 312
                           7148 ;	genIpush
                           7149 ; _saveRegsForCall: sendSetSize: 0 deInUse: 0 bcInUse: 0 deSending: 0
   1C51 21 F8 1E           7150 	ld	hl,#__str_153
   1C54 E5                 7151 	push	hl
                           7152 ;	genCall
   1C55 CD 00 00           7153 	call	_printf
   1C58 E8 02              7154 	lda	sp,2(sp)
                           7155 ;	IncludeCustom/MessageIntro.c 313
                           7156 ;	genIpush
                           7157 ; _saveRegsForCall: sendSetSize: 0 deInUse: 0 bcInUse: 0 deSending: 0
   1C5A 21 64 00           7158 	ld	hl,#0x0064
   1C5D E5                 7159 	push	hl
                           7160 ;	genCall
   1C5E CD 00 00           7161 	call	_delay
   1C61 E8 02              7162 	lda	sp,2(sp)
                           7163 ;	IncludeCustom/MessageIntro.c 314
                           7164 ;	genIpush
                           7165 ; _saveRegsForCall: sendSetSize: 0 deInUse: 0 bcInUse: 0 deSending: 0
   1C63 21 FA 1E           7166 	ld	hl,#__str_154
   1C66 E5                 7167 	push	hl
                           7168 ;	genCall
   1C67 CD 00 00           7169 	call	_printf
   1C6A E8 02              7170 	lda	sp,2(sp)
                           7171 ;	IncludeCustom/MessageIntro.c 315
                           7172 ;	genIpush
                           7173 ; _saveRegsForCall: sendSetSize: 0 deInUse: 0 bcInUse: 0 deSending: 0
   1C6C 21 64 00           7174 	ld	hl,#0x0064
   1C6F E5                 7175 	push	hl
                           7176 ;	genCall
   1C70 CD 00 00           7177 	call	_delay
   1C73 E8 02              7178 	lda	sp,2(sp)
                           7179 ;	IncludeCustom/MessageIntro.c 316
                           7180 ;	genIpush
                           7181 ; _saveRegsForCall: sendSetSize: 0 deInUse: 0 bcInUse: 0 deSending: 0
   1C75 21 FC 1E           7182 	ld	hl,#__str_155
   1C78 E5                 7183 	push	hl
                           7184 ;	genCall
   1C79 CD 00 00           7185 	call	_printf
   1C7C E8 02              7186 	lda	sp,2(sp)
                           7187 ;	IncludeCustom/MessageIntro.c 317
                           7188 ;	genIpush
                           7189 ; _saveRegsForCall: sendSetSize: 0 deInUse: 0 bcInUse: 0 deSending: 0
   1C7E 21 64 00           7190 	ld	hl,#0x0064
   1C81 E5                 7191 	push	hl
                           7192 ;	genCall
   1C82 CD 00 00           7193 	call	_delay
   1C85 E8 02              7194 	lda	sp,2(sp)
                           7195 ;	IncludeCustom/MessageIntro.c 318
                           7196 ;	genIpush
                           7197 ; _saveRegsForCall: sendSetSize: 0 deInUse: 0 bcInUse: 0 deSending: 0
   1C87 21 FE 1E           7198 	ld	hl,#__str_156
   1C8A E5                 7199 	push	hl
                           7200 ;	genCall
   1C8B CD 00 00           7201 	call	_printf
   1C8E E8 02              7202 	lda	sp,2(sp)
                           7203 ;	IncludeCustom/MessageIntro.c 319
                           7204 ;	genIpush
                           7205 ; _saveRegsForCall: sendSetSize: 0 deInUse: 0 bcInUse: 0 deSending: 0
   1C90 21 64 00           7206 	ld	hl,#0x0064
   1C93 E5                 7207 	push	hl
                           7208 ;	genCall
   1C94 CD 00 00           7209 	call	_delay
   1C97 E8 02              7210 	lda	sp,2(sp)
                           7211 ;	IncludeCustom/MessageIntro.c 320
                           7212 ;	genIpush
                           7213 ; _saveRegsForCall: sendSetSize: 0 deInUse: 0 bcInUse: 0 deSending: 0
   1C99 21 00 1F           7214 	ld	hl,#__str_157
   1C9C E5                 7215 	push	hl
                           7216 ;	genCall
   1C9D CD 00 00           7217 	call	_printf
   1CA0 E8 02              7218 	lda	sp,2(sp)
                           7219 ;	IncludeCustom/MessageIntro.c 321
                           7220 ;	genIpush
                           7221 ; _saveRegsForCall: sendSetSize: 0 deInUse: 0 bcInUse: 0 deSending: 0
   1CA2 21 64 00           7222 	ld	hl,#0x0064
   1CA5 E5                 7223 	push	hl
                           7224 ;	genCall
   1CA6 CD 00 00           7225 	call	_delay
   1CA9 E8 02              7226 	lda	sp,2(sp)
                           7227 ;	IncludeCustom/MessageIntro.c 322
                           7228 ;	genIpush
                           7229 ; _saveRegsForCall: sendSetSize: 0 deInUse: 0 bcInUse: 0 deSending: 0
   1CAB 21 02 1F           7230 	ld	hl,#__str_158
   1CAE E5                 7231 	push	hl
                           7232 ;	genCall
   1CAF CD 00 00           7233 	call	_printf
   1CB2 E8 02              7234 	lda	sp,2(sp)
                           7235 ;	IncludeCustom/MessageIntro.c 323
                           7236 ;	genIpush
                           7237 ; _saveRegsForCall: sendSetSize: 0 deInUse: 0 bcInUse: 0 deSending: 0
   1CB4 21 64 00           7238 	ld	hl,#0x0064
   1CB7 E5                 7239 	push	hl
                           7240 ;	genCall
   1CB8 CD 00 00           7241 	call	_delay
   1CBB E8 02              7242 	lda	sp,2(sp)
                           7243 ;	IncludeCustom/MessageIntro.c 324
                           7244 ;	genIpush
                           7245 ; _saveRegsForCall: sendSetSize: 0 deInUse: 0 bcInUse: 0 deSending: 0
   1CBD 21 04 1F           7246 	ld	hl,#__str_159
   1CC0 E5                 7247 	push	hl
                           7248 ;	genCall
   1CC1 CD 00 00           7249 	call	_printf
   1CC4 E8 02              7250 	lda	sp,2(sp)
                           7251 ;	IncludeCustom/MessageIntro.c 325
                           7252 ;	genIpush
                           7253 ; _saveRegsForCall: sendSetSize: 0 deInUse: 0 bcInUse: 0 deSending: 0
   1CC6 21 64 00           7254 	ld	hl,#0x0064
   1CC9 E5                 7255 	push	hl
                           7256 ;	genCall
   1CCA CD 00 00           7257 	call	_delay
   1CCD E8 02              7258 	lda	sp,2(sp)
                           7259 ;	IncludeCustom/MessageIntro.c 326
                           7260 ;	genIpush
                           7261 ; _saveRegsForCall: sendSetSize: 0 deInUse: 0 bcInUse: 0 deSending: 0
   1CCF 21 06 1F           7262 	ld	hl,#__str_160
   1CD2 E5                 7263 	push	hl
                           7264 ;	genCall
   1CD3 CD 00 00           7265 	call	_printf
   1CD6 E8 02              7266 	lda	sp,2(sp)
                           7267 ;	IncludeCustom/MessageIntro.c 327
                           7268 ;	genIpush
                           7269 ; _saveRegsForCall: sendSetSize: 0 deInUse: 0 bcInUse: 0 deSending: 0
   1CD8 21 64 00           7270 	ld	hl,#0x0064
   1CDB E5                 7271 	push	hl
                           7272 ;	genCall
   1CDC CD 00 00           7273 	call	_delay
   1CDF E8 02              7274 	lda	sp,2(sp)
                           7275 ;	IncludeCustom/MessageIntro.c 328
                           7276 ;	genIpush
                           7277 ; _saveRegsForCall: sendSetSize: 0 deInUse: 0 bcInUse: 0 deSending: 0
   1CE1 21 08 1F           7278 	ld	hl,#__str_161
   1CE4 E5                 7279 	push	hl
                           7280 ;	genCall
   1CE5 CD 00 00           7281 	call	_printf
   1CE8 E8 02              7282 	lda	sp,2(sp)
                           7283 ;	IncludeCustom/MessageIntro.c 329
                           7284 ;	genIpush
                           7285 ; _saveRegsForCall: sendSetSize: 0 deInUse: 0 bcInUse: 0 deSending: 0
   1CEA 21 64 00           7286 	ld	hl,#0x0064
   1CED E5                 7287 	push	hl
                           7288 ;	genCall
   1CEE CD 00 00           7289 	call	_delay
   1CF1 E8 02              7290 	lda	sp,2(sp)
                           7291 ;	IncludeCustom/MessageIntro.c 330
                           7292 ;	genIpush
                           7293 ; _saveRegsForCall: sendSetSize: 0 deInUse: 0 bcInUse: 0 deSending: 0
   1CF3 21 0A 1F           7294 	ld	hl,#__str_162
   1CF6 E5                 7295 	push	hl
                           7296 ;	genCall
   1CF7 CD 00 00           7297 	call	_printf
   1CFA E8 02              7298 	lda	sp,2(sp)
                           7299 ;	IncludeCustom/MessageIntro.c 331
                           7300 ;	genIpush
                           7301 ; _saveRegsForCall: sendSetSize: 0 deInUse: 0 bcInUse: 0 deSending: 0
   1CFC 21 64 00           7302 	ld	hl,#0x0064
   1CFF E5                 7303 	push	hl
                           7304 ;	genCall
   1D00 CD 00 00           7305 	call	_delay
   1D03 E8 02              7306 	lda	sp,2(sp)
                           7307 ;	IncludeCustom/MessageIntro.c 332
                           7308 ;	genIpush
                           7309 ; _saveRegsForCall: sendSetSize: 0 deInUse: 0 bcInUse: 0 deSending: 0
   1D05 21 0C 1F           7310 	ld	hl,#__str_163
   1D08 E5                 7311 	push	hl
                           7312 ;	genCall
   1D09 CD 00 00           7313 	call	_printf
   1D0C E8 02              7314 	lda	sp,2(sp)
                           7315 ;	IncludeCustom/MessageIntro.c 333
                           7316 ;	genIpush
                           7317 ; _saveRegsForCall: sendSetSize: 0 deInUse: 0 bcInUse: 0 deSending: 0
   1D0E 21 64 00           7318 	ld	hl,#0x0064
   1D11 E5                 7319 	push	hl
                           7320 ;	genCall
   1D12 CD 00 00           7321 	call	_delay
   1D15 E8 02              7322 	lda	sp,2(sp)
                           7323 ;	IncludeCustom/MessageIntro.c 334
                           7324 ;	genIpush
                           7325 ; _saveRegsForCall: sendSetSize: 0 deInUse: 0 bcInUse: 0 deSending: 0
   1D17 21 0E 1F           7326 	ld	hl,#__str_164
   1D1A E5                 7327 	push	hl
                           7328 ;	genCall
   1D1B CD 00 00           7329 	call	_printf
   1D1E E8 02              7330 	lda	sp,2(sp)
                           7331 ;	IncludeCustom/MessageIntro.c 335
                           7332 ;	genIpush
                           7333 ; _saveRegsForCall: sendSetSize: 0 deInUse: 0 bcInUse: 0 deSending: 0
   1D20 21 64 00           7334 	ld	hl,#0x0064
   1D23 E5                 7335 	push	hl
                           7336 ;	genCall
   1D24 CD 00 00           7337 	call	_delay
   1D27 E8 02              7338 	lda	sp,2(sp)
                           7339 ;	IncludeCustom/MessageIntro.c 336
                           7340 ;	genIpush
                           7341 ; _saveRegsForCall: sendSetSize: 0 deInUse: 0 bcInUse: 0 deSending: 0
   1D29 21 10 1F           7342 	ld	hl,#__str_165
   1D2C E5                 7343 	push	hl
                           7344 ;	genCall
   1D2D CD 00 00           7345 	call	_printf
   1D30 E8 02              7346 	lda	sp,2(sp)
                           7347 ;	IncludeCustom/MessageIntro.c 337
                           7348 ;	genIpush
                           7349 ; _saveRegsForCall: sendSetSize: 0 deInUse: 0 bcInUse: 0 deSending: 0
   1D32 21 64 00           7350 	ld	hl,#0x0064
   1D35 E5                 7351 	push	hl
                           7352 ;	genCall
   1D36 CD 00 00           7353 	call	_delay
   1D39 E8 02              7354 	lda	sp,2(sp)
                           7355 ;	IncludeCustom/MessageIntro.c 338
                           7356 ;	genIpush
                           7357 ; _saveRegsForCall: sendSetSize: 0 deInUse: 0 bcInUse: 0 deSending: 0
   1D3B 21 12 1F           7358 	ld	hl,#__str_166
   1D3E E5                 7359 	push	hl
                           7360 ;	genCall
   1D3F CD 00 00           7361 	call	_printf
   1D42 E8 02              7362 	lda	sp,2(sp)
                           7363 ;	IncludeCustom/MessageIntro.c 339
                           7364 ;	genIpush
                           7365 ; _saveRegsForCall: sendSetSize: 0 deInUse: 0 bcInUse: 0 deSending: 0
   1D44 21 64 00           7366 	ld	hl,#0x0064
   1D47 E5                 7367 	push	hl
                           7368 ;	genCall
   1D48 CD 00 00           7369 	call	_delay
   1D4B E8 02              7370 	lda	sp,2(sp)
                           7371 ;	IncludeCustom/MessageIntro.c 340
                           7372 ;	genIpush
                           7373 ; _saveRegsForCall: sendSetSize: 0 deInUse: 0 bcInUse: 0 deSending: 0
   1D4D 21 14 1F           7374 	ld	hl,#__str_167
   1D50 E5                 7375 	push	hl
                           7376 ;	genCall
   1D51 CD 00 00           7377 	call	_printf
   1D54 E8 02              7378 	lda	sp,2(sp)
                           7379 ;	IncludeCustom/MessageIntro.c 341
                           7380 ;	genIpush
                           7381 ; _saveRegsForCall: sendSetSize: 0 deInUse: 0 bcInUse: 0 deSending: 0
   1D56 21 16 1F           7382 	ld	hl,#__str_168
   1D59 E5                 7383 	push	hl
                           7384 ;	genCall
   1D5A CD 00 00           7385 	call	_printf
   1D5D E8 02              7386 	lda	sp,2(sp)
                           7387 ;	IncludeCustom/MessageIntro.c 342
                           7388 ;	genIpush
                           7389 ; _saveRegsForCall: sendSetSize: 0 deInUse: 0 bcInUse: 0 deSending: 0
   1D5F 21 64 00           7390 	ld	hl,#0x0064
   1D62 E5                 7391 	push	hl
                           7392 ;	genCall
   1D63 CD 00 00           7393 	call	_delay
   1D66 E8 02              7394 	lda	sp,2(sp)
                           7395 ;	IncludeCustom/MessageIntro.c 343
                           7396 ;	genIpush
                           7397 ; _saveRegsForCall: sendSetSize: 0 deInUse: 0 bcInUse: 0 deSending: 0
   1D68 21 1A 1F           7398 	ld	hl,#__str_169
   1D6B E5                 7399 	push	hl
                           7400 ;	genCall
   1D6C CD 00 00           7401 	call	_printf
   1D6F E8 02              7402 	lda	sp,2(sp)
                           7403 ;	IncludeCustom/MessageIntro.c 344
                           7404 ;	genIpush
                           7405 ; _saveRegsForCall: sendSetSize: 0 deInUse: 0 bcInUse: 0 deSending: 0
   1D71 21 64 00           7406 	ld	hl,#0x0064
   1D74 E5                 7407 	push	hl
                           7408 ;	genCall
   1D75 CD 00 00           7409 	call	_delay
   1D78 E8 02              7410 	lda	sp,2(sp)
                           7411 ;	IncludeCustom/MessageIntro.c 345
                           7412 ;	genIpush
                           7413 ; _saveRegsForCall: sendSetSize: 0 deInUse: 0 bcInUse: 0 deSending: 0
   1D7A 21 1C 1F           7414 	ld	hl,#__str_170
   1D7D E5                 7415 	push	hl
                           7416 ;	genCall
   1D7E CD 00 00           7417 	call	_printf
   1D81 E8 02              7418 	lda	sp,2(sp)
                           7419 ;	IncludeCustom/MessageIntro.c 346
                           7420 ;	genIpush
                           7421 ; _saveRegsForCall: sendSetSize: 0 deInUse: 0 bcInUse: 0 deSending: 0
   1D83 21 64 00           7422 	ld	hl,#0x0064
   1D86 E5                 7423 	push	hl
                           7424 ;	genCall
   1D87 CD 00 00           7425 	call	_delay
   1D8A E8 02              7426 	lda	sp,2(sp)
                           7427 ;	IncludeCustom/MessageIntro.c 347
                           7428 ;	genIpush
                           7429 ; _saveRegsForCall: sendSetSize: 0 deInUse: 0 bcInUse: 0 deSending: 0
   1D8C 21 1E 1F           7430 	ld	hl,#__str_171
   1D8F E5                 7431 	push	hl
                           7432 ;	genCall
   1D90 CD 00 00           7433 	call	_printf
   1D93 E8 02              7434 	lda	sp,2(sp)
                           7435 ;	IncludeCustom/MessageIntro.c 348
                           7436 ;	genIpush
                           7437 ; _saveRegsForCall: sendSetSize: 0 deInUse: 0 bcInUse: 0 deSending: 0
   1D95 21 64 00           7438 	ld	hl,#0x0064
   1D98 E5                 7439 	push	hl
                           7440 ;	genCall
   1D99 CD 00 00           7441 	call	_delay
   1D9C E8 02              7442 	lda	sp,2(sp)
                           7443 ;	IncludeCustom/MessageIntro.c 349
                           7444 ;	genIpush
                           7445 ; _saveRegsForCall: sendSetSize: 0 deInUse: 0 bcInUse: 0 deSending: 0
   1D9E 21 20 1F           7446 	ld	hl,#__str_172
   1DA1 E5                 7447 	push	hl
                           7448 ;	genCall
   1DA2 CD 00 00           7449 	call	_printf
   1DA5 E8 02              7450 	lda	sp,2(sp)
                           7451 ;	IncludeCustom/MessageIntro.c 350
                           7452 ;	genIpush
                           7453 ; _saveRegsForCall: sendSetSize: 0 deInUse: 0 bcInUse: 0 deSending: 0
   1DA7 21 64 00           7454 	ld	hl,#0x0064
   1DAA E5                 7455 	push	hl
                           7456 ;	genCall
   1DAB CD 00 00           7457 	call	_delay
   1DAE E8 02              7458 	lda	sp,2(sp)
                           7459 ;	IncludeCustom/MessageIntro.c 351
                           7460 ;	genIpush
                           7461 ; _saveRegsForCall: sendSetSize: 0 deInUse: 0 bcInUse: 0 deSending: 0
   1DB0 21 22 1F           7462 	ld	hl,#__str_173
   1DB3 E5                 7463 	push	hl
                           7464 ;	genCall
   1DB4 CD 00 00           7465 	call	_printf
   1DB7 E8 02              7466 	lda	sp,2(sp)
                           7467 ;	IncludeCustom/MessageIntro.c 352
                           7468 ;	genIpush
                           7469 ; _saveRegsForCall: sendSetSize: 0 deInUse: 0 bcInUse: 0 deSending: 0
   1DB9 21 64 00           7470 	ld	hl,#0x0064
   1DBC E5                 7471 	push	hl
                           7472 ;	genCall
   1DBD CD 00 00           7473 	call	_delay
   1DC0 E8 02              7474 	lda	sp,2(sp)
                           7475 ;	IncludeCustom/MessageIntro.c 353
                           7476 ;	genIpush
                           7477 ; _saveRegsForCall: sendSetSize: 0 deInUse: 0 bcInUse: 0 deSending: 0
   1DC2 21 24 1F           7478 	ld	hl,#__str_174
   1DC5 E5                 7479 	push	hl
                           7480 ;	genCall
   1DC6 CD 00 00           7481 	call	_printf
   1DC9 E8 02              7482 	lda	sp,2(sp)
                           7483 ;	IncludeCustom/MessageIntro.c 354
                           7484 ;	genIpush
                           7485 ; _saveRegsForCall: sendSetSize: 0 deInUse: 0 bcInUse: 0 deSending: 0
   1DCB 21 64 00           7486 	ld	hl,#0x0064
   1DCE E5                 7487 	push	hl
                           7488 ;	genCall
   1DCF CD 00 00           7489 	call	_delay
   1DD2 E8 02              7490 	lda	sp,2(sp)
                           7491 ;	IncludeCustom/MessageIntro.c 355
                           7492 ;	genIpush
                           7493 ; _saveRegsForCall: sendSetSize: 0 deInUse: 0 bcInUse: 0 deSending: 0
   1DD4 21 26 1F           7494 	ld	hl,#__str_175
   1DD7 E5                 7495 	push	hl
                           7496 ;	genCall
   1DD8 CD 00 00           7497 	call	_printf
   1DDB E8 02              7498 	lda	sp,2(sp)
                           7499 ;	IncludeCustom/MessageIntro.c 356
                           7500 ;	genIpush
                           7501 ; _saveRegsForCall: sendSetSize: 0 deInUse: 0 bcInUse: 0 deSending: 0
   1DDD 21 64 00           7502 	ld	hl,#0x0064
   1DE0 E5                 7503 	push	hl
                           7504 ;	genCall
   1DE1 CD 00 00           7505 	call	_delay
   1DE4 E8 02              7506 	lda	sp,2(sp)
                           7507 ;	IncludeCustom/MessageIntro.c 357
                           7508 ;	genIpush
                           7509 ; _saveRegsForCall: sendSetSize: 0 deInUse: 0 bcInUse: 0 deSending: 0
   1DE6 21 28 1F           7510 	ld	hl,#__str_176
   1DE9 E5                 7511 	push	hl
                           7512 ;	genCall
   1DEA CD 00 00           7513 	call	_printf
   1DED E8 02              7514 	lda	sp,2(sp)
                           7515 ;	IncludeCustom/MessageIntro.c 358
                           7516 ;	genIpush
                           7517 ; _saveRegsForCall: sendSetSize: 0 deInUse: 0 bcInUse: 0 deSending: 0
   1DEF 21 64 00           7518 	ld	hl,#0x0064
   1DF2 E5                 7519 	push	hl
                           7520 ;	genCall
   1DF3 CD 00 00           7521 	call	_delay
   1DF6 E8 02              7522 	lda	sp,2(sp)
                           7523 ;	IncludeCustom/MessageIntro.c 359
                           7524 ;	genIpush
                           7525 ; _saveRegsForCall: sendSetSize: 0 deInUse: 0 bcInUse: 0 deSending: 0
   1DF8 21 2A 1F           7526 	ld	hl,#__str_177
   1DFB E5                 7527 	push	hl
                           7528 ;	genCall
   1DFC CD 00 00           7529 	call	_printf
   1DFF E8 02              7530 	lda	sp,2(sp)
                           7531 ;	IncludeCustom/MessageIntro.c 360
                           7532 ;	genIpush
                           7533 ; _saveRegsForCall: sendSetSize: 0 deInUse: 0 bcInUse: 0 deSending: 0
   1E01 21 64 00           7534 	ld	hl,#0x0064
   1E04 E5                 7535 	push	hl
                           7536 ;	genCall
   1E05 CD 00 00           7537 	call	_delay
   1E08 E8 02              7538 	lda	sp,2(sp)
                           7539 ;	IncludeCustom/MessageIntro.c 361
                           7540 ;	genIpush
                           7541 ; _saveRegsForCall: sendSetSize: 0 deInUse: 0 bcInUse: 0 deSending: 0
   1E0A 21 2C 1F           7542 	ld	hl,#__str_178
   1E0D E5                 7543 	push	hl
                           7544 ;	genCall
   1E0E CD 00 00           7545 	call	_printf
   1E11 E8 02              7546 	lda	sp,2(sp)
                           7547 ;	IncludeCustom/MessageIntro.c 362
                           7548 ;	genIpush
                           7549 ; _saveRegsForCall: sendSetSize: 0 deInUse: 0 bcInUse: 0 deSending: 0
   1E13 21 64 00           7550 	ld	hl,#0x0064
   1E16 E5                 7551 	push	hl
                           7552 ;	genCall
   1E17 CD 00 00           7553 	call	_delay
   1E1A E8 02              7554 	lda	sp,2(sp)
                           7555 ;	IncludeCustom/MessageIntro.c 363
                           7556 ;	genIpush
                           7557 ; _saveRegsForCall: sendSetSize: 0 deInUse: 0 bcInUse: 0 deSending: 0
   1E1C 21 2E 1F           7558 	ld	hl,#__str_179
   1E1F E5                 7559 	push	hl
                           7560 ;	genCall
   1E20 CD 00 00           7561 	call	_printf
   1E23 E8 02              7562 	lda	sp,2(sp)
                           7563 ;	IncludeCustom/MessageIntro.c 364
                           7564 ;	genIpush
                           7565 ; _saveRegsForCall: sendSetSize: 0 deInUse: 0 bcInUse: 0 deSending: 0
   1E25 21 64 00           7566 	ld	hl,#0x0064
   1E28 E5                 7567 	push	hl
                           7568 ;	genCall
   1E29 CD 00 00           7569 	call	_delay
   1E2C E8 02              7570 	lda	sp,2(sp)
                           7571 ;	IncludeCustom/MessageIntro.c 365
                           7572 ;	genIpush
                           7573 ; _saveRegsForCall: sendSetSize: 0 deInUse: 0 bcInUse: 0 deSending: 0
   1E2E 21 30 1F           7574 	ld	hl,#__str_180
   1E31 E5                 7575 	push	hl
                           7576 ;	genCall
   1E32 CD 00 00           7577 	call	_printf
   1E35 E8 02              7578 	lda	sp,2(sp)
                           7579 ;	IncludeCustom/MessageIntro.c 366
                           7580 ;	genIpush
                           7581 ; _saveRegsForCall: sendSetSize: 0 deInUse: 0 bcInUse: 0 deSending: 0
   1E37 21 64 00           7582 	ld	hl,#0x0064
   1E3A E5                 7583 	push	hl
                           7584 ;	genCall
   1E3B CD 00 00           7585 	call	_delay
   1E3E E8 02              7586 	lda	sp,2(sp)
                           7587 ;	IncludeCustom/MessageIntro.c 367
                           7588 ;	genIpush
                           7589 ; _saveRegsForCall: sendSetSize: 0 deInUse: 0 bcInUse: 0 deSending: 0
   1E40 21 32 1F           7590 	ld	hl,#__str_181
   1E43 E5                 7591 	push	hl
                           7592 ;	genCall
   1E44 CD 00 00           7593 	call	_printf
   1E47 E8 02              7594 	lda	sp,2(sp)
                           7595 ;	IncludeCustom/MessageIntro.c 368
                           7596 ;	genIpush
                           7597 ; _saveRegsForCall: sendSetSize: 0 deInUse: 0 bcInUse: 0 deSending: 0
   1E49 21 64 00           7598 	ld	hl,#0x0064
   1E4C E5                 7599 	push	hl
                           7600 ;	genCall
   1E4D CD 00 00           7601 	call	_delay
   1E50 E8 02              7602 	lda	sp,2(sp)
                           7603 ;	IncludeCustom/MessageIntro.c 369
                           7604 ;	genIpush
                           7605 ; _saveRegsForCall: sendSetSize: 0 deInUse: 0 bcInUse: 0 deSending: 0
   1E52 21 34 1F           7606 	ld	hl,#__str_182
   1E55 E5                 7607 	push	hl
                           7608 ;	genCall
   1E56 CD 00 00           7609 	call	_printf
   1E59 E8 02              7610 	lda	sp,2(sp)
                           7611 ;	IncludeCustom/MessageIntro.c 370
                           7612 ;	genIpush
                           7613 ; _saveRegsForCall: sendSetSize: 0 deInUse: 0 bcInUse: 0 deSending: 0
   1E5B 21 64 00           7614 	ld	hl,#0x0064
   1E5E E5                 7615 	push	hl
                           7616 ;	genCall
   1E5F CD 00 00           7617 	call	_delay
   1E62 E8 02              7618 	lda	sp,2(sp)
                           7619 ;	IncludeCustom/MessageIntro.c 371
                           7620 ;	genIpush
                           7621 ; _saveRegsForCall: sendSetSize: 0 deInUse: 0 bcInUse: 0 deSending: 0
   1E64 21 36 1F           7622 	ld	hl,#__str_183
   1E67 E5                 7623 	push	hl
                           7624 ;	genCall
   1E68 CD 00 00           7625 	call	_printf
   1E6B E8 02              7626 	lda	sp,2(sp)
                           7627 ;	IncludeCustom/MessageIntro.c 372
                           7628 ;	genIpush
                           7629 ; _saveRegsForCall: sendSetSize: 0 deInUse: 0 bcInUse: 0 deSending: 0
   1E6D 21 64 00           7630 	ld	hl,#0x0064
   1E70 E5                 7631 	push	hl
                           7632 ;	genCall
   1E71 CD 00 00           7633 	call	_delay
   1E74 E8 02              7634 	lda	sp,2(sp)
                           7635 ;	IncludeCustom/MessageIntro.c 373
                           7636 ;	genIpush
                           7637 ; _saveRegsForCall: sendSetSize: 0 deInUse: 0 bcInUse: 0 deSending: 0
   1E76 21 38 1F           7638 	ld	hl,#__str_184
   1E79 E5                 7639 	push	hl
                           7640 ;	genCall
   1E7A CD 00 00           7641 	call	_printf
   1E7D E8 02              7642 	lda	sp,2(sp)
                           7643 ;	IncludeCustom/MessageIntro.c 374
                           7644 ;	genIpush
                           7645 ; _saveRegsForCall: sendSetSize: 0 deInUse: 0 bcInUse: 0 deSending: 0
   1E7F 21 64 00           7646 	ld	hl,#0x0064
   1E82 E5                 7647 	push	hl
                           7648 ;	genCall
   1E83 CD 00 00           7649 	call	_delay
   1E86 E8 02              7650 	lda	sp,2(sp)
                           7651 ;	IncludeCustom/MessageIntro.c 375
                           7652 ;	genIpush
                           7653 ; _saveRegsForCall: sendSetSize: 0 deInUse: 0 bcInUse: 0 deSending: 0
   1E88 21 3A 1F           7654 	ld	hl,#__str_185
   1E8B E5                 7655 	push	hl
                           7656 ;	genCall
   1E8C CD 00 00           7657 	call	_printf
   1E8F E8 02              7658 	lda	sp,2(sp)
                           7659 ;	IncludeCustom/MessageIntro.c 376
                           7660 ;	genIpush
                           7661 ; _saveRegsForCall: sendSetSize: 0 deInUse: 0 bcInUse: 0 deSending: 0
   1E91 21 64 00           7662 	ld	hl,#0x0064
   1E94 E5                 7663 	push	hl
                           7664 ;	genCall
   1E95 CD 00 00           7665 	call	_delay
   1E98 E8 02              7666 	lda	sp,2(sp)
                           7667 ;	IncludeCustom/MessageIntro.c 377
                           7668 ;	genIpush
                           7669 ; _saveRegsForCall: sendSetSize: 0 deInUse: 0 bcInUse: 0 deSending: 0
   1E9A 21 3C 1F           7670 	ld	hl,#__str_186
   1E9D E5                 7671 	push	hl
                           7672 ;	genCall
   1E9E CD 00 00           7673 	call	_printf
   1EA1 E8 02              7674 	lda	sp,2(sp)
                           7675 ;	genLabel
   1EA3                    7676 00101$:
                           7677 ;	genEndFunction
                           7678 	
   1EA3 C9                 7679 	ret
   1EA4                    7680 ___messageIntroPart2_end:
   1EA4                    7681 __str_115:
   1EA4 0A                 7682 	.db 0x0A
   1EA5 0A                 7683 	.db 0x0A
   1EA6 0A                 7684 	.db 0x0A
   1EA7 20 4F              7685 	.ascii " O"
   1EA9 00                 7686 	.db 0x00
   1EAA                    7687 __str_116:
   1EAA 75                 7688 	.ascii "u"
   1EAB 00                 7689 	.db 0x00
   1EAC                    7690 __str_117:
   1EAC 69                 7691 	.ascii "i"
   1EAD 00                 7692 	.db 0x00
   1EAE                    7693 __str_118:
   1EAE 3F                 7694 	.ascii "?"
   1EAF 00                 7695 	.db 0x00
   1EB0                    7696 __str_119:
   1EB0 20                 7697 	.ascii " "
   1EB1 00                 7698 	.db 0x00
   1EB2                    7699 __str_120:
   1EB2 54                 7700 	.ascii "T"
   1EB3 00                 7701 	.db 0x00
   1EB4                    7702 __str_121:
   1EB4 72                 7703 	.ascii "r"
   1EB5 00                 7704 	.db 0x00
   1EB6                    7705 __str_122:
   1EB6 65                 7706 	.ascii "e"
   1EB7 00                 7707 	.db 0x00
   1EB8                    7708 __str_123:
   1EB8 73                 7709 	.ascii "s"
   1EB9 00                 7710 	.db 0x00
   1EBA                    7711 __str_124:
   1EBA 20                 7712 	.ascii " "
   1EBB 00                 7713 	.db 0x00
   1EBC                    7714 __str_125:
   1EBC 62                 7715 	.ascii "b"
   1EBD 00                 7716 	.db 0x00
   1EBE                    7717 __str_126:
   1EBE 69                 7718 	.ascii "i"
   1EBF 00                 7719 	.db 0x00
   1EC0                    7720 __str_127:
   1EC0 65                 7721 	.ascii "e"
   1EC1 00                 7722 	.db 0x00
   1EC2                    7723 __str_128:
   1EC2 6E                 7724 	.ascii "n"
   1EC3 00                 7725 	.db 0x00
   1EC4                    7726 __str_129:
   1EC4 2E                 7727 	.ascii "."
   1EC5 00                 7728 	.db 0x00
   1EC6                    7729 __str_130:
   1EC6 2E                 7730 	.ascii "."
   1EC7 00                 7731 	.db 0x00
   1EC8                    7732 __str_131:
   1EC8 2E                 7733 	.ascii "."
   1EC9 00                 7734 	.db 0x00
   1ECA                    7735 __str_132:
   1ECA 0A                 7736 	.db 0x0A
   1ECB 0A                 7737 	.db 0x0A
   1ECC 20                 7738 	.ascii " "
   1ECD 00                 7739 	.db 0x00
   1ECE                    7740 __str_133:
   1ECE 54                 7741 	.ascii "T"
   1ECF 00                 7742 	.db 0x00
   1ED0                    7743 __str_134:
   1ED0 75                 7744 	.ascii "u"
   1ED1 00                 7745 	.db 0x00
   1ED2                    7746 __str_135:
   1ED2 20                 7747 	.ascii " "
   1ED3 00                 7748 	.db 0x00
   1ED4                    7749 __str_136:
   1ED4 65                 7750 	.ascii "e"
   1ED5 00                 7751 	.db 0x00
   1ED6                    7752 __str_137:
   1ED6 73                 7753 	.ascii "s"
   1ED7 00                 7754 	.db 0x00
   1ED8                    7755 __str_138:
   1ED8 20                 7756 	.ascii " "
   1ED9 00                 7757 	.db 0x00
   1EDA                    7758 __str_139:
   1EDA 63                 7759 	.ascii "c"
   1EDB 00                 7760 	.db 0x00
   1EDC                    7761 __str_140:
   1EDC 6F                 7762 	.ascii "o"
   1EDD 00                 7763 	.db 0x00
   1EDE                    7764 __str_141:
   1EDE 75                 7765 	.ascii "u"
   1EDF 00                 7766 	.db 0x00
   1EE0                    7767 __str_142:
   1EE0 72                 7768 	.ascii "r"
   1EE1 00                 7769 	.db 0x00
   1EE2                    7770 __str_143:
   1EE2 61                 7771 	.ascii "a"
   1EE3 00                 7772 	.db 0x00
   1EE4                    7773 __str_144:
   1EE4 67                 7774 	.ascii "g"
   1EE5 00                 7775 	.db 0x00
   1EE6                    7776 __str_145:
   1EE6 65                 7777 	.ascii "e"
   1EE7 00                 7778 	.db 0x00
   1EE8                    7779 __str_146:
   1EE8 75                 7780 	.ascii "u"
   1EE9 00                 7781 	.db 0x00
   1EEA                    7782 __str_147:
   1EEA 78                 7783 	.ascii "x"
   1EEB 00                 7784 	.db 0x00
   1EEC                    7785 __str_148:
   1EEC 2E                 7786 	.ascii "."
   1EED 00                 7787 	.db 0x00
   1EEE                    7788 __str_149:
   1EEE 0A                 7789 	.db 0x0A
   1EEF 0A                 7790 	.db 0x0A
   1EF0 20                 7791 	.ascii " "
   1EF1 00                 7792 	.db 0x00
   1EF2                    7793 __str_150:
   1EF2 41                 7794 	.ascii "A"
   1EF3 00                 7795 	.db 0x00
   1EF4                    7796 __str_151:
   1EF4 76                 7797 	.ascii "v"
   1EF5 00                 7798 	.db 0x00
   1EF6                    7799 __str_152:
   1EF6 61                 7800 	.ascii "a"
   1EF7 00                 7801 	.db 0x00
   1EF8                    7802 __str_153:
   1EF8 6E                 7803 	.ascii "n"
   1EF9 00                 7804 	.db 0x00
   1EFA                    7805 __str_154:
   1EFA 74                 7806 	.ascii "t"
   1EFB 00                 7807 	.db 0x00
   1EFC                    7808 __str_155:
   1EFC 20                 7809 	.ascii " "
   1EFD 00                 7810 	.db 0x00
   1EFE                    7811 __str_156:
   1EFE 64                 7812 	.ascii "d"
   1EFF 00                 7813 	.db 0x00
   1F00                    7814 __str_157:
   1F00 65                 7815 	.ascii "e"
   1F01 00                 7816 	.db 0x00
   1F02                    7817 __str_158:
   1F02 20                 7818 	.ascii " "
   1F03 00                 7819 	.db 0x00
   1F04                    7820 __str_159:
   1F04 63                 7821 	.ascii "c"
   1F05 00                 7822 	.db 0x00
   1F06                    7823 __str_160:
   1F06 6F                 7824 	.ascii "o"
   1F07 00                 7825 	.db 0x00
   1F08                    7826 __str_161:
   1F08 6D                 7827 	.ascii "m"
   1F09 00                 7828 	.db 0x00
   1F0A                    7829 __str_162:
   1F0A 6D                 7830 	.ascii "m"
   1F0B 00                 7831 	.db 0x00
   1F0C                    7832 __str_163:
   1F0C 65                 7833 	.ascii "e"
   1F0D 00                 7834 	.db 0x00
   1F0E                    7835 __str_164:
   1F0E 6E                 7836 	.ascii "n"
   1F0F 00                 7837 	.db 0x00
   1F10                    7838 __str_165:
   1F10 63                 7839 	.ascii "c"
   1F11 00                 7840 	.db 0x00
   1F12                    7841 __str_166:
   1F12 65                 7842 	.ascii "e"
   1F13 00                 7843 	.db 0x00
   1F14                    7844 __str_167:
   1F14 72                 7845 	.ascii "r"
   1F15 00                 7846 	.db 0x00
   1F16                    7847 __str_168:
   1F16 0A                 7848 	.db 0x0A
   1F17 0A                 7849 	.db 0x0A
   1F18 20                 7850 	.ascii " "
   1F19 00                 7851 	.db 0x00
   1F1A                    7852 __str_169:
   1F1A 64                 7853 	.ascii "d"
   1F1B 00                 7854 	.db 0x00
   1F1C                    7855 __str_170:
   1F1C 6F                 7856 	.ascii "o"
   1F1D 00                 7857 	.db 0x00
   1F1E                    7858 __str_171:
   1F1E 6E                 7859 	.ascii "n"
   1F1F 00                 7860 	.db 0x00
   1F20                    7861 __str_172:
   1F20 6E                 7862 	.ascii "n"
   1F21 00                 7863 	.db 0x00
   1F22                    7864 __str_173:
   1F22 65                 7865 	.ascii "e"
   1F23 00                 7866 	.db 0x00
   1F24                    7867 __str_174:
   1F24 20                 7868 	.ascii " "
   1F25 00                 7869 	.db 0x00
   1F26                    7870 __str_175:
   1F26 6D                 7871 	.ascii "m"
   1F27 00                 7872 	.db 0x00
   1F28                    7873 __str_176:
   1F28 6F                 7874 	.ascii "o"
   1F29 00                 7875 	.db 0x00
   1F2A                    7876 __str_177:
   1F2A 69                 7877 	.ascii "i"
   1F2B 00                 7878 	.db 0x00
   1F2C                    7879 __str_178:
   1F2C 20                 7880 	.ascii " "
   1F2D 00                 7881 	.db 0x00
   1F2E                    7882 __str_179:
   1F2E 74                 7883 	.ascii "t"
   1F2F 00                 7884 	.db 0x00
   1F30                    7885 __str_180:
   1F30 6F                 7886 	.ascii "o"
   1F31 00                 7887 	.db 0x00
   1F32                    7888 __str_181:
   1F32 6E                 7889 	.ascii "n"
   1F33 00                 7890 	.db 0x00
   1F34                    7891 __str_182:
   1F34 20                 7892 	.ascii " "
   1F35 00                 7893 	.db 0x00
   1F36                    7894 __str_183:
   1F36 6E                 7895 	.ascii "n"
   1F37 00                 7896 	.db 0x00
   1F38                    7897 __str_184:
   1F38 6F                 7898 	.ascii "o"
   1F39 00                 7899 	.db 0x00
   1F3A                    7900 __str_185:
   1F3A 6D                 7901 	.ascii "m"
   1F3B 00                 7902 	.db 0x00
   1F3C                    7903 __str_186:
   1F3C 2E                 7904 	.ascii "."
   1F3D 00                 7905 	.db 0x00
                           7906 ;	IncludeCustom/MessageIntro.c 380
                           7907 ;	genLabel
                           7908 ;	genFunction
                           7909 ;	---------------------------------
                           7910 ; Function messageIntroPart3
                           7911 ; ---------------------------------
   1F3E                    7912 ___messageIntroPart3_start:
   1F3E                    7913 _messageIntroPart3:
   1F3E E8 FD              7914 	lda	sp,-3(sp)
                           7915 ;	IncludeCustom/MessageIntro.c 381
                           7916 ;	genIpush
                           7917 ; _saveRegsForCall: sendSetSize: 0 deInUse: 0 bcInUse: 0 deSending: 0
   1F40 21 DC 21           7918 	ld	hl,#__str_187
   1F43 E5                 7919 	push	hl
                           7920 ;	genCall
   1F44 CD 00 00           7921 	call	_printf
   1F47 E8 02              7922 	lda	sp,2(sp)
                           7923 ;	IncludeCustom/MessageIntro.c 382
                           7924 ;	genIpush
                           7925 ; _saveRegsForCall: sendSetSize: 0 deInUse: 0 bcInUse: 0 deSending: 0
   1F49 21 64 00           7926 	ld	hl,#0x0064
   1F4C E5                 7927 	push	hl
                           7928 ;	genCall
   1F4D CD 00 00           7929 	call	_delay
   1F50 E8 02              7930 	lda	sp,2(sp)
                           7931 ;	IncludeCustom/MessageIntro.c 383
                           7932 ;	genIpush
                           7933 ; _saveRegsForCall: sendSetSize: 0 deInUse: 0 bcInUse: 0 deSending: 0
   1F52 21 E2 21           7934 	ld	hl,#__str_188
   1F55 E5                 7935 	push	hl
                           7936 ;	genCall
   1F56 CD 00 00           7937 	call	_printf
   1F59 E8 02              7938 	lda	sp,2(sp)
                           7939 ;	IncludeCustom/MessageIntro.c 384
                           7940 ;	genIpush
                           7941 ; _saveRegsForCall: sendSetSize: 0 deInUse: 0 bcInUse: 0 deSending: 0
   1F5B 21 64 00           7942 	ld	hl,#0x0064
   1F5E E5                 7943 	push	hl
                           7944 ;	genCall
   1F5F CD 00 00           7945 	call	_delay
   1F62 E8 02              7946 	lda	sp,2(sp)
                           7947 ;	IncludeCustom/MessageIntro.c 385
                           7948 ;	genIpush
                           7949 ; _saveRegsForCall: sendSetSize: 0 deInUse: 0 bcInUse: 0 deSending: 0
   1F64 21 E4 21           7950 	ld	hl,#__str_189
   1F67 E5                 7951 	push	hl
                           7952 ;	genCall
   1F68 CD 00 00           7953 	call	_printf
   1F6B E8 02              7954 	lda	sp,2(sp)
                           7955 ;	IncludeCustom/MessageIntro.c 386
                           7956 ;	genIpush
                           7957 ; _saveRegsForCall: sendSetSize: 0 deInUse: 0 bcInUse: 0 deSending: 0
   1F6D 21 64 00           7958 	ld	hl,#0x0064
   1F70 E5                 7959 	push	hl
                           7960 ;	genCall
   1F71 CD 00 00           7961 	call	_delay
   1F74 E8 02              7962 	lda	sp,2(sp)
                           7963 ;	IncludeCustom/MessageIntro.c 387
                           7964 ;	genIpush
                           7965 ; _saveRegsForCall: sendSetSize: 0 deInUse: 0 bcInUse: 0 deSending: 0
   1F76 21 E6 21           7966 	ld	hl,#__str_190
   1F79 E5                 7967 	push	hl
                           7968 ;	genCall
   1F7A CD 00 00           7969 	call	_printf
   1F7D E8 02              7970 	lda	sp,2(sp)
                           7971 ;	IncludeCustom/MessageIntro.c 388
                           7972 ;	genIpush
                           7973 ; _saveRegsForCall: sendSetSize: 0 deInUse: 0 bcInUse: 0 deSending: 0
   1F7F 21 64 00           7974 	ld	hl,#0x0064
   1F82 E5                 7975 	push	hl
                           7976 ;	genCall
   1F83 CD 00 00           7977 	call	_delay
   1F86 E8 02              7978 	lda	sp,2(sp)
                           7979 ;	IncludeCustom/MessageIntro.c 389
                           7980 ;	genIpush
                           7981 ; _saveRegsForCall: sendSetSize: 0 deInUse: 0 bcInUse: 0 deSending: 0
   1F88 21 E8 21           7982 	ld	hl,#__str_191
   1F8B E5                 7983 	push	hl
                           7984 ;	genCall
   1F8C CD 00 00           7985 	call	_printf
   1F8F E8 02              7986 	lda	sp,2(sp)
                           7987 ;	IncludeCustom/MessageIntro.c 390
                           7988 ;	genIpush
                           7989 ; _saveRegsForCall: sendSetSize: 0 deInUse: 0 bcInUse: 0 deSending: 0
   1F91 21 64 00           7990 	ld	hl,#0x0064
   1F94 E5                 7991 	push	hl
                           7992 ;	genCall
   1F95 CD 00 00           7993 	call	_delay
   1F98 E8 02              7994 	lda	sp,2(sp)
                           7995 ;	IncludeCustom/MessageIntro.c 391
                           7996 ;	genIpush
                           7997 ; _saveRegsForCall: sendSetSize: 0 deInUse: 0 bcInUse: 0 deSending: 0
   1F9A 21 EA 21           7998 	ld	hl,#__str_192
   1F9D E5                 7999 	push	hl
                           8000 ;	genCall
   1F9E CD 00 00           8001 	call	_printf
   1FA1 E8 02              8002 	lda	sp,2(sp)
                           8003 ;	IncludeCustom/MessageIntro.c 392
                           8004 ;	genIpush
                           8005 ; _saveRegsForCall: sendSetSize: 0 deInUse: 0 bcInUse: 0 deSending: 0
   1FA3 21 64 00           8006 	ld	hl,#0x0064
   1FA6 E5                 8007 	push	hl
                           8008 ;	genCall
   1FA7 CD 00 00           8009 	call	_delay
   1FAA E8 02              8010 	lda	sp,2(sp)
                           8011 ;	IncludeCustom/MessageIntro.c 393
                           8012 ;	genIpush
                           8013 ; _saveRegsForCall: sendSetSize: 0 deInUse: 0 bcInUse: 0 deSending: 0
   1FAC 21 EC 21           8014 	ld	hl,#__str_193
   1FAF E5                 8015 	push	hl
                           8016 ;	genCall
   1FB0 CD 00 00           8017 	call	_printf
   1FB3 E8 02              8018 	lda	sp,2(sp)
                           8019 ;	IncludeCustom/MessageIntro.c 394
                           8020 ;	genIpush
                           8021 ; _saveRegsForCall: sendSetSize: 0 deInUse: 0 bcInUse: 0 deSending: 0
   1FB5 21 64 00           8022 	ld	hl,#0x0064
   1FB8 E5                 8023 	push	hl
                           8024 ;	genCall
   1FB9 CD 00 00           8025 	call	_delay
   1FBC E8 02              8026 	lda	sp,2(sp)
                           8027 ;	IncludeCustom/MessageIntro.c 395
                           8028 ;	genIpush
                           8029 ; _saveRegsForCall: sendSetSize: 0 deInUse: 0 bcInUse: 0 deSending: 0
   1FBE 21 EE 21           8030 	ld	hl,#__str_194
   1FC1 E5                 8031 	push	hl
                           8032 ;	genCall
   1FC2 CD 00 00           8033 	call	_printf
   1FC5 E8 02              8034 	lda	sp,2(sp)
                           8035 ;	IncludeCustom/MessageIntro.c 396
                           8036 ;	genIpush
                           8037 ; _saveRegsForCall: sendSetSize: 0 deInUse: 0 bcInUse: 0 deSending: 0
   1FC7 21 64 00           8038 	ld	hl,#0x0064
   1FCA E5                 8039 	push	hl
                           8040 ;	genCall
   1FCB CD 00 00           8041 	call	_delay
   1FCE E8 02              8042 	lda	sp,2(sp)
                           8043 ;	IncludeCustom/MessageIntro.c 397
                           8044 ;	genIpush
                           8045 ; _saveRegsForCall: sendSetSize: 0 deInUse: 0 bcInUse: 0 deSending: 0
   1FD0 21 F0 21           8046 	ld	hl,#__str_195
   1FD3 E5                 8047 	push	hl
                           8048 ;	genCall
   1FD4 CD 00 00           8049 	call	_printf
   1FD7 E8 02              8050 	lda	sp,2(sp)
                           8051 ;	IncludeCustom/MessageIntro.c 398
                           8052 ;	genIpush
                           8053 ; _saveRegsForCall: sendSetSize: 0 deInUse: 0 bcInUse: 0 deSending: 0
   1FD9 21 64 00           8054 	ld	hl,#0x0064
   1FDC E5                 8055 	push	hl
                           8056 ;	genCall
   1FDD CD 00 00           8057 	call	_delay
   1FE0 E8 02              8058 	lda	sp,2(sp)
                           8059 ;	IncludeCustom/MessageIntro.c 399
                           8060 ;	genAssign
                           8061 ;	AOP_STK for 
   1FE2 F8 05              8062 	lda	hl,5(sp)
   1FE4 4E                 8063 	ld	c,(hl)
   1FE5 23                 8064 	inc	hl
   1FE6 46                 8065 	ld	b,(hl)
                           8066 ;	genPointerGet
                           8067 ;	AOP_STK for _messageIntroPart3_sloc0_1_0
   1FE7 0A                 8068 	ld	a,(bc)
   1FE8 F8 02              8069 	lda	hl,2(sp)
                           8070 ;	genCast
                           8071 ;	AOP_STK for _messageIntroPart3_sloc0_1_0
                           8072 ;	AOP_STK for _messageIntroPart3_sloc1_1_0
                           8073 ; Removed redundent load
   1FEA 32                 8074 	ld      (hl-),a
   1FEB 2B                 8075 	dec	hl
   1FEC 22                 8076 	ld	(hl+),a
   1FED 23                 8077 	inc	hl
   1FEE 7E                 8078 	ld	a,(hl)
   1FEF 17                 8079 	rla	
   1FF0 9F                 8080 	sbc	a,a
   1FF1 2B                 8081 	dec	hl
   1FF2 77                 8082 	ld	(hl),a
                           8083 ;	genIpush
                           8084 ; _saveRegsForCall: sendSetSize: 0 deInUse: 0 bcInUse: 1 deSending: 0
   1FF3 C5                 8085 	push	bc
                           8086 ;	AOP_STK for _messageIntroPart3_sloc1_1_0
   1FF4 2B                 8087 	dec	hl
   1FF5 2A                 8088 	ld	a,(hl+)
   1FF6 66                 8089 	ld	h,(hl)
   1FF7 6F                 8090 	ld	l,a
   1FF8 E5                 8091 	push	hl
                           8092 ;	genIpush
   1FF9 21 F2 21           8093 	ld	hl,#__str_196
   1FFC E5                 8094 	push	hl
                           8095 ;	genCall
   1FFD CD 00 00           8096 	call	_printf
   2000 E8 04              8097 	lda	sp,4(sp)
   2002 C1                 8098 	pop	bc
                           8099 ;	IncludeCustom/MessageIntro.c 400
                           8100 ;	genIpush
                           8101 ; _saveRegsForCall: sendSetSize: 0 deInUse: 0 bcInUse: 1 deSending: 0
   2003 C5                 8102 	push	bc
   2004 21 64 00           8103 	ld	hl,#0x0064
   2007 E5                 8104 	push	hl
                           8105 ;	genCall
   2008 CD 00 00           8106 	call	_delay
   200B E8 02              8107 	lda	sp,2(sp)
   200D C1                 8108 	pop	bc
                           8109 ;	IncludeCustom/MessageIntro.c 401
                           8110 ;	genPlus
                           8111 ;	AOP_STK for _messageIntroPart3_sloc1_1_0
                           8112 ;	genPlusIncr
                           8113 ;	Can't optimise plus by inc, falling back to the normal way
   200E 21 01 00           8114 	ld	hl,#0x0001
   2011 09                 8115 	add	hl,bc
   2012 7D                 8116 	ld	a,l
   2013 54                 8117 	ld	d,h
   2014 F8 00              8118 	lda	hl,0(sp)
                           8119 ;	genPointerGet
                           8120 ;	AOP_STK for _messageIntroPart3_sloc1_1_0
                           8121 ;	AOP_STK for _messageIntroPart3_sloc0_1_0
   2016 22                 8122 	ld	(hl+),a
   2017 72                 8123 	ld	(hl),d
   2018 5F                 8124 	ld	e,a
   2019 1A                 8125 	ld	a,(de)
   201A 23                 8126 	inc	hl
                           8127 ;	genCast
                           8128 ;	AOP_STK for _messageIntroPart3_sloc0_1_0
                           8129 ;	AOP_STK for _messageIntroPart3_sloc1_1_0
                           8130 ; Removed redundent load
   201B 32                 8131 	ld      (hl-),a
   201C 2B                 8132 	dec	hl
   201D 22                 8133 	ld	(hl+),a
   201E 23                 8134 	inc	hl
   201F 7E                 8135 	ld	a,(hl)
   2020 17                 8136 	rla	
   2021 9F                 8137 	sbc	a,a
   2022 2B                 8138 	dec	hl
   2023 77                 8139 	ld	(hl),a
                           8140 ;	genIpush
                           8141 ; _saveRegsForCall: sendSetSize: 0 deInUse: 0 bcInUse: 1 deSending: 0
   2024 C5                 8142 	push	bc
                           8143 ;	AOP_STK for _messageIntroPart3_sloc1_1_0
   2025 2B                 8144 	dec	hl
   2026 2A                 8145 	ld	a,(hl+)
   2027 66                 8146 	ld	h,(hl)
   2028 6F                 8147 	ld	l,a
   2029 E5                 8148 	push	hl
                           8149 ;	genIpush
   202A 21 F5 21           8150 	ld	hl,#__str_197
   202D E5                 8151 	push	hl
                           8152 ;	genCall
   202E CD 00 00           8153 	call	_printf
   2031 E8 04              8154 	lda	sp,4(sp)
   2033 C1                 8155 	pop	bc
                           8156 ;	IncludeCustom/MessageIntro.c 402
                           8157 ;	genIpush
                           8158 ; _saveRegsForCall: sendSetSize: 0 deInUse: 0 bcInUse: 1 deSending: 0
   2034 C5                 8159 	push	bc
   2035 21 64 00           8160 	ld	hl,#0x0064
   2038 E5                 8161 	push	hl
                           8162 ;	genCall
   2039 CD 00 00           8163 	call	_delay
   203C E8 02              8164 	lda	sp,2(sp)
   203E C1                 8165 	pop	bc
                           8166 ;	IncludeCustom/MessageIntro.c 403
                           8167 ;	genPlus
                           8168 ;	AOP_STK for _messageIntroPart3_sloc1_1_0
                           8169 ;	genPlusIncr
                           8170 ;	Can't optimise plus by inc, falling back to the normal way
   203F 21 02 00           8171 	ld	hl,#0x0002
   2042 09                 8172 	add	hl,bc
   2043 7D                 8173 	ld	a,l
   2044 54                 8174 	ld	d,h
   2045 F8 00              8175 	lda	hl,0(sp)
                           8176 ;	genPointerGet
                           8177 ;	AOP_STK for _messageIntroPart3_sloc1_1_0
                           8178 ;	AOP_STK for _messageIntroPart3_sloc0_1_0
   2047 22                 8179 	ld	(hl+),a
   2048 72                 8180 	ld	(hl),d
   2049 5F                 8181 	ld	e,a
   204A 1A                 8182 	ld	a,(de)
   204B 23                 8183 	inc	hl
                           8184 ;	genCast
                           8185 ;	AOP_STK for _messageIntroPart3_sloc0_1_0
                           8186 ;	AOP_STK for _messageIntroPart3_sloc1_1_0
                           8187 ; Removed redundent load
   204C 32                 8188 	ld      (hl-),a
   204D 2B                 8189 	dec	hl
   204E 22                 8190 	ld	(hl+),a
   204F 23                 8191 	inc	hl
   2050 7E                 8192 	ld	a,(hl)
   2051 17                 8193 	rla	
   2052 9F                 8194 	sbc	a,a
   2053 2B                 8195 	dec	hl
   2054 77                 8196 	ld	(hl),a
                           8197 ;	genIpush
                           8198 ; _saveRegsForCall: sendSetSize: 0 deInUse: 0 bcInUse: 1 deSending: 0
   2055 C5                 8199 	push	bc
                           8200 ;	AOP_STK for _messageIntroPart3_sloc1_1_0
   2056 2B                 8201 	dec	hl
   2057 2A                 8202 	ld	a,(hl+)
   2058 66                 8203 	ld	h,(hl)
   2059 6F                 8204 	ld	l,a
   205A E5                 8205 	push	hl
                           8206 ;	genIpush
   205B 21 F8 21           8207 	ld	hl,#__str_198
   205E E5                 8208 	push	hl
                           8209 ;	genCall
   205F CD 00 00           8210 	call	_printf
   2062 E8 04              8211 	lda	sp,4(sp)
   2064 C1                 8212 	pop	bc
                           8213 ;	IncludeCustom/MessageIntro.c 404
                           8214 ;	genIpush
                           8215 ; _saveRegsForCall: sendSetSize: 0 deInUse: 0 bcInUse: 1 deSending: 0
   2065 C5                 8216 	push	bc
   2066 21 64 00           8217 	ld	hl,#0x0064
   2069 E5                 8218 	push	hl
                           8219 ;	genCall
   206A CD 00 00           8220 	call	_delay
   206D E8 02              8221 	lda	sp,2(sp)
   206F C1                 8222 	pop	bc
                           8223 ;	IncludeCustom/MessageIntro.c 405
                           8224 ;	genPlus
                           8225 ;	AOP_STK for _messageIntroPart3_sloc1_1_0
                           8226 ;	genPlusIncr
                           8227 ;	Can't optimise plus by inc, falling back to the normal way
   2070 21 03 00           8228 	ld	hl,#0x0003
   2073 09                 8229 	add	hl,bc
   2074 7D                 8230 	ld	a,l
   2075 54                 8231 	ld	d,h
   2076 F8 00              8232 	lda	hl,0(sp)
                           8233 ;	genPointerGet
                           8234 ;	AOP_STK for _messageIntroPart3_sloc1_1_0
                           8235 ;	AOP_STK for _messageIntroPart3_sloc0_1_0
   2078 22                 8236 	ld	(hl+),a
   2079 72                 8237 	ld	(hl),d
   207A 5F                 8238 	ld	e,a
   207B 1A                 8239 	ld	a,(de)
   207C 23                 8240 	inc	hl
                           8241 ;	genCast
                           8242 ;	AOP_STK for _messageIntroPart3_sloc0_1_0
                           8243 ;	AOP_STK for _messageIntroPart3_sloc1_1_0
                           8244 ; Removed redundent load
   207D 32                 8245 	ld      (hl-),a
   207E 2B                 8246 	dec	hl
   207F 22                 8247 	ld	(hl+),a
   2080 23                 8248 	inc	hl
   2081 7E                 8249 	ld	a,(hl)
   2082 17                 8250 	rla	
   2083 9F                 8251 	sbc	a,a
   2084 2B                 8252 	dec	hl
   2085 77                 8253 	ld	(hl),a
                           8254 ;	genIpush
                           8255 ; _saveRegsForCall: sendSetSize: 0 deInUse: 0 bcInUse: 1 deSending: 0
   2086 C5                 8256 	push	bc
                           8257 ;	AOP_STK for _messageIntroPart3_sloc1_1_0
   2087 2B                 8258 	dec	hl
   2088 2A                 8259 	ld	a,(hl+)
   2089 66                 8260 	ld	h,(hl)
   208A 6F                 8261 	ld	l,a
   208B E5                 8262 	push	hl
                           8263 ;	genIpush
   208C 21 FB 21           8264 	ld	hl,#__str_199
   208F E5                 8265 	push	hl
                           8266 ;	genCall
   2090 CD 00 00           8267 	call	_printf
   2093 E8 04              8268 	lda	sp,4(sp)
   2095 C1                 8269 	pop	bc
                           8270 ;	IncludeCustom/MessageIntro.c 406
                           8271 ;	genIpush
                           8272 ; _saveRegsForCall: sendSetSize: 0 deInUse: 0 bcInUse: 1 deSending: 0
   2096 C5                 8273 	push	bc
   2097 21 64 00           8274 	ld	hl,#0x0064
   209A E5                 8275 	push	hl
                           8276 ;	genCall
   209B CD 00 00           8277 	call	_delay
   209E E8 02              8278 	lda	sp,2(sp)
   20A0 C1                 8279 	pop	bc
                           8280 ;	IncludeCustom/MessageIntro.c 407
                           8281 ;	genPlus
                           8282 ;	AOP_STK for _messageIntroPart3_sloc1_1_0
                           8283 ;	genPlusIncr
                           8284 ;	Can't optimise plus by inc, falling back to the normal way
   20A1 21 04 00           8285 	ld	hl,#0x0004
   20A4 09                 8286 	add	hl,bc
   20A5 7D                 8287 	ld	a,l
   20A6 54                 8288 	ld	d,h
   20A7 F8 00              8289 	lda	hl,0(sp)
                           8290 ;	genPointerGet
                           8291 ;	AOP_STK for _messageIntroPart3_sloc1_1_0
                           8292 ;	AOP_STK for _messageIntroPart3_sloc0_1_0
   20A9 22                 8293 	ld	(hl+),a
   20AA 72                 8294 	ld	(hl),d
   20AB 5F                 8295 	ld	e,a
   20AC 1A                 8296 	ld	a,(de)
   20AD 23                 8297 	inc	hl
                           8298 ;	genCast
                           8299 ;	AOP_STK for _messageIntroPart3_sloc0_1_0
                           8300 ;	AOP_STK for _messageIntroPart3_sloc1_1_0
                           8301 ; Removed redundent load
   20AE 32                 8302 	ld      (hl-),a
   20AF 2B                 8303 	dec	hl
   20B0 22                 8304 	ld	(hl+),a
   20B1 23                 8305 	inc	hl
   20B2 7E                 8306 	ld	a,(hl)
   20B3 17                 8307 	rla	
   20B4 9F                 8308 	sbc	a,a
   20B5 2B                 8309 	dec	hl
   20B6 77                 8310 	ld	(hl),a
                           8311 ;	genIpush
                           8312 ; _saveRegsForCall: sendSetSize: 0 deInUse: 0 bcInUse: 1 deSending: 0
   20B7 C5                 8313 	push	bc
                           8314 ;	AOP_STK for _messageIntroPart3_sloc1_1_0
   20B8 2B                 8315 	dec	hl
   20B9 2A                 8316 	ld	a,(hl+)
   20BA 66                 8317 	ld	h,(hl)
   20BB 6F                 8318 	ld	l,a
   20BC E5                 8319 	push	hl
                           8320 ;	genIpush
   20BD 21 FE 21           8321 	ld	hl,#__str_200
   20C0 E5                 8322 	push	hl
                           8323 ;	genCall
   20C1 CD 00 00           8324 	call	_printf
   20C4 E8 04              8325 	lda	sp,4(sp)
   20C6 C1                 8326 	pop	bc
                           8327 ;	IncludeCustom/MessageIntro.c 408
                           8328 ;	genIpush
                           8329 ; _saveRegsForCall: sendSetSize: 0 deInUse: 0 bcInUse: 1 deSending: 0
   20C7 C5                 8330 	push	bc
   20C8 21 64 00           8331 	ld	hl,#0x0064
   20CB E5                 8332 	push	hl
                           8333 ;	genCall
   20CC CD 00 00           8334 	call	_delay
   20CF E8 02              8335 	lda	sp,2(sp)
   20D1 C1                 8336 	pop	bc
                           8337 ;	IncludeCustom/MessageIntro.c 409
                           8338 ;	genPlus
                           8339 ;	genPlusIncr
   20D2 03                 8340 	inc	bc
   20D3 03                 8341 	inc	bc
   20D4 03                 8342 	inc	bc
   20D5 03                 8343 	inc	bc
   20D6 03                 8344 	inc	bc
                           8345 ;	genPointerGet
   20D7 0A                 8346 	ld	a,(bc)
                           8347 ;	genCast
                           8348 ; Removed redundent load
   20D8 4F                 8349 	ld	c,a
   20D9 17                 8350 	rla	
   20DA 9F                 8351 	sbc	a,a
   20DB 47                 8352 	ld	b,a
                           8353 ;	genIpush
                           8354 ; _saveRegsForCall: sendSetSize: 0 deInUse: 0 bcInUse: 0 deSending: 0
   20DC C5                 8355 	push	bc
                           8356 ;	genIpush
   20DD 21 01 22           8357 	ld	hl,#__str_201
   20E0 E5                 8358 	push	hl
                           8359 ;	genCall
   20E1 CD 00 00           8360 	call	_printf
   20E4 E8 04              8361 	lda	sp,4(sp)
                           8362 ;	IncludeCustom/MessageIntro.c 410
                           8363 ;	genIpush
                           8364 ; _saveRegsForCall: sendSetSize: 0 deInUse: 0 bcInUse: 0 deSending: 0
   20E6 21 64 00           8365 	ld	hl,#0x0064
   20E9 E5                 8366 	push	hl
                           8367 ;	genCall
   20EA CD 00 00           8368 	call	_delay
   20ED E8 02              8369 	lda	sp,2(sp)
                           8370 ;	IncludeCustom/MessageIntro.c 411
                           8371 ;	genIpush
                           8372 ; _saveRegsForCall: sendSetSize: 0 deInUse: 0 bcInUse: 0 deSending: 0
   20EF 21 04 22           8373 	ld	hl,#__str_202
   20F2 E5                 8374 	push	hl
                           8375 ;	genCall
   20F3 CD 00 00           8376 	call	_printf
   20F6 E8 02              8377 	lda	sp,2(sp)
                           8378 ;	IncludeCustom/MessageIntro.c 412
                           8379 ;	genIpush
                           8380 ; _saveRegsForCall: sendSetSize: 0 deInUse: 0 bcInUse: 0 deSending: 0
   20F8 21 06 22           8381 	ld	hl,#__str_203
   20FB E5                 8382 	push	hl
                           8383 ;	genCall
   20FC CD 00 00           8384 	call	_printf
   20FF E8 02              8385 	lda	sp,2(sp)
                           8386 ;	IncludeCustom/MessageIntro.c 413
                           8387 ;	genIpush
                           8388 ; _saveRegsForCall: sendSetSize: 0 deInUse: 0 bcInUse: 0 deSending: 0
   2101 21 64 00           8389 	ld	hl,#0x0064
   2104 E5                 8390 	push	hl
                           8391 ;	genCall
   2105 CD 00 00           8392 	call	_delay
   2108 E8 02              8393 	lda	sp,2(sp)
                           8394 ;	IncludeCustom/MessageIntro.c 414
                           8395 ;	genIpush
                           8396 ; _saveRegsForCall: sendSetSize: 0 deInUse: 0 bcInUse: 0 deSending: 0
   210A 21 0A 22           8397 	ld	hl,#__str_204
   210D E5                 8398 	push	hl
                           8399 ;	genCall
   210E CD 00 00           8400 	call	_printf
   2111 E8 02              8401 	lda	sp,2(sp)
                           8402 ;	IncludeCustom/MessageIntro.c 415
                           8403 ;	genIpush
                           8404 ; _saveRegsForCall: sendSetSize: 0 deInUse: 0 bcInUse: 0 deSending: 0
   2113 21 64 00           8405 	ld	hl,#0x0064
   2116 E5                 8406 	push	hl
                           8407 ;	genCall
   2117 CD 00 00           8408 	call	_delay
   211A E8 02              8409 	lda	sp,2(sp)
                           8410 ;	IncludeCustom/MessageIntro.c 416
                           8411 ;	genIpush
                           8412 ; _saveRegsForCall: sendSetSize: 0 deInUse: 0 bcInUse: 0 deSending: 0
   211C 21 0C 22           8413 	ld	hl,#__str_205
   211F E5                 8414 	push	hl
                           8415 ;	genCall
   2120 CD 00 00           8416 	call	_printf
   2123 E8 02              8417 	lda	sp,2(sp)
                           8418 ;	IncludeCustom/MessageIntro.c 417
                           8419 ;	genIpush
                           8420 ; _saveRegsForCall: sendSetSize: 0 deInUse: 0 bcInUse: 0 deSending: 0
   2125 21 64 00           8421 	ld	hl,#0x0064
   2128 E5                 8422 	push	hl
                           8423 ;	genCall
   2129 CD 00 00           8424 	call	_delay
   212C E8 02              8425 	lda	sp,2(sp)
                           8426 ;	IncludeCustom/MessageIntro.c 418
                           8427 ;	genIpush
                           8428 ; _saveRegsForCall: sendSetSize: 0 deInUse: 0 bcInUse: 0 deSending: 0
   212E 21 0E 22           8429 	ld	hl,#__str_206
   2131 E5                 8430 	push	hl
                           8431 ;	genCall
   2132 CD 00 00           8432 	call	_printf
   2135 E8 02              8433 	lda	sp,2(sp)
                           8434 ;	IncludeCustom/MessageIntro.c 419
                           8435 ;	genIpush
                           8436 ; _saveRegsForCall: sendSetSize: 0 deInUse: 0 bcInUse: 0 deSending: 0
   2137 21 64 00           8437 	ld	hl,#0x0064
   213A E5                 8438 	push	hl
                           8439 ;	genCall
   213B CD 00 00           8440 	call	_delay
   213E E8 02              8441 	lda	sp,2(sp)
                           8442 ;	IncludeCustom/MessageIntro.c 420
                           8443 ;	genIpush
                           8444 ; _saveRegsForCall: sendSetSize: 0 deInUse: 0 bcInUse: 0 deSending: 0
   2140 21 10 22           8445 	ld	hl,#__str_207
   2143 E5                 8446 	push	hl
                           8447 ;	genCall
   2144 CD 00 00           8448 	call	_printf
   2147 E8 02              8449 	lda	sp,2(sp)
                           8450 ;	IncludeCustom/MessageIntro.c 421
                           8451 ;	genIpush
                           8452 ; _saveRegsForCall: sendSetSize: 0 deInUse: 0 bcInUse: 0 deSending: 0
   2149 21 64 00           8453 	ld	hl,#0x0064
   214C E5                 8454 	push	hl
                           8455 ;	genCall
   214D CD 00 00           8456 	call	_delay
   2150 E8 02              8457 	lda	sp,2(sp)
                           8458 ;	IncludeCustom/MessageIntro.c 422
                           8459 ;	genIpush
                           8460 ; _saveRegsForCall: sendSetSize: 0 deInUse: 0 bcInUse: 0 deSending: 0
   2152 21 12 22           8461 	ld	hl,#__str_208
   2155 E5                 8462 	push	hl
                           8463 ;	genCall
   2156 CD 00 00           8464 	call	_printf
   2159 E8 02              8465 	lda	sp,2(sp)
                           8466 ;	IncludeCustom/MessageIntro.c 423
                           8467 ;	genIpush
                           8468 ; _saveRegsForCall: sendSetSize: 0 deInUse: 0 bcInUse: 0 deSending: 0
   215B 21 64 00           8469 	ld	hl,#0x0064
   215E E5                 8470 	push	hl
                           8471 ;	genCall
   215F CD 00 00           8472 	call	_delay
   2162 E8 02              8473 	lda	sp,2(sp)
                           8474 ;	IncludeCustom/MessageIntro.c 424
                           8475 ;	genIpush
                           8476 ; _saveRegsForCall: sendSetSize: 0 deInUse: 0 bcInUse: 0 deSending: 0
   2164 21 14 22           8477 	ld	hl,#__str_209
   2167 E5                 8478 	push	hl
                           8479 ;	genCall
   2168 CD 00 00           8480 	call	_printf
   216B E8 02              8481 	lda	sp,2(sp)
                           8482 ;	IncludeCustom/MessageIntro.c 425
                           8483 ;	genIpush
                           8484 ; _saveRegsForCall: sendSetSize: 0 deInUse: 0 bcInUse: 0 deSending: 0
   216D 21 64 00           8485 	ld	hl,#0x0064
   2170 E5                 8486 	push	hl
                           8487 ;	genCall
   2171 CD 00 00           8488 	call	_delay
   2174 E8 02              8489 	lda	sp,2(sp)
                           8490 ;	IncludeCustom/MessageIntro.c 426
                           8491 ;	genIpush
                           8492 ; _saveRegsForCall: sendSetSize: 0 deInUse: 0 bcInUse: 0 deSending: 0
   2176 21 16 22           8493 	ld	hl,#__str_210
   2179 E5                 8494 	push	hl
                           8495 ;	genCall
   217A CD 00 00           8496 	call	_printf
   217D E8 02              8497 	lda	sp,2(sp)
                           8498 ;	IncludeCustom/MessageIntro.c 427
                           8499 ;	genIpush
                           8500 ; _saveRegsForCall: sendSetSize: 0 deInUse: 0 bcInUse: 0 deSending: 0
   217F 21 64 00           8501 	ld	hl,#0x0064
   2182 E5                 8502 	push	hl
                           8503 ;	genCall
   2183 CD 00 00           8504 	call	_delay
   2186 E8 02              8505 	lda	sp,2(sp)
                           8506 ;	IncludeCustom/MessageIntro.c 428
                           8507 ;	genIpush
                           8508 ; _saveRegsForCall: sendSetSize: 0 deInUse: 0 bcInUse: 0 deSending: 0
   2188 21 18 22           8509 	ld	hl,#__str_211
   218B E5                 8510 	push	hl
                           8511 ;	genCall
   218C CD 00 00           8512 	call	_printf
   218F E8 02              8513 	lda	sp,2(sp)
                           8514 ;	IncludeCustom/MessageIntro.c 429
                           8515 ;	genIpush
                           8516 ; _saveRegsForCall: sendSetSize: 0 deInUse: 0 bcInUse: 0 deSending: 0
   2191 21 64 00           8517 	ld	hl,#0x0064
   2194 E5                 8518 	push	hl
                           8519 ;	genCall
   2195 CD 00 00           8520 	call	_delay
   2198 E8 02              8521 	lda	sp,2(sp)
                           8522 ;	IncludeCustom/MessageIntro.c 430
                           8523 ;	genIpush
                           8524 ; _saveRegsForCall: sendSetSize: 0 deInUse: 0 bcInUse: 0 deSending: 0
   219A 21 1A 22           8525 	ld	hl,#__str_212
   219D E5                 8526 	push	hl
                           8527 ;	genCall
   219E CD 00 00           8528 	call	_printf
   21A1 E8 02              8529 	lda	sp,2(sp)
                           8530 ;	IncludeCustom/MessageIntro.c 431
                           8531 ;	genIpush
                           8532 ; _saveRegsForCall: sendSetSize: 0 deInUse: 0 bcInUse: 0 deSending: 0
   21A3 21 64 00           8533 	ld	hl,#0x0064
   21A6 E5                 8534 	push	hl
                           8535 ;	genCall
   21A7 CD 00 00           8536 	call	_delay
   21AA E8 02              8537 	lda	sp,2(sp)
                           8538 ;	IncludeCustom/MessageIntro.c 432
                           8539 ;	genIpush
                           8540 ; _saveRegsForCall: sendSetSize: 0 deInUse: 0 bcInUse: 0 deSending: 0
   21AC 21 1C 22           8541 	ld	hl,#__str_213
   21AF E5                 8542 	push	hl
                           8543 ;	genCall
   21B0 CD 00 00           8544 	call	_printf
   21B3 E8 02              8545 	lda	sp,2(sp)
                           8546 ;	IncludeCustom/MessageIntro.c 433
                           8547 ;	genIpush
                           8548 ; _saveRegsForCall: sendSetSize: 0 deInUse: 0 bcInUse: 0 deSending: 0
   21B5 21 64 00           8549 	ld	hl,#0x0064
   21B8 E5                 8550 	push	hl
                           8551 ;	genCall
   21B9 CD 00 00           8552 	call	_delay
   21BC E8 02              8553 	lda	sp,2(sp)
                           8554 ;	IncludeCustom/MessageIntro.c 434
                           8555 ;	genIpush
                           8556 ; _saveRegsForCall: sendSetSize: 0 deInUse: 0 bcInUse: 0 deSending: 0
   21BE 21 1E 22           8557 	ld	hl,#__str_214
   21C1 E5                 8558 	push	hl
                           8559 ;	genCall
   21C2 CD 00 00           8560 	call	_printf
   21C5 E8 02              8561 	lda	sp,2(sp)
                           8562 ;	IncludeCustom/MessageIntro.c 435
                           8563 ;	genIpush
                           8564 ; _saveRegsForCall: sendSetSize: 0 deInUse: 0 bcInUse: 0 deSending: 0
   21C7 21 64 00           8565 	ld	hl,#0x0064
   21CA E5                 8566 	push	hl
                           8567 ;	genCall
   21CB CD 00 00           8568 	call	_delay
   21CE E8 02              8569 	lda	sp,2(sp)
                           8570 ;	IncludeCustom/MessageIntro.c 436
                           8571 ;	genIpush
                           8572 ; _saveRegsForCall: sendSetSize: 0 deInUse: 0 bcInUse: 0 deSending: 0
   21D0 21 20 22           8573 	ld	hl,#__str_215
   21D3 E5                 8574 	push	hl
                           8575 ;	genCall
   21D4 CD 00 00           8576 	call	_printf
   21D7 E8 02              8577 	lda	sp,2(sp)
                           8578 ;	genLabel
   21D9                    8579 00101$:
                           8580 ;	genEndFunction
   21D9 E8 03              8581 	lda	sp,3(sp)
   21DB C9                 8582 	ret
   21DC                    8583 ___messageIntroPart3_end:
   21DC                    8584 __str_187:
   21DC 0A                 8585 	.db 0x0A
   21DD 0A                 8586 	.db 0x0A
   21DE 0A                 8587 	.db 0x0A
   21DF 0A                 8588 	.db 0x0A
   21E0 20                 8589 	.ascii " "
   21E1 00                 8590 	.db 0x00
   21E2                    8591 __str_188:
   21E2 50                 8592 	.ascii "P"
   21E3 00                 8593 	.db 0x00
   21E4                    8594 __str_189:
   21E4 61                 8595 	.ascii "a"
   21E5 00                 8596 	.db 0x00
   21E6                    8597 __str_190:
   21E6 72                 8598 	.ascii "r"
   21E7 00                 8599 	.db 0x00
   21E8                    8600 __str_191:
   21E8 66                 8601 	.ascii "f"
   21E9 00                 8602 	.db 0x00
   21EA                    8603 __str_192:
   21EA 61                 8604 	.ascii "a"
   21EB 00                 8605 	.db 0x00
   21EC                    8606 __str_193:
   21EC 69                 8607 	.ascii "i"
   21ED 00                 8608 	.db 0x00
   21EE                    8609 __str_194:
   21EE 74                 8610 	.ascii "t"
   21EF 00                 8611 	.db 0x00
   21F0                    8612 __str_195:
   21F0 20                 8613 	.ascii " "
   21F1 00                 8614 	.db 0x00
   21F2                    8615 __str_196:
   21F2 25 63              8616 	.ascii "%c"
   21F4 00                 8617 	.db 0x00
   21F5                    8618 __str_197:
   21F5 25 63              8619 	.ascii "%c"
   21F7 00                 8620 	.db 0x00
   21F8                    8621 __str_198:
   21F8 25 63              8622 	.ascii "%c"
   21FA 00                 8623 	.db 0x00
   21FB                    8624 __str_199:
   21FB 25 63              8625 	.ascii "%c"
   21FD 00                 8626 	.db 0x00
   21FE                    8627 __str_200:
   21FE 25 63              8628 	.ascii "%c"
   2200 00                 8629 	.db 0x00
   2201                    8630 __str_201:
   2201 25 63              8631 	.ascii "%c"
   2203 00                 8632 	.db 0x00
   2204                    8633 __str_202:
   2204 2E                 8634 	.ascii "."
   2205 00                 8635 	.db 0x00
   2206                    8636 __str_203:
   2206 0A                 8637 	.db 0x0A
   2207 0A                 8638 	.db 0x0A
   2208 20                 8639 	.ascii " "
   2209 00                 8640 	.db 0x00
   220A                    8641 __str_204:
   220A 43                 8642 	.ascii "C"
   220B 00                 8643 	.db 0x00
   220C                    8644 __str_205:
   220C 27                 8645 	.ascii "'"
   220D 00                 8646 	.db 0x00
   220E                    8647 __str_206:
   220E 65                 8648 	.ascii "e"
   220F 00                 8649 	.db 0x00
   2210                    8650 __str_207:
   2210 73                 8651 	.ascii "s"
   2211 00                 8652 	.db 0x00
   2212                    8653 __str_208:
   2212 74                 8654 	.ascii "t"
   2213 00                 8655 	.db 0x00
   2214                    8656 __str_209:
   2214 20                 8657 	.ascii " "
   2215 00                 8658 	.db 0x00
   2216                    8659 __str_210:
   2216 70                 8660 	.ascii "p"
   2217 00                 8661 	.db 0x00
   2218                    8662 __str_211:
   2218 61                 8663 	.ascii "a"
   2219 00                 8664 	.db 0x00
   221A                    8665 __str_212:
   221A 72                 8666 	.ascii "r"
   221B 00                 8667 	.db 0x00
   221C                    8668 __str_213:
   221C 74                 8669 	.ascii "t"
   221D 00                 8670 	.db 0x00
   221E                    8671 __str_214:
   221E 69                 8672 	.ascii "i"
   221F 00                 8673 	.db 0x00
   2220                    8674 __str_215:
   2220 2E                 8675 	.ascii "."
   2221 00                 8676 	.db 0x00
                           8677 ;	BANK2.c 26
                           8678 ;	genLabel
                           8679 ;	genFunction
                           8680 ;	---------------------------------
                           8681 ; Function textNext
                           8682 ; ---------------------------------
   2222                    8683 ___textNext_start:
   2222                    8684 _textNext:
   2222 E8 EA              8685 	lda	sp,-22(sp)
                           8686 ;	BANK2.c 28
                           8687 ;	genAssign
                           8688 ;	AOP_STK for _textNext_A_PressedA_1_1
   2224 F8 14              8689 	lda	hl,20(sp)
   2226 36 00              8690 	ld	(hl),#0x00
   2228 23                 8691 	inc	hl
   2229 36 00              8692 	ld	(hl),#0x00
                           8693 ;	BANK2.c 29
                           8694 ;	genAssign
                           8695 ;	AOP_STK for _textNext_delayVerifA_1_1
   222B F8 12              8696 	lda	hl,18(sp)
   222D 36 00              8697 	ld	(hl),#0x00
   222F 23                 8698 	inc	hl
   2230 36 00              8699 	ld	(hl),#0x00
                           8700 ;	BANK2.c 30
                           8701 ;	genLabel
   2232                    8702 00111$:
                           8703 ;	genCmpEq
                           8704 ;	AOP_STK for _textNext_A_PressedA_1_1
                           8705 ; genCmpEq: left 2, right 2, result 0
   2232 F8 14              8706 	lda	hl,20(sp)
   2234 2A                 8707 	ld	a,(hl+)
   2235 B6                 8708 	or	a,(hl)
   2236 C2 DF 23           8709 	jp	nz,00114$
   2239 18 03              8710 	jr	00125$
   223B                    8711 00124$:
   223B C3 DF 23           8712 	jp	00114$
   223E                    8713 00125$:
                           8714 ;	BANK2.c 32
                           8715 ;	genIpush
                           8716 ; _saveRegsForCall: sendSetSize: 0 deInUse: 0 bcInUse: 0 deSending: 0
   223E 21 9B 8E           8717 	ld	hl,#0x8E9B
   2241 E5                 8718 	push	hl
                           8719 ;	genIpush
   2242 3E 00              8720 	ld	a,#0x00
   2244 F5                 8721 	push	af
   2245 33                 8722 	inc	sp
                           8723 ;	genCall
   2246 CD 00 00           8724 	call	_move_sprite
   2249 E8 03              8725 	lda	sp,3(sp)
                           8726 ;	BANK2.c 33
                           8727 ;	genLabel
   224B                    8728 00103$:
                           8729 ;	genCmpEq
                           8730 ;	AOP_STK for _textNext_delayVerifA_1_1
                           8731 ; genCmpEq: left 2, right 2, result 1
   224B F8 12              8732 	lda	hl,18(sp)
   224D 7E                 8733 	ld	a,(hl)
   224E FE A0              8734 	cp	a,#0xA0
   2250 C2 5E 22           8735 	jp	nz,00126$
   2253 23                 8736 	inc	hl
   2254 7E                 8737 	ld	a,(hl)
   2255 FE 0F              8738 	cp	a,#0x0F
   2257 C2 5E 22           8739 	jp	nz,00126$
   225A 3E 01              8740 	ld	a,#0x01
   225C 18 01              8741 	jr	00127$
   225E                    8742 00126$:
   225E AF                 8743 	xor	a,a
   225F                    8744 00127$:
                           8745 ;	genIfx
   225F B7                 8746 	or	a,a
   2260 C2 0C 23           8747 	jp	nz,00105$
                           8748 ;	BANK2.c 34
                           8749 ;	genPlus
                           8750 ;	AOP_STK for _textNext_delayVerifA_1_1
                           8751 ;	AOP_STK for _textNext_sloc0_1_0
                           8752 ;	genPlusIncr
                           8753 ;	Can't optimise plus by inc, falling back to the normal way
   2263 F8 12              8754 	lda	hl,18(sp)
   2265 5E                 8755 	ld	e,(hl)
   2266 23                 8756 	inc	hl
   2267 56                 8757 	ld	d,(hl)
   2268 21 01 00           8758 	ld	hl,#0x0001
   226B 19                 8759 	add	hl,de
   226C 7D                 8760 	ld	a,l
   226D 54                 8761 	ld	d,h
   226E F8 10              8762 	lda	hl,16(sp)
   2270 22                 8763 	ld	(hl+),a
   2271 72                 8764 	ld	(hl),d
                           8765 ;	genAssign
                           8766 ;	AOP_STK for _textNext_sloc0_1_0
                           8767 ;	AOP_STK for _textNext_delayVerifA_1_1
   2272 2B                 8768 	dec	hl
   2273 2A                 8769 	ld	a,(hl+)
   2274 5E                 8770 	ld	e,(hl)
   2275 23                 8771 	inc	hl
   2276 22                 8772 	ld	(hl+),a
   2277 73                 8773 	ld	(hl),e
                           8774 ;	BANK2.c 35
                           8775 ;	genCall
                           8776 ; _saveRegsForCall: sendSetSize: 0 deInUse: 0 bcInUse: 0 deSending: 0
   2278 CD 00 00           8777 	call	_joypad
   227B 4B                 8778 	ld	c,e
                           8779 ;	genCmpEq
                           8780 ; genCmpEq: left 1, right 1, result 1
   227C 79                 8781 	ld	a,c
   227D FE 10              8782 	cp	a,#0x10
   227F C2 86 22           8783 	jp	nz,00128$
   2282 3E 01              8784 	ld	a,#0x01
   2284 18 01              8785 	jr	00129$
   2286                    8786 00128$:
   2286 AF                 8787 	xor	a,a
   2287                    8788 00129$:
                           8789 ;	genIfx
   2287 B7                 8790 	or	a,a
   2288 CA 4B 22           8791 	jp	z,00103$
                           8792 ;	BANK2.c 36
                           8793 ;	genAssign
                           8794 ;	AOP_STK for _textNext_A_PressedA_1_1
   228B F8 14              8795 	lda	hl,20(sp)
   228D 36 01              8796 	ld	(hl),#0x01
   228F 23                 8797 	inc	hl
   2290 36 00              8798 	ld	(hl),#0x00
                           8799 ;	BANK2.c 37
                           8800 ;	genAssign
                           8801 ;	AOP_STK for _textNext_delayVerifA_1_1
   2292 F8 12              8802 	lda	hl,18(sp)
   2294 36 A0              8803 	ld	(hl),#0xA0
   2296 23                 8804 	inc	hl
   2297 36 0F              8805 	ld	(hl),#0x0F
                           8806 ;	BANK2.c 38
                           8807 ;	genAssign
                           8808 ;	AOP_STK for _textNext_sloc1_1_0
   2299 F8 0E              8809 	lda	hl,14(sp)
   229B 36 26              8810 	ld	(hl),#0x26
   229D 23                 8811 	inc	hl
   229E 36 FF              8812 	ld	(hl),#0xFF
                           8813 ;	genAssign (pointer)
                           8814 ;	AOP_STK for _textNext_sloc1_1_0
   22A0 2B                 8815 	dec	hl
   22A1 5E                 8816 	ld	e,(hl)
   22A2 23                 8817 	inc	hl
   22A3 56                 8818 	ld	d,(hl)
   22A4 3E 80              8819 	ld	a,#0x80
   22A6 12                 8820 	ld	(de),a
                           8821 ;	BANK2.c 39
                           8822 ;	genAssign
                           8823 ;	AOP_STK for _textNext_sloc2_1_0
   22A7 F8 0C              8824 	lda	hl,12(sp)
   22A9 36 25              8825 	ld	(hl),#0x25
   22AB 23                 8826 	inc	hl
   22AC 36 FF              8827 	ld	(hl),#0xFF
                           8828 ;	genAssign (pointer)
                           8829 ;	AOP_STK for _textNext_sloc2_1_0
   22AE 2B                 8830 	dec	hl
   22AF 5E                 8831 	ld	e,(hl)
   22B0 23                 8832 	inc	hl
   22B1 56                 8833 	ld	d,(hl)
   22B2 3E 11              8834 	ld	a,#0x11
   22B4 12                 8835 	ld	(de),a
                           8836 ;	BANK2.c 40
                           8837 ;	genAssign
                           8838 ;	AOP_STK for _textNext_sloc3_1_0
   22B5 F8 0A              8839 	lda	hl,10(sp)
   22B7 36 24              8840 	ld	(hl),#0x24
   22B9 23                 8841 	inc	hl
   22BA 36 FF              8842 	ld	(hl),#0xFF
                           8843 ;	genAssign (pointer)
                           8844 ;	AOP_STK for _textNext_sloc3_1_0
   22BC 2B                 8845 	dec	hl
   22BD 5E                 8846 	ld	e,(hl)
   22BE 23                 8847 	inc	hl
   22BF 56                 8848 	ld	d,(hl)
   22C0 3E 55              8849 	ld	a,#0x55
   22C2 12                 8850 	ld	(de),a
                           8851 ;	BANK2.c 42
                           8852 ;	genAssign
                           8853 ;	AOP_STK for _textNext_sloc4_1_0
   22C3 F8 08              8854 	lda	hl,8(sp)
   22C5 36 10              8855 	ld	(hl),#0x10
   22C7 23                 8856 	inc	hl
   22C8 36 FF              8857 	ld	(hl),#0xFF
                           8858 ;	genAssign (pointer)
                           8859 ;	AOP_STK for _textNext_sloc4_1_0
   22CA 2B                 8860 	dec	hl
   22CB 5E                 8861 	ld	e,(hl)
   22CC 23                 8862 	inc	hl
   22CD 56                 8863 	ld	d,(hl)
   22CE 3E 09              8864 	ld	a,#0x09
   22D0 12                 8865 	ld	(de),a
                           8866 ;	BANK2.c 43
                           8867 ;	genAssign
                           8868 ;	AOP_STK for _textNext_sloc5_1_0
   22D1 F8 06              8869 	lda	hl,6(sp)
   22D3 36 11              8870 	ld	(hl),#0x11
   22D5 23                 8871 	inc	hl
   22D6 36 FF              8872 	ld	(hl),#0xFF
                           8873 ;	genAssign (pointer)
                           8874 ;	AOP_STK for _textNext_sloc5_1_0
   22D8 2B                 8875 	dec	hl
   22D9 5E                 8876 	ld	e,(hl)
   22DA 23                 8877 	inc	hl
   22DB 56                 8878 	ld	d,(hl)
   22DC 3E 5A              8879 	ld	a,#0x5A
   22DE 12                 8880 	ld	(de),a
                           8881 ;	BANK2.c 44
                           8882 ;	genAssign
                           8883 ;	AOP_STK for _textNext_sloc6_1_0
   22DF F8 04              8884 	lda	hl,4(sp)
   22E1 36 12              8885 	ld	(hl),#0x12
   22E3 23                 8886 	inc	hl
   22E4 36 FF              8887 	ld	(hl),#0xFF
                           8888 ;	genAssign (pointer)
                           8889 ;	AOP_STK for _textNext_sloc6_1_0
   22E6 2B                 8890 	dec	hl
   22E7 5E                 8891 	ld	e,(hl)
   22E8 23                 8892 	inc	hl
   22E9 56                 8893 	ld	d,(hl)
   22EA 3E 41              8894 	ld	a,#0x41
   22EC 12                 8895 	ld	(de),a
                           8896 ;	BANK2.c 45
                           8897 ;	genAssign
                           8898 ;	AOP_STK for _textNext_sloc7_1_0
   22ED F8 02              8899 	lda	hl,2(sp)
   22EF 36 13              8900 	ld	(hl),#0x13
   22F1 23                 8901 	inc	hl
   22F2 36 FF              8902 	ld	(hl),#0xFF
                           8903 ;	genAssign (pointer)
                           8904 ;	AOP_STK for _textNext_sloc7_1_0
   22F4 2B                 8905 	dec	hl
   22F5 5E                 8906 	ld	e,(hl)
   22F6 23                 8907 	inc	hl
   22F7 56                 8908 	ld	d,(hl)
   22F8 3E 00              8909 	ld	a,#0x00
   22FA 12                 8910 	ld	(de),a
                           8911 ;	BANK2.c 46
                           8912 ;	genAssign
                           8913 ;	AOP_STK for _textNext_sloc8_1_0
   22FB F8 00              8914 	lda	hl,0(sp)
   22FD 36 14              8915 	ld	(hl),#0x14
   22FF 23                 8916 	inc	hl
   2300 36 FF              8917 	ld	(hl),#0xFF
                           8918 ;	genAssign (pointer)
                           8919 ;	AOP_STK for _textNext_sloc8_1_0
   2302 2B                 8920 	dec	hl
   2303 5E                 8921 	ld	e,(hl)
   2304 23                 8922 	inc	hl
   2305 56                 8923 	ld	d,(hl)
   2306 3E 8A              8924 	ld	a,#0x8A
   2308 12                 8925 	ld	(de),a
                           8926 ;	genGoto
   2309 C3 4B 22           8927 	jp	00103$
                           8928 ;	genLabel
   230C                    8929 00105$:
                           8930 ;	BANK2.c 49
                           8931 ;	genAssign
                           8932 ;	AOP_STK for _textNext_delayVerifA_1_1
   230C F8 12              8933 	lda	hl,18(sp)
   230E 36 00              8934 	ld	(hl),#0x00
   2310 23                 8935 	inc	hl
   2311 36 00              8936 	ld	(hl),#0x00
                           8937 ;	BANK2.c 50
                           8938 ;	genIpush
                           8939 ; _saveRegsForCall: sendSetSize: 0 deInUse: 0 bcInUse: 0 deSending: 0
   2313 21 C8 C8           8940 	ld	hl,#0xC8C8
   2316 E5                 8941 	push	hl
                           8942 ;	genIpush
   2317 3E 00              8943 	ld	a,#0x00
   2319 F5                 8944 	push	af
   231A 33                 8945 	inc	sp
                           8946 ;	genCall
   231B CD 00 00           8947 	call	_move_sprite
   231E E8 03              8948 	lda	sp,3(sp)
                           8949 ;	BANK2.c 51
                           8950 ;	genLabel
   2320                    8951 00108$:
                           8952 ;	genCmpEq
                           8953 ;	AOP_STK for _textNext_delayVerifA_1_1
                           8954 ; genCmpEq: left 2, right 2, result 1
   2320 F8 12              8955 	lda	hl,18(sp)
   2322 7E                 8956 	ld	a,(hl)
   2323 FE A0              8957 	cp	a,#0xA0
   2325 C2 33 23           8958 	jp	nz,00130$
   2328 23                 8959 	inc	hl
   2329 7E                 8960 	ld	a,(hl)
   232A FE 0F              8961 	cp	a,#0x0F
   232C C2 33 23           8962 	jp	nz,00130$
   232F 3E 01              8963 	ld	a,#0x01
   2331 18 01              8964 	jr	00131$
   2333                    8965 00130$:
   2333 AF                 8966 	xor	a,a
   2334                    8967 00131$:
                           8968 ;	genIfx
   2334 B7                 8969 	or	a,a
   2335 C2 D5 23           8970 	jp	nz,00110$
                           8971 ;	BANK2.c 52
                           8972 ;	genPlus
                           8973 ;	AOP_STK for _textNext_delayVerifA_1_1
                           8974 ;	genPlusIncr
   2338 F8 12              8975 	lda	hl,18(sp)
   233A 4E                 8976 	ld	c,(hl)
   233B 23                 8977 	inc	hl
   233C 46                 8978 	ld	b,(hl)
   233D 03                 8979 	inc	bc
                           8980 ;	genAssign
                           8981 ;	AOP_STK for _textNext_delayVerifA_1_1
   233E 2B                 8982 	dec	hl
   233F 71                 8983 	ld	(hl),c
   2340 23                 8984 	inc	hl
   2341 70                 8985 	ld	(hl),b
                           8986 ;	BANK2.c 53
                           8987 ;	genCall
                           8988 ; _saveRegsForCall: sendSetSize: 0 deInUse: 0 bcInUse: 1 deSending: 0
   2342 C5                 8989 	push	bc
   2343 CD 00 00           8990 	call	_joypad
                           8991 ;	AOP_STK for _textNext_sloc8_1_0
   2346 F8 02              8992 	lda	hl,2(sp)
   2348 73                 8993 	ld	(hl),e
   2349 C1                 8994 	pop	bc
                           8995 ;	genCmpEq
                           8996 ;	AOP_STK for _textNext_sloc8_1_0
                           8997 ; genCmpEq: left 1, right 1, result 1
   234A F8 00              8998 	lda	hl,0(sp)
   234C 7E                 8999 	ld	a,(hl)
   234D FE 10              9000 	cp	a,#0x10
   234F C2 56 23           9001 	jp	nz,00132$
   2352 3E 01              9002 	ld	a,#0x01
   2354 18 01              9003 	jr	00133$
   2356                    9004 00132$:
   2356 AF                 9005 	xor	a,a
   2357                    9006 00133$:
                           9007 ;	genIfx
   2357 B7                 9008 	or	a,a
   2358 CA 20 23           9009 	jp	z,00108$
                           9010 ;	BANK2.c 54
                           9011 ;	genAssign
                           9012 ;	AOP_STK for _textNext_A_PressedA_1_1
   235B F8 14              9013 	lda	hl,20(sp)
   235D 36 01              9014 	ld	(hl),#0x01
   235F 23                 9015 	inc	hl
   2360 36 00              9016 	ld	(hl),#0x00
                           9017 ;	BANK2.c 55
                           9018 ;	genAssign
                           9019 ;	AOP_STK for _textNext_delayVerifA_1_1
   2362 F8 12              9020 	lda	hl,18(sp)
   2364 36 A0              9021 	ld	(hl),#0xA0
   2366 23                 9022 	inc	hl
   2367 36 0F              9023 	ld	(hl),#0x0F
                           9024 ;	BANK2.c 56
                           9025 ;	genAssign
                           9026 ;	AOP_STK for _textNext_sloc7_1_0
   2369 F8 02              9027 	lda	hl,2(sp)
   236B 36 26              9028 	ld	(hl),#0x26
   236D 23                 9029 	inc	hl
   236E 36 FF              9030 	ld	(hl),#0xFF
                           9031 ;	genAssign (pointer)
                           9032 ;	AOP_STK for _textNext_sloc7_1_0
   2370 2B                 9033 	dec	hl
   2371 5E                 9034 	ld	e,(hl)
   2372 23                 9035 	inc	hl
   2373 56                 9036 	ld	d,(hl)
   2374 3E 80              9037 	ld	a,#0x80
   2376 12                 9038 	ld	(de),a
                           9039 ;	BANK2.c 57
                           9040 ;	genAssign
                           9041 ;	AOP_STK for _textNext_sloc6_1_0
   2377 23                 9042 	inc	hl
   2378 36 25              9043 	ld	(hl),#0x25
   237A 23                 9044 	inc	hl
   237B 36 FF              9045 	ld	(hl),#0xFF
                           9046 ;	genAssign (pointer)
                           9047 ;	AOP_STK for _textNext_sloc6_1_0
   237D 2B                 9048 	dec	hl
   237E 5E                 9049 	ld	e,(hl)
   237F 23                 9050 	inc	hl
   2380 56                 9051 	ld	d,(hl)
   2381 3E 11              9052 	ld	a,#0x11
   2383 12                 9053 	ld	(de),a
                           9054 ;	BANK2.c 58
                           9055 ;	genAssign
                           9056 ;	AOP_STK for _textNext_sloc5_1_0
   2384 23                 9057 	inc	hl
   2385 36 24              9058 	ld	(hl),#0x24
   2387 23                 9059 	inc	hl
   2388 36 FF              9060 	ld	(hl),#0xFF
                           9061 ;	genAssign (pointer)
                           9062 ;	AOP_STK for _textNext_sloc5_1_0
   238A 2B                 9063 	dec	hl
   238B 5E                 9064 	ld	e,(hl)
   238C 23                 9065 	inc	hl
   238D 56                 9066 	ld	d,(hl)
   238E 3E 55              9067 	ld	a,#0x55
   2390 12                 9068 	ld	(de),a
                           9069 ;	BANK2.c 60
                           9070 ;	genAssign
                           9071 ;	AOP_STK for _textNext_sloc4_1_0
   2391 23                 9072 	inc	hl
   2392 36 10              9073 	ld	(hl),#0x10
   2394 23                 9074 	inc	hl
   2395 36 FF              9075 	ld	(hl),#0xFF
                           9076 ;	genAssign (pointer)
                           9077 ;	AOP_STK for _textNext_sloc4_1_0
   2397 2B                 9078 	dec	hl
   2398 5E                 9079 	ld	e,(hl)
   2399 23                 9080 	inc	hl
   239A 56                 9081 	ld	d,(hl)
   239B 3E 09              9082 	ld	a,#0x09
   239D 12                 9083 	ld	(de),a
                           9084 ;	BANK2.c 61
                           9085 ;	genAssign
                           9086 ;	AOP_STK for _textNext_sloc3_1_0
   239E 23                 9087 	inc	hl
   239F 36 11              9088 	ld	(hl),#0x11
   23A1 23                 9089 	inc	hl
   23A2 36 FF              9090 	ld	(hl),#0xFF
                           9091 ;	genAssign (pointer)
                           9092 ;	AOP_STK for _textNext_sloc3_1_0
   23A4 2B                 9093 	dec	hl
   23A5 5E                 9094 	ld	e,(hl)
   23A6 23                 9095 	inc	hl
   23A7 56                 9096 	ld	d,(hl)
   23A8 3E 09              9097 	ld	a,#0x09
   23AA 12                 9098 	ld	(de),a
                           9099 ;	BANK2.c 62
                           9100 ;	genAssign
                           9101 ;	AOP_STK for _textNext_sloc2_1_0
   23AB 23                 9102 	inc	hl
   23AC 36 12              9103 	ld	(hl),#0x12
   23AE 23                 9104 	inc	hl
   23AF 36 FF              9105 	ld	(hl),#0xFF
                           9106 ;	genAssign (pointer)
                           9107 ;	AOP_STK for _textNext_sloc2_1_0
   23B1 2B                 9108 	dec	hl
   23B2 5E                 9109 	ld	e,(hl)
   23B3 23                 9110 	inc	hl
   23B4 56                 9111 	ld	d,(hl)
   23B5 3E 41              9112 	ld	a,#0x41
   23B7 12                 9113 	ld	(de),a
                           9114 ;	BANK2.c 63
                           9115 ;	genAssign
                           9116 ;	AOP_STK for _textNext_sloc1_1_0
   23B8 23                 9117 	inc	hl
   23B9 36 13              9118 	ld	(hl),#0x13
   23BB 23                 9119 	inc	hl
   23BC 36 FF              9120 	ld	(hl),#0xFF
                           9121 ;	genAssign (pointer)
                           9122 ;	AOP_STK for _textNext_sloc1_1_0
   23BE 2B                 9123 	dec	hl
   23BF 5E                 9124 	ld	e,(hl)
   23C0 23                 9125 	inc	hl
   23C1 56                 9126 	ld	d,(hl)
   23C2 3E 00              9127 	ld	a,#0x00
   23C4 12                 9128 	ld	(de),a
                           9129 ;	BANK2.c 64
                           9130 ;	genAssign
                           9131 ;	AOP_STK for _textNext_sloc0_1_0
   23C5 23                 9132 	inc	hl
   23C6 36 14              9133 	ld	(hl),#0x14
   23C8 23                 9134 	inc	hl
   23C9 36 FF              9135 	ld	(hl),#0xFF
                           9136 ;	genAssign (pointer)
                           9137 ;	AOP_STK for _textNext_sloc0_1_0
   23CB 2B                 9138 	dec	hl
   23CC 5E                 9139 	ld	e,(hl)
   23CD 23                 9140 	inc	hl
   23CE 56                 9141 	ld	d,(hl)
   23CF 3E 8A              9142 	ld	a,#0x8A
   23D1 12                 9143 	ld	(de),a
                           9144 ;	genGoto
   23D2 C3 20 23           9145 	jp	00108$
                           9146 ;	genLabel
   23D5                    9147 00110$:
                           9148 ;	BANK2.c 67
                           9149 ;	genAssign
                           9150 ;	AOP_STK for _textNext_delayVerifA_1_1
   23D5 F8 12              9151 	lda	hl,18(sp)
   23D7 36 00              9152 	ld	(hl),#0x00
   23D9 23                 9153 	inc	hl
   23DA 36 00              9154 	ld	(hl),#0x00
                           9155 ;	genGoto
   23DC C3 32 22           9156 	jp	00111$
                           9157 ;	genLabel
   23DF                    9158 00114$:
                           9159 ;	genEndFunction
   23DF E8 16              9160 	lda	sp,22(sp)
   23E1 C9                 9161 	ret
   23E2                    9162 ___textNext_end:
                           9163 ;	BANK2.c 75
                           9164 ;	genLabel
                           9165 ;	genFunction
                           9166 ;	---------------------------------
                           9167 ; Function Intro
                           9168 ; ---------------------------------
   23E2                    9169 ___Intro_start:
   23E2                    9170 _Intro:
                           9171 	
                           9172 ;	BANK2.c 196
                           9173 ;	genLabel
   23E2                    9174 00101$:
                           9175 ;	genEndFunction
                           9176 	
   23E2 C9                 9177 	ret
   23E3                    9178 ___Intro_end:
                           9179 ;	BANK2.c 198
                           9180 ;	genLabel
                           9181 ;	genFunction
                           9182 ;	---------------------------------
                           9183 ; Function Intro2
                           9184 ; ---------------------------------
   23E3                    9185 ___Intro2_start:
   23E3                    9186 _Intro2:
                           9187 	
                           9188 ;	BANK2.c 234
                           9189 ;	genCall
                           9190 ; _saveRegsForCall: sendSetSize: 0 deInUse: 0 bcInUse: 0 deSending: 0
   23E3 CD 00 00           9191 	call	_getchar
                           9192 ;	BANK2.c 235
                           9193 ;	genAssign
                           9194 ;	AOP_HL for _IDMap
   23E6 21 00 00           9195 	ld	hl,#_IDMap
   23E9 36 01              9196 	ld	(hl),#0x01
   23EB 23                 9197 	inc	hl
   23EC 36 00              9198 	ld	(hl),#0x00
                           9199 ;	BANK2.c 236
                           9200 ;	genAssign
                           9201 ;	AOP_HL for _OutCheck
   23EE 21 00 00           9202 	ld	hl,#_OutCheck
   23F1 36 01              9203 	ld	(hl),#0x01
   23F3 23                 9204 	inc	hl
   23F4 36 00              9205 	ld	(hl),#0x00
                           9206 ;	genLabel
   23F6                    9207 00101$:
                           9208 ;	genEndFunction
                           9209 	
   23F6 C9                 9210 	ret
   23F7                    9211 ___Intro2_end:
                           9212 	.area _CODE_2
ASxxxx Assembler V01.75  (GameBoy Z80-like CPU), page 1.

Symbol Table

  9 _By                                17AB GR
    _IDMap                             **** GX
  9 _Intro                             23E2 GR
  9 _Intro2                            23E3 GR
    _OutCheck                          **** GX
  9 _PressStart                        170B GR
  9 _TitleScreenMap                    15A3 GR
  9 _TitleScreenTiles                  07F3 GR
  9 ___Intro2_end                      23F7 R
  9 ___Intro2_start                    23E3 R
  9 ___Intro_end                       23E3 R
  9 ___Intro_start                     23E2 R
  9 ___messageIntroPart1_end           07F3 R
  9 ___messageIntroPart1_start         0000 R
  9 ___messageIntroPart2_end           1EA4 R
  9 ___messageIntroPart2_start         19B7 R
  9 ___messageIntroPart3_end           21DC R
  9 ___messageIntroPart3_start         1F3E R
  9 ___textNext_end                    23E2 R
  9 ___textNext_start                  2222 R
  9 __str_0                            18BB R
  9 __str_1                            18C4 R
  9 __str_10                           18D9 R
  9 __str_100                          1999 R
  9 __str_101                          199B R
  9 __str_102                          199D R
  9 __str_103                          199F R
  9 __str_104                          19A1 R
  9 __str_105                          19A3 R
  9 __str_106                          19A5 R
  9 __str_107                          19A7 R
  9 __str_108                          19A9 R
  9 __str_109                          19AB R
  9 __str_11                           18DB R
  9 __str_110                          19AD R
  9 __str_111                          19AF R
  9 __str_112                          19B1 R
  9 __str_113                          19B3 R
  9 __str_114                          19B5 R
  9 __str_115                          1EA4 R
  9 __str_116                          1EAA R
  9 __str_117                          1EAC R
  9 __str_118                          1EAE R
  9 __str_119                          1EB0 R
  9 __str_12                           18DD R
  9 __str_120                          1EB2 R
  9 __str_121                          1EB4 R
  9 __str_122                          1EB6 R
  9 __str_123                          1EB8 R
  9 __str_124                          1EBA R
  9 __str_125                          1EBC R
  9 __str_126                          1EBE R
  9 __str_127                          1EC0 R
  9 __str_128                          1EC2 R
  9 __str_129                          1EC4 R
  9 __str_13                           18DF R
  9 __str_130                          1EC6 R
  9 __str_131                          1EC8 R
  9 __str_132                          1ECA R
  9 __str_133                          1ECE R
  9 __str_134                          1ED0 R
  9 __str_135                          1ED2 R
  9 __str_136                          1ED4 R
  9 __str_137                          1ED6 R
  9 __str_138                          1ED8 R
  9 __str_139                          1EDA R
  9 __str_14                           18E1 R
  9 __str_140                          1EDC R
  9 __str_141                          1EDE R
  9 __str_142                          1EE0 R
  9 __str_143                          1EE2 R
  9 __str_144                          1EE4 R
  9 __str_145                          1EE6 R
  9 __str_146                          1EE8 R
  9 __str_147                          1EEA R
  9 __str_148                          1EEC R
  9 __str_149                          1EEE R
  9 __str_15                           18E3 R
  9 __str_150                          1EF2 R
  9 __str_151                          1EF4 R
  9 __str_152                          1EF6 R
  9 __str_153                          1EF8 R
  9 __str_154                          1EFA R
  9 __str_155                          1EFC R
  9 __str_156                          1EFE R
  9 __str_157                          1F00 R
  9 __str_158                          1F02 R
  9 __str_159                          1F04 R
  9 __str_16                           18E5 R
  9 __str_160                          1F06 R
  9 __str_161                          1F08 R
  9 __str_162                          1F0A R
  9 __str_163                          1F0C R
  9 __str_164                          1F0E R
  9 __str_165                          1F10 R
  9 __str_166                          1F12 R
  9 __str_167                          1F14 R
  9 __str_168                          1F16 R
  9 __str_169                          1F1A R
  9 __str_17                           18E7 R
  9 __str_170                          1F1C R
  9 __str_171                          1F1E R
  9 __str_172                          1F20 R
  9 __str_173                          1F22 R
  9 __str_174                          1F24 R
  9 __str_175                          1F26 R
  9 __str_176                          1F28 R
  9 __str_177                          1F2A R
  9 __str_178                          1F2C R
  9 __str_179                          1F2E R
  9 __str_18                           18E9 R
  9 __str_180                          1F30 R
  9 __str_181                          1F32 R
  9 __str_182                          1F34 R
  9 __str_183                          1F36 R
  9 __str_184                          1F38 R
  9 __str_185                          1F3A R
  9 __str_186                          1F3C R
  9 __str_187                          21DC R
  9 __str_188                          21E2 R
  9 __str_189                          21E4 R
  9 __str_19                           18ED R
  9 __str_190                          21E6 R
  9 __str_191                          21E8 R
  9 __str_192                          21EA R
  9 __str_193                          21EC R
  9 __str_194                          21EE R
  9 __str_195                          21F0 R
  9 __str_196                          21F2 R
  9 __str_197                          21F5 R
  9 __str_198                          21F8 R
  9 __str_199                          21FB R
  9 __str_2                            18C6 R
  9 __str_20                           18EF R
  9 __str_200                          21FE R
  9 __str_201                          2201 R
  9 __str_202                          2204 R
  9 __str_203                          2206 R
  9 __str_204                          220A R
  9 __str_205                          220C R
  9 __str_206                          220E R
  9 __str_207                          2210 R
  9 __str_208                          2212 R
  9 __str_209                          2214 R
  9 __str_21                           18F1 R
  9 __str_210                          2216 R
  9 __str_211                          2218 R
  9 __str_212                          221A R
  9 __str_213                          221C R
  9 __str_214                          221E R
  9 __str_215                          2220 R
  9 __str_22                           18F3 R
  9 __str_23                           18F5 R
  9 __str_24                           18F7 R
  9 __str_25                           18F9 R
  9 __str_26                           18FB R
  9 __str_27                           18FD R
  9 __str_28                           18FF R
  9 __str_29                           1901 R
  9 __str_3                            18C8 R
  9 __str_30                           1903 R
  9 __str_31                           1905 R
  9 __str_32                           1907 R
  9 __str_33                           190B R
  9 __str_34                           190D R
  9 __str_35                           190F R
  9 __str_36                           1911 R
  9 __str_37                           1913 R
  9 __str_38                           1915 R
  9 __str_39                           1917 R
  9 __str_4                            18CA R
  9 __str_40                           1919 R
  9 __str_41                           191B R
  9 __str_42                           191D R
  9 __str_43                           191F R
  9 __str_44                           1921 R
  9 __str_45                           1923 R
  9 __str_46                           1925 R
  9 __str_47                           1927 R
  9 __str_48                           1929 R
  9 __str_49                           192B R
  9 __str_5                            18CF R
  9 __str_50                           192D R
  9 __str_51                           1931 R
  9 __str_52                           1933 R
  9 __str_53                           1935 R
  9 __str_54                           1937 R
  9 __str_55                           1939 R
  9 __str_56                           193B R
  9 __str_57                           193D R
  9 __str_58                           193F R
  9 __str_59                           1941 R
  9 __str_6                            18D1 R
  9 __str_60                           1943 R
  9 __str_61                           1945 R
  9 __str_62                           1947 R
  9 __str_63                           194B R
  9 __str_64                           194D R
  9 __str_65                           194F R
  9 __str_66                           1951 R
  9 __str_67                           1953 R
  9 __str_68                           1955 R
  9 __str_69                           1957 R
  9 __str_7                            18D3 R
  9 __str_70                           1959 R
  9 __str_71                           195B R
  9 __str_72                           195D R
  9 __str_73                           195F R
  9 __str_74                           1961 R
  9 __str_75                           1963 R
  9 __str_76                           1965 R
  9 __str_77                           1967 R
  9 __str_78                           1969 R
  9 __str_79                           196B R
  9 __str_8                            18D5 R
  9 __str_80                           196D R
  9 __str_81                           196F R
  9 __str_82                           1973 R
  9 __str_83                           1975 R
  9 __str_84                           1977 R
  9 __str_85                           1979 R
  9 __str_86                           197B R
  9 __str_87                           197D R
  9 __str_88                           197F R
  9 __str_89                           1981 R
  9 __str_9                            18D7 R
  9 __str_90                           1983 R
  9 __str_91                           1985 R
  9 __str_92                           1987 R
  9 __str_93                           1989 R
  9 __str_94                           198B R
  9 __str_95                           198D R
  9 __str_96                           198F R
  9 __str_97                           1993 R
  9 __str_98                           1995 R
  9 __str_99                           1997 R
    _delay                             **** GX
    _getchar                           **** GX
    _joypad                            **** GX
  9 _messageIntroPart1                 0000 GR
  9 _messageIntroPart2                 19B7 GR
  9 _messageIntroPart3                 1F3E GR
    _move_sprite                       **** GX
    _printf                            **** GX
  9 _textIcon                          18AB GR
  9 _textNext                          2222 GR

ASxxxx Assembler V01.75  (GameBoy Z80-like CPU), page 2.

Area Table

   0 _CODE                              size    0   flags 0
   1 _DATA                              size    0   flags 0
   2 _OVERLAY                           size    0   flags 0
   3 _ISEG                              size    0   flags 0
   4 _BSEG                              size    0   flags 0
   5 _XSEG                              size    0   flags 0
   6 _GSINIT                            size    0   flags 0
   7 _GSFINAL                           size    0   flags 0
   8 _HOME                              size    0   flags 0
   9 _CODE_2                            size 23F7   flags 0
